(lp0
ccopy_reg
_reconstructor
p1
(cboto.mturk.connection
HIT
p2
c__builtin__
object
p3
Ntp4
Rp5
(dp6
S'HIT'
p7
S''
p8
sS'HITId'
p9
V30IRMPJWDZKWJ49Z2XCWUZ4358BKRP
p10
sbag1
(g2
g3
Ntp11
Rp12
(dp13
g7
g8
sg9
V30Y6N4AHYPXO5Y3PAGQ9QM9DLZEDR5
p14
sbag1
(g2
g3
Ntp15
Rp16
(dp17
g7
g8
sg9
V3RZS0FBRWKBTOTHWXSR91LRGZHDPCO
p18
sbag1
(g2
g3
Ntp19
Rp20
(dp21
g7
g8
sg9
V3909MD9T2ZIWUECGFG1ZFFDFIN3EF3
p22
sbag1
(g2
g3
Ntp23
Rp24
(dp25
g7
g8
sg9
V3EPG8DX9LKR8P88HII41NFL670S5PX
p26
sbag1
(g2
g3
Ntp27
Rp28
(dp29
g7
g8
sg9
V3K3G488TR29TPK9WIVJQNKBGCWE5QO
p30
sbag1
(g2
g3
Ntp31
Rp32
(dp33
g7
g8
sg9
V3N2YPY1GI6ZLQBY6FV63X1G16HSVE9
p34
sbag1
(g2
g3
Ntp35
Rp36
(dp37
g7
g8
sg9
V3UEBBGULPFPDJA925GG4JXZI4BYFUM
p38
sbag1
(g2
g3
Ntp39
Rp40
(dp41
g7
g8
sg9
V35JDMRECC4A28E8BQ07HX0DRJ23EG2
p42
sbag1
(g2
g3
Ntp43
Rp44
(dp45
g7
g8
sg9
V3NOEP8XAU43HRRSROONWFYCQ0Z2PXR
p46
sbag1
(g2
g3
Ntp47
Rp48
(dp49
g7
g8
sg9
V3GKAWYFRAPU3TLNAXOMKLR9YKHPPDO
p50
sbag1
(g2
g3
Ntp51
Rp52
(dp53
g7
g8
sg9
V30EMX9PEVKK8KJ9CHMC1K99ZRAUKSD
p54
sbag1
(g2
g3
Ntp55
Rp56
(dp57
g7
g8
sg9
V3D4BBDG7ZHXMH4C9ZUU2OIOFULM3CR
p58
sbag1
(g2
g3
Ntp59
Rp60
(dp61
g7
g8
sg9
V3Y3CZJSZ9KUT1LOWVA8QSALL8IG5RP
p62
sbag1
(g2
g3
Ntp63
Rp64
(dp65
g7
g8
sg9
V3YZ7A3YHR5U520O9AZ8VIKQHUKZ5SD
p66
sbag1
(g2
g3
Ntp67
Rp68
(dp69
g7
g8
sg9
V37Y5RYYI0P6E4J8JG5RQA3H1NJ8XSE
p70
sbag1
(g2
g3
Ntp71
Rp72
(dp73
g7
g8
sg9
V3H4IKZHALBJCCC2A63NVD7GXY6RNN9
p74
sbag1
(g2
g3
Ntp75
Rp76
(dp77
g7
g8
sg9
V3OND0WXMHWGG8A3MA6PZI0PSY2GEH1
p78
sbag1
(g2
g3
Ntp79
Rp80
(dp81
g7
g8
sg9
V34XASH8KLQN6XFTNAHLN4HWSTVHMP3
p82
sbag1
(g2
g3
Ntp83
Rp84
(dp85
g7
g8
sg9
V35YHTYFL1G4DWPY2A6Q9FJ11II7VFR
p86
sbag1
(g2
g3
Ntp87
Rp88
(dp89
g7
g8
sg9
V3W9XHF7WGKW9ZJMR6MHRUE5LTT8KT2
p90
sbag1
(g2
g3
Ntp91
Rp92
(dp93
g7
g8
sg9
V386T3MLZLNWOO9NZZVWEKYUP1IH80V
p94
sbag1
(g2
g3
Ntp95
Rp96
(dp97
g7
g8
sg9
V3UUIU9GZC566H01OZZDLSPM3W3D5T2
p98
sbag1
(g2
g3
Ntp99
Rp100
(dp101
g7
g8
sg9
V3W3RSPVVGSSZJ2JYRRJ2EA4217JUL5
p102
sbag1
(g2
g3
Ntp103
Rp104
(dp105
g7
g8
sg9
V33TGB4G0LPIFJJLY55WGK8DNP2MXT3
p106
sbag1
(g2
g3
Ntp107
Rp108
(dp109
g7
g8
sg9
V3ABAOCJ4R85RXRU2AU0C4MM2YR3MQU
p110
sbag1
(g2
g3
Ntp111
Rp112
(dp113
g7
g8
sg9
V3FDWKV9VCN3JPK1JR3KHENJR1C9UM7
p114
sbag1
(g2
g3
Ntp115
Rp116
(dp117
g7
g8
sg9
V3PIOQ99R7YNP72MJ34ZHR28R62JUN7
p118
sbag1
(g2
g3
Ntp119
Rp120
(dp121
g7
g8
sg9
V30U1YOGZGAX06D32P5QEGWE971XDST
p122
sbag1
(g2
g3
Ntp123
Rp124
(dp125
g7
g8
sg9
V31HLTCK4BLWJAPUXLQWRX41DJX7VGQ
p126
sbag1
(g2
g3
Ntp127
Rp128
(dp129
g7
g8
sg9
V3YCT0L9OMMA9SPUFEZ4HC1Q3L5ZSNQ
p130
sbag1
(g2
g3
Ntp131
Rp132
(dp133
g7
g8
sg9
V3OB6JN3A9QQR9S92N9PC9CW7UD5MRV
p134
sbag1
(g2
g3
Ntp135
Rp136
(dp137
g7
g8
sg9
V356ZPKYPUHI6RWI1TK9YYCJZ25WPYX
p138
sbag1
(g2
g3
Ntp139
Rp140
(dp141
g7
g8
sg9
V3Y40HMYLL1JUJW0N5AMQP4ZP8GTXUU
p142
sbag1
(g2
g3
Ntp143
Rp144
(dp145
g7
g8
sg9
V32PT7WK7DMGWMWINZQPD8O6XFLY3DR
p146
sbag1
(g2
g3
Ntp147
Rp148
(dp149
g7
g8
sg9
V341YLJU21I0O9P2QN4CJGBHI1C6I2X
p150
sbag1
(g2
g3
Ntp151
Rp152
(dp153
g7
g8
sg9
V3126F2F5F848LR1ATJX4R9RJKTQPEH
p154
sbag1
(g2
g3
Ntp155
Rp156
(dp157
g7
g8
sg9
V39O6Z4JLX2YUWBPNA0WVLQ18MN2XVJ
p158
sbag1
(g2
g3
Ntp159
Rp160
(dp161
g7
g8
sg9
V3SNR5F7R92UG45E6GO7KICQ7YFVEIU
p162
sbag1
(g2
g3
Ntp163
Rp164
(dp165
g7
g8
sg9
V30P8I9JKOIMLUS5D4UD0T7AOTOT5VI
p166
sbag1
(g2
g3
Ntp167
Rp168
(dp169
g7
g8
sg9
V3QD8LUVX4XZDYHA849EIHS799Z15XL
p170
sbag1
(g2
g3
Ntp171
Rp172
(dp173
g7
g8
sg9
V35YHTYFL1G4DWPY2A6Q9FJ11II7FVB
p174
sbag1
(g2
g3
Ntp175
Rp176
(dp177
g7
g8
sg9
V3TC2K6WK9G3VKJQDEI0S3MN4YG182F
p178
sbag1
(g2
g3
Ntp179
Rp180
(dp181
g7
g8
sg9
V3FDWKV9VCN3JPK1JR3KHENJR1C9MUZ
p182
sbag1
(g2
g3
Ntp183
Rp184
(dp185
g7
g8
sg9
V3NRZ1LDP7W76WMS6P6BHCJS18Z0PZO
p186
sbag1
(g2
g3
Ntp187
Rp188
(dp189
g7
g8
sg9
V3UAU495MIIT7PNMV4JZU6R8WWCOUOM
p190
sbag1
(g2
g3
Ntp191
Rp192
(dp193
g7
g8
sg9
V324N5FAHSXCOCBQGBHH6VWT6QEOKVI
p194
sbag1
(g2
g3
Ntp195
Rp196
(dp197
g7
g8
sg9
V3KQC8JMJGCTDYCNPLM83Z9LV7DR3H0
p198
sbag1
(g2
g3
Ntp199
Rp200
(dp201
g7
g8
sg9
V3JGHED38EDSHLQE1XYFHYQSE2BQY7Z
p202
sbag1
(g2
g3
Ntp203
Rp204
(dp205
g7
g8
sg9
V32K26U12DNPGY5K6J0VJRJYG65RDVY
p206
sbag1
(g2
g3
Ntp207
Rp208
(dp209
g7
g8
sg9
V3MA5N0ATTCC1R0QL1RM2HYCKXNQKWS
p210
sbag1
(g2
g3
Ntp211
Rp212
(dp213
g7
g8
sg9
V3M47JKRKCX2J2K9E1KCVTZ4GEL386W
p214
sbag1
(g2
g3
Ntp215
Rp216
(dp217
g7
g8
sg9
V39RRBHZ0AU2J16P2BIKGIBHJUN0ZVI
p218
sbag1
(g2
g3
Ntp219
Rp220
(dp221
g7
g8
sg9
V3V7ICJJAZAHOPV37L83QN3A3Q0IB4D
p222
sbag1
(g2
g3
Ntp223
Rp224
(dp225
g7
g8
sg9
V3MG8450X2OBPANYWJJC9VRDM6HKUP3
p226
sbag1
(g2
g3
Ntp227
Rp228
(dp229
g7
g8
sg9
V3X55NP42EOH5BTLD4ZG88INMT523P8
p230
sbag1
(g2
g3
Ntp231
Rp232
(dp233
g7
g8
sg9
V3OQQD2WO8I7DU7Y9R4QOZLMA7Q63IT
p234
sbag1
(g2
g3
Ntp235
Rp236
(dp237
g7
g8
sg9
V3FO95NVK5C1U7NM776LYLLVDM2OSRE
p238
sbag1
(g2
g3
Ntp239
Rp240
(dp241
g7
g8
sg9
V3SBX2M1TKDOBT15W4Q0GIS52C0JQ44
p242
sbag1
(g2
g3
Ntp243
Rp244
(dp245
g7
g8
sg9
V3MQKOF1EE2PTDUKB9A0FDLHUDETDW8
p246
sbag1
(g2
g3
Ntp247
Rp248
(dp249
g7
g8
sg9
V3O4VWC1GEW79PIIF9MBOBM1AK5V3J5
p250
sbag1
(g2
g3
Ntp251
Rp252
(dp253
g7
g8
sg9
V3MGHRFQY2LQ33FEHCZU8JBIRUYL0Y4
p254
sbag1
(g2
g3
Ntp255
Rp256
(dp257
g7
g8
sg9
V3AA88CN98P45G5LLGS4Q2VX08VQKYR
p258
sbag1
(g2
g3
Ntp259
Rp260
(dp261
g7
g8
sg9
V3SV8KD29L4T5LVVQCE69G262EPUKZI
p262
sbag1
(g2
g3
Ntp263
Rp264
(dp265
g7
g8
sg9
V3VDVA3ILIDG3ODEZECC2QGUXUT0G1M
p266
sbag1
(g2
g3
Ntp267
Rp268
(dp269
g7
g8
sg9
V3SU800BH86TAAZZBJWRYVW3WBD6UQU
p270
sbag1
(g2
g3
Ntp271
Rp272
(dp273
g7
g8
sg9
V3S829FDFT2282UP1JFW1F4V1MGZDX1
p274
sbag1
(g2
g3
Ntp275
Rp276
(dp277
g7
g8
sg9
V3AQN9REUTFHX2ZFBOBI3YI2AOMTDY7
p278
sbag1
(g2
g3
Ntp279
Rp280
(dp281
g7
g8
sg9
V37NXA7GVST7ZWH8YWHT7AW6LFETVLW
p282
sbag1
(g2
g3
Ntp283
Rp284
(dp285
g7
g8
sg9
V329E6HTMSW3402OXR7B0C11NZUV3K4
p286
sbag1
(g2
g3
Ntp287
Rp288
(dp289
g7
g8
sg9
V302U8RURJZ2PKHBJ8U9MNOAAK9TNVQ
p290
sbag1
(g2
g3
Ntp291
Rp292
(dp293
g7
g8
sg9
V3K8CQCU3KE22Z6BOY4EI9QTORIVNW0
p294
sbag1
(g2
g3
Ntp295
Rp296
(dp297
g7
g8
sg9
V32ZCLEW0BZLGW7N27K8VOP4BP1MPJ2
p298
sbag1
(g2
g3
Ntp299
Rp300
(dp301
g7
g8
sg9
V3TX9T2ZCB92WGVP71SPC4D0X1W2ZWS
p302
sbag1
(g2
g3
Ntp303
Rp304
(dp305
g7
g8
sg9
V341H3G5YF0F385OM8LWRXIRT0SP0ZV
p306
sbag1
(g2
g3
Ntp307
Rp308
(dp309
g7
g8
sg9
V32XN26MTXZKJ3G7ITK5IP3GVLIGL0U
p310
sbag1
(g2
g3
Ntp311
Rp312
(dp313
g7
g8
sg9
V3HXK2V1N4KGADYWVXGCGVZ42MZEG23
p314
sbag1
(g2
g3
Ntp315
Rp316
(dp317
g7
g8
sg9
V33J5JKFMK6ZQB5MS4CVX8NDWY1O3QZ
p318
sbag1
(g2
g3
Ntp319
Rp320
(dp321
g7
g8
sg9
V3IHWR4LC7DEZV44F3LLKQ2ULNCYI80
p322
sbag1
(g2
g3
Ntp323
Rp324
(dp325
g7
g8
sg9
V3E9VAUV7BWFZ4SCZ41R18HU43JWYAQ
p326
sbag1
(g2
g3
Ntp327
Rp328
(dp329
g7
g8
sg9
V36U4VBVNQOEAM0EBWBGY0MD17Z8URV
p330
sbag1
(g2
g3
Ntp331
Rp332
(dp333
g7
g8
sg9
V3G4VVJO6PZHB7RTKP587P44O4QMPK1
p334
sbag1
(g2
g3
Ntp335
Rp336
(dp337
g7
g8
sg9
V3FK4G712NX1682MKMVL3BV09847SS2
p338
sbag1
(g2
g3
Ntp339
Rp340
(dp341
g7
g8
sg9
V3ZFRE2BDQ9FB5VUXBXLY6WE4AY8ZXL
p342
sbag1
(g2
g3
Ntp343
Rp344
(dp345
g7
g8
sg9
V3QQUBC64ZEFHO6GE89A4B97V0K1NXT
p346
sbag1
(g2
g3
Ntp347
Rp348
(dp349
g7
g8
sg9
V3LN50BUKPVCMRXB2A5K844H3TQRPL4
p350
sbag1
(g2
g3
Ntp351
Rp352
(dp353
g7
g8
sg9
V3TTPFEFXCTLCVVA74O616CXFH5U6HC
p354
sbag1
(g2
g3
Ntp355
Rp356
(dp357
g7
g8
sg9
V3QX22DUVOOIJ2ZQJWTUMA9LAFJJVMY
p358
sbag1
(g2
g3
Ntp359
Rp360
(dp361
g7
g8
sg9
V31MCUE39BKNZYGSE1GQLE99USDEG3E
p362
sbag1
(g2
g3
Ntp363
Rp364
(dp365
g7
g8
sg9
V3QE4DGPGBRCKGCBI1UV4OE106DAG4Z
p366
sbag1
(g2
g3
Ntp367
Rp368
(dp369
g7
g8
sg9
V3HXCEECSQMU050K7GT70PALDC42ZYR
p370
sbag1
(g2
g3
Ntp371
Rp372
(dp373
g7
g8
sg9
V3EGKVCRQFWT4N2HRAFRX3SEAL1HYBL
p374
sbag1
(g2
g3
Ntp375
Rp376
(dp377
g7
g8
sg9
V3K3G488TR29TPK9WIVJQNKBGCWEQ59
p378
sbag1
(g2
g3
Ntp379
Rp380
(dp381
g7
g8
sg9
V3SBNLSTU6U6X7PPGKXKMCPBCUGXDZY
p382
sbag1
(g2
g3
Ntp383
Rp384
(dp385
g7
g8
sg9
V388FBO7JZRU6OB6OD5W6UNE42QVNYZ
p386
sbag1
(g2
g3
Ntp387
Rp388
(dp389
g7
g8
sg9
V3M4KL7H8KVO1RKPT2Z3GEPH80FX61A
p390
sbag1
(g2
g3
Ntp391
Rp392
(dp393
g7
g8
sg9
V34XASH8KLQN6XFTNAHLN4HWSTVHPM6
p394
sbag1
(g2
g3
Ntp395
Rp396
(dp397
g7
g8
sg9
V302U8RURJZ2PKHBJ8U9MNOAAK9TVNY
p398
sbag1
(g2
g3
Ntp399
Rp400
(dp401
g7
g8
sg9
V3I6NF2WGIGX2CVFIFZEET67E695G54
p402
sbag1
(g2
g3
Ntp403
Rp404
(dp405
g7
g8
sg9
V3XT3KXP24ZZCRQLRA6OM6OYUHI96I5
p406
sbag1
(g2
g3
Ntp407
Rp408
(dp409
g7
g8
sg9
V34OWYT6U3WIZ99NP8DRYQYPW7IGI9P
p410
sbag1
(g2
g3
Ntp411
Rp412
(dp413
g7
g8
sg9
V3CMIQF80GNRP8O9ANETVFQPG8RPQ6P
p414
sbag1
(g2
g3
Ntp415
Rp416
(dp417
g7
g8
sg9
V35U0MRQMUJ8722BV999Z2DAFAJYVOD
p418
sbag1
(g2
g3
Ntp419
Rp420
(dp421
g7
g8
sg9
V3X7837UUADZ8M15XSO9MIPDUUXY6JH
p422
sbag1
(g2
g3
Ntp423
Rp424
(dp425
g7
g8
sg9
V3ZICQFRS31J0AQUCCF9J3HUFIY6ZZI
p426
sbag1
(g2
g3
Ntp427
Rp428
(dp429
g7
g8
sg9
V3BO3NEOQM0IDESXU0J5YMT0GD0YIA4
p430
sbag1
(g2
g3
Ntp431
Rp432
(dp433
g7
g8
sg9
V36QZ6V1589EMNFEOB0G3QWIXT1RUSJ
p434
sbag1
(g2
g3
Ntp435
Rp436
(dp437
g7
g8
sg9
V3HJ1EVZS2OKQN61SHRKXDDN1UNQ3R0
p438
sbag1
(g2
g3
Ntp439
Rp440
(dp441
g7
g8
sg9
V3QTFNPMJC6J6T1GT9RYP8UN68KZNZQ
p442
sbag1
(g2
g3
Ntp443
Rp444
(dp445
g7
g8
sg9
V386659BNTLI6D93E0ANZ5O7HNDC107
p446
sbag1
(g2
g3
Ntp447
Rp448
(dp449
g7
g8
sg9
V32LAQ1JNT9QN2FR300LT01EJVK5UT8
p450
sbag1
(g2
g3
Ntp451
Rp452
(dp453
g7
g8
sg9
V356TQKY9XFY26KNJKUHNZD4C9WN87V
p454
sbag1
(g2
g3
Ntp455
Rp456
(dp457
g7
g8
sg9
V39KMGHJ4RZB66KIW4RJZRJO7IK5000
p458
sbag1
(g2
g3
Ntp459
Rp460
(dp461
g7
g8
sg9
V37SQU136V7P6KYOWWTRZJTQRS5I11A
p462
sbag1
(g2
g3
Ntp463
Rp464
(dp465
g7
g8
sg9
V3TCFMTM8HEPD9J6SFXRDOC0WKBW12R
p466
sbag1
(g2
g3
Ntp467
Rp468
(dp469
g7
g8
sg9
V3BCRDCM0ODV3XLBFA99YJ4D79MY6KG
p470
sbag1
(g2
g3
Ntp471
Rp472
(dp473
g7
g8
sg9
V3BVS8WK9Q0WIX22M6X5UH4KMVIJIBZ
p474
sbag1
(g2
g3
Ntp475
Rp476
(dp477
g7
g8
sg9
V38O9DZ0A62O8G57PL33UJ8RDSLB62R
p478
sbag1
(g2
g3
Ntp479
Rp480
(dp481
g7
g8
sg9
V3XWUWJ18TLR22S6S05B35X0LEYCUUZ
p482
sbag1
(g2
g3
Ntp483
Rp484
(dp485
g7
g8
sg9
V31J7RYECZLRJA5S0P39I38Z5QAML1X
p486
sbag1
(g2
g3
Ntp487
Rp488
(dp489
g7
g8
sg9
V3VO4XFFP15N8CONF6OYNL4PC329Q7O
p490
sbag1
(g2
g3
Ntp491
Rp492
(dp493
g7
g8
sg9
V3XABXM4AJ16CC2SYGTQTZ4L7EMFQ8B
p494
sbag1
(g2
g3
Ntp495
Rp496
(dp497
g7
g8
sg9
V38G0E1M85M62F7VS5VL81J24S5LUVO
p498
sbag1
(g2
g3
Ntp499
Rp500
(dp501
g7
g8
sg9
V3E22YV8GG17CFXENMI0NHWLSYLRPN6
p502
sbag1
(g2
g3
Ntp503
Rp504
(dp505
g7
g8
sg9
V3JU8CV4BRLDUXIEZNX00WLLXOVWPOL
p506
sbag1
(g2
g3
Ntp507
Rp508
(dp509
g7
g8
sg9
V3IKDQS3DQE1177USKX1PSOQ4D3JIC6
p510
sbag1
(g2
g3
Ntp511
Rp512
(dp513
g7
g8
sg9
V3NZ1E5QA6Z26LE77ZDM0SVGHQWDB5I
p514
sbag1
(g2
g3
Ntp515
Rp516
(dp517
g7
g8
sg9
V3APP19WN71FYVZFWKIOJLCLE24GG6K
p518
sbag1
(g2
g3
Ntp519
Rp520
(dp521
g7
g8
sg9
V3HFWPF5AK9K2OL15WGK23NSXGP93SO
p522
sbag1
(g2
g3
Ntp523
Rp524
(dp525
g7
g8
sg9
V3DA79LNS59W33LEKLGPSDSOJI8N3TD
p526
sbag1
(g2
g3
Ntp527
Rp528
(dp529
g7
g8
sg9
V3GV1I4SEO9QEHRTXV9LZY4QMYM36LJ
p530
sbag1
(g2
g3
Ntp531
Rp532
(dp533
g7
g8
sg9
V3Z56AA6EK41YN9BIVLMEYH5BYRT6ML
p534
sbag1
(g2
g3
Ntp535
Rp536
(dp537
g7
g8
sg9
V39AYGO6AFFL45RWI7M1EBWUB3H36NL
p538
sbag1
(g2
g3
Ntp539
Rp540
(dp541
g7
g8
sg9
V3N3WJQXELSRQZQAW879W8R9AIG0L2E
p542
sbag1
(g2
g3
Ntp543
Rp544
(dp545
g7
g8
sg9
V36QZ6V1589EMNFEOB0G3QWIXT1SSUI
p546
sbag1
(g2
g3
Ntp547
Rp548
(dp549
g7
g8
sg9
V386659BNTLI6D93E0ANZ5O7HNCB013
p550
sbag1
(g2
g3
Ntp551
Rp552
(dp553
g7
g8
sg9
V3JHB4BPSFKACQ7B8LLW7Z0GIYSXQ90
p554
sbag1
(g2
g3
Ntp555
Rp556
(dp557
g7
g8
sg9
V3X0EMNLXEPQPN2NWO9MERDF5KOUVPU
p558
sbag1
(g2
g3
Ntp559
Rp560
(dp561
g7
g8
sg9
V37S0QRNUFBH66YS2UZ9TDD07KGT88I
p562
sbag1
(g2
g3
Ntp563
Rp564
(dp565
g7
g8
sg9
V3E24UO25QZRMNCWU811RQLUGTR86O0
p566
sbag1
(g2
g3
Ntp567
Rp568
(dp569
g7
g8
sg9
V375VMB7D4JKBCZ06KTW0CU8MY3VID6
p570
sbag1
(g2
g3
Ntp571
Rp572
(dp573
g7
g8
sg9
V304QEQWKZPLR91AF6CLAHKKPGNLO0E
p574
sbag1
(g2
g3
Ntp575
Rp576
(dp577
g7
g8
sg9
V37SOB9Z0SSYFK86FC7N1R1E2OU0L3P
p578
sbag1
(g2
g3
Ntp579
Rp580
(dp581
g7
g8
sg9
V3HA5ODM5KATM0U3OGQQ8MIKG781SV7
p582
sbag1
(g2
g3
Ntp583
Rp584
(dp585
g7
g8
sg9
V3UQVX1UPFSID2ULAJENDA7HMFIP02K
p586
sbag1
(g2
g3
Ntp587
Rp588
(dp589
g7
g8
sg9
V33EEIIWHK78ANEOBOM13RI5FPKGVQL
p590
sbag1
(g2
g3
Ntp591
Rp592
(dp593
g7
g8
sg9
V3TRB893CSJBHZZT13STBRQLAXF0G7J
p594
sbag1
(g2
g3
Ntp595
Rp596
(dp597
g7
g8
sg9
V38LRF35D5LXI3YT9LLF2IOAL1MU3U4
p598
sbag1
(g2
g3
Ntp599
Rp600
(dp601
g7
g8
sg9
V368IUKXGA5948C8VN1E6FLZ63W46PH
p602
sbag1
(g2
g3
Ntp603
Rp604
(dp605
g7
g8
sg9
V31GN6YMHLPTZFJ3T60V48K3UEH3SWH
p606
sbag1
(g2
g3
Ntp607
Rp608
(dp609
g7
g8
sg9
V3QHITW7OYOAQVQLDDRA7VVR24AFQAF
p610
sbag1
(g2
g3
Ntp611
Rp612
(dp613
g7
g8
sg9
V3VDI8GSXAFULZDYKDXLH5QH58Z6G86
p614
sbag1
(g2
g3
Ntp615
Rp616
(dp617
g7
g8
sg9
V3CMIQF80GNRP8O9ANETVFQPG8SQ6Q8
p618
sbag1
(g2
g3
Ntp619
Rp620
(dp621
g7
g8
sg9
V3EFNPKWBMSP2NCHTNE1ITHMELWP03V
p622
sbag1
(g2
g3
Ntp623
Rp624
(dp625
g7
g8
sg9
V3ZQA3IO31BSRGQVX2VPAVP3ZLFRO1H
p626
sbag1
(g2
g3
Ntp627
Rp628
(dp629
g7
g8
sg9
V3QO7EE372OOVE0Q5J5A3Q6B8MS0QBA
p630
sbag1
(g2
g3
Ntp631
Rp632
(dp633
g7
g8
sg9
V3SNR5F7R92UG45E6GO7KICQ7YFWIEZ
p634
sbag1
(g2
g3
Ntp635
Rp636
(dp637
g7
g8
sg9
V3LAZVA75NISY5BDTLZPO08D4DL5O2Y
p638
sbag1
(g2
g3
Ntp639
Rp640
(dp641
g7
g8
sg9
V3SMIWMMK616FUWVXV5Q4NLLIZENUWY
p642
sbag1
(g2
g3
Ntp643
Rp644
(dp645
g7
g8
sg9
V3ICOHX7ENCC5XAXQCYIEC8QBCLFE00
p646
sbag1
(g2
g3
Ntp647
Rp648
(dp649
g7
g8
sg9
V3HKIF5DF6YYLDIHUIPRV5MCGS5OG9V
p650
sbag1
(g2
g3
Ntp651
Rp652
(dp653
g7
g8
sg9
V37Y5RYYI0P6E4J8JG5RQA3H1NJ9SXA
p654
sbag1
(g2
g3
Ntp655
Rp656
(dp657
g7
g8
sg9
V3AJA9FLWSCZ8AJE2BZRQ0UB7AGBIFH
p658
sbag1
(g2
g3
Ntp659
Rp660
(dp661
g7
g8
sg9
V3XDSWAMB22TEO5IBX56Y1QHQ4D0QCH
p662
sbag1
(g2
g3
Ntp663
Rp664
(dp665
g7
g8
sg9
V3MYASTQBG7COTXOPX119LWZ8PDCQDH
p666
sbag1
(g2
g3
Ntp667
Rp668
(dp669
g7
g8
sg9
V3SD15I2WD2VX1N38P3HZ2IW5YZB632
p670
sbag1
(g2
g3
Ntp671
Rp672
(dp673
g7
g8
sg9
V3TZ0XG8CBUL6K3BCZRF7D9VI4MB897
p674
sbag1
(g2
g3
Ntp675
Rp676
(dp677
g7
g8
sg9
V337F8MIIMZEN580XNS613MEKZWL04G
p678
sbag1
(g2
g3
Ntp679
Rp680
(dp681
g7
g8
sg9
V35ZRNT9RUIZNQT9CPZ3TJIIWJZ5O39
p682
sbag1
(g2
g3
Ntp683
Rp684
(dp685
g7
g8
sg9
V3WKGUBL7SZN024PJCLSK16682UWL4A
p686
sbag1
(g2
g3
Ntp687
Rp688
(dp689
g7
g8
sg9
V30Z7M1Q8UYLKPMLHRXT79462A4T8AM
p690
sbag1
(g2
g3
Ntp691
Rp692
(dp693
g7
g8
sg9
V3Y40HMYLL1JUJW0N5AMQP4ZP8GTUXR
p694
sbag1
(g2
g3
Ntp695
Rp696
(dp697
g7
g8
sg9
V3OCZWXS7ZO8IYNTJQQBU6YCM2QRL5F
p698
sbag1
(g2
g3
Ntp699
Rp700
(dp701
g7
g8
sg9
V3OKP4QVBP2YZI1RZAV5V1HN0YN6GAA
p702
sbag1
(g2
g3
Ntp703
Rp704
(dp705
g7
g8
sg9
V3OREP8RUT2C41BWRG95RWS76G5RGB5
p706
sbag1
(g2
g3
Ntp707
Rp708
(dp709
g7
g8
sg9
V306W7JMRYYZP8WQ9XBT34FQ8SME8BH
p710
sbag1
(g2
g3
Ntp711
Rp712
(dp713
g7
g8
sg9
V3QMELQS6Y5CPKPOA0TIVKGZL4ES6R9
p714
sbag1
(g2
g3
Ntp715
Rp716
(dp717
g7
g8
sg9
V3URJ6VVYUPO88PSGPD8CTNA2XZ1O4U
p718
sbag1
(g2
g3
Ntp719
Rp720
(dp721
g7
g8
sg9
V3H5TOKO3D9KIJJMCPHMICNOBCZ764N
p722
sbag1
(g2
g3
Ntp723
Rp724
(dp725
g7
g8
sg9
V3FI30CQHVKK24I7L4WW5K1UHMROB6Y
p726
sbag1
(g2
g3
Ntp727
Rp728
(dp729
g7
g8
sg9
V3QI9WAYOGQC1L4ONFII0AQ4HQGB6SX
p730
sbag1
(g2
g3
Ntp731
Rp732
(dp733
g7
g8
sg9
V3GMLHYZ0LEYJJ1QXA68S8I6YAMNUYX
p734
sbag1
(g2
g3
Ntp735
Rp736
(dp737
g7
g8
sg9
V3F6045TU7DP6Y8UM4JLLD5QTOTU990
p738
sbag1
(g2
g3
Ntp739
Rp740
(dp741
g7
g8
sg9
V3J5XXLQDHMCIGDI9QBP7EAC4FT33VT
p742
sbag1
(g2
g3
Ntp743
Rp744
(dp745
g7
g8
sg9
V3MDKGGG61QO204124INQKV03SZP6TM
p746
sbag1
(g2
g3
Ntp747
Rp748
(dp749
g7
g8
sg9
V362E9TQF2HREOJAXMJX8IFBJBVBIGG
p750
sbag1
(g2
g3
Ntp751
Rp752
(dp753
g7
g8
sg9
V3HY86PZXPYJ54ZI88HMEQD9LHDLE13
p754
sbag1
(g2
g3
Ntp755
Rp756
(dp757
g7
g8
sg9
V3M67TQBQQHPK3R4RWPZL901DUBC9AF
p758
sbag1
(g2
g3
Ntp759
Rp760
(dp761
g7
g8
sg9
V3PGQRAZX02L34OYTL1DSTHOAPP3SYG
p762
sbag1
(g2
g3
Ntp763
Rp764
(dp765
g7
g8
sg9
V3P6ENY9P79XSOF586PFQ3FNKQVOIHF
p766
sbag1
(g2
g3
Ntp767
Rp768
(dp769
g7
g8
sg9
V3T6SSHJUZFBSKAGSC7XB3ROZQ83II8
p770
sbag1
(g2
g3
Ntp771
Rp772
(dp773
g7
g8
sg9
V37G6BXQPLQMTL32PTWCTREHTPPDQEA
p774
sbag1
(g2
g3
Ntp775
Rp776
(dp777
g7
g8
sg9
V3HEADTGN2PTAZF3B11Q3W8FKL6IVRM
p778
sbag1
(g2
g3
Ntp779
Rp780
(dp781
g7
g8
sg9
V3GV1I4SEO9QEHRTXV9LZY4QMYL2L6V
p782
sbag1
(g2
g3
Ntp783
Rp784
(dp785
g7
g8
sg9
V37VHPF5VYC48I1IFBBPYFZWQA7E8CO
p786
sbag1
(g2
g3
Ntp787
Rp788
(dp789
g7
g8
sg9
V3D17ECOUOEW2U12BJX5I7M5OQPW132
p790
sbag1
(g2
g3
Ntp791
Rp792
(dp793
g7
g8
sg9
V3PCPFX4U40RLRH2LO7WZ9W2T1QSQFS
p794
sbag1
(g2
g3
Ntp795
Rp796
(dp797
g7
g8
sg9
V3VGZ74AYTGHNBGOXU91M7CDOYQRGCC
p798
sbag1
(g2
g3
Ntp799
Rp800
(dp801
g7
g8
sg9
V3HO4MYYR12PH0HGR4ND0PRM5BDW6UD
p802
sbag1
(g2
g3
Ntp803
Rp804
(dp805
g7
g8
sg9
V3TKXBROM5TBOFL0YUPIBFS3Z3NSIJK
p806
sbag1
(g2
g3
Ntp807
Rp808
(dp809
g7
g8
sg9
V3MJ28H2Y1E9Q48WG3IRMYFGGXVWO5Z
p810
sbag1
(g2
g3
Ntp811
Rp812
(dp813
g7
g8
sg9
V39XCQ6V3KY50F2QC3M5SHFUPCV265S
p814
sbag1
(g2
g3
Ntp815
Rp816
(dp817
g7
g8
sg9
V3ZXNP4Z39RMXLR72EJQR4IQITWML7U
p818
sbag1
(g2
g3
Ntp819
Rp820
(dp821
g7
g8
sg9
V3S8A4GJRD34HDW5R9DN5LDOOPK56V2
p822
sbag1
(g2
g3
Ntp823
Rp824
(dp825
g7
g8
sg9
V3VZYA8PITOZ51R4X1XPB8EKYZSG05L
p826
sbag1
(g2
g3
Ntp827
Rp828
(dp829
g7
g8
sg9
V3LVTFB9DE5JR5HYGZR2HRH2525SQGR
p830
sbag1
(g2
g3
Ntp831
Rp832
(dp833
g7
g8
sg9
V31JUPBOORN51L5CLOOIXIIMD4GSL8H
p834
sbag1
(g2
g3
Ntp835
Rp836
(dp837
g7
g8
sg9
V3E24UO25QZRMNCWU811RQLUGTQ7O6F
p838
sbag1
(g2
g3
Ntp839
Rp840
(dp841
g7
g8
sg9
V3L55D8AUFAYNX79XOFNSECKS3MHYCS
p842
sbag1
(g2
g3
Ntp843
Rp844
(dp845
g7
g8
sg9
V33IXYHIZB5JCTK04RLMSVWJQ9JZE2K
p846
sbag1
(g2
g3
Ntp847
Rp848
(dp849
g7
g8
sg9
V3WGZLY9VCHNINTOTB7K9Z5E8V7Q8DO
p850
sbag1
(g2
g3
Ntp851
Rp852
(dp853
g7
g8
sg9
V3X4Q1O9UBHN5RCAZRB6JWZUCO1RO7E
p854
sbag1
(g2
g3
Ntp855
Rp856
(dp857
g7
g8
sg9
V3ZQX1VYFTD69RQFI1GYPAZQ7ZLXO81
p858
sbag1
(g2
g3
Ntp859
Rp860
(dp861
g7
g8
sg9
V31GECDVA9JNWY6QQ85FX9L8P8QD668
p862
sbag1
(g2
g3
Ntp863
Rp864
(dp865
g7
g8
sg9
V37PGLWGSJT7JQ56GCAING73CICSIKJ
p866
sbag1
(g2
g3
Ntp867
Rp868
(dp869
g7
g8
sg9
V3MDWE879UH3PM19J23ZH4BLJCTX9BA
p870
sbag1
(g2
g3
Ntp871
Rp872
(dp873
g7
g8
sg9
V3NQUW096N691ZAVVTGOBIEHOOMAL96
p874
sbag1
(g2
g3
Ntp875
Rp876
(dp877
g7
g8
sg9
V3CESM1J3EI4USL5WZNS17F72WT76WC
p878
sbag1
(g2
g3
Ntp879
Rp880
(dp881
g7
g8
sg9
V3KI0JD2ZU1JF264VRFKPFZ8L31X677
p882
sbag1
(g2
g3
Ntp883
Rp884
(dp885
g7
g8
sg9
V3Y7LTZE0YTNJOR026SABMPF0GGRUZO
p886
sbag1
(g2
g3
Ntp887
Rp888
(dp889
g7
g8
sg9
V33BFF6QPI1CVV2IEGLU30CVIM253W3
p890
sbag1
(g2
g3
Ntp891
Rp892
(dp893
g7
g8
sg9
V3C8QQOM6JP2UABOYXAUOV7GR7CXILM
p894
sbag1
(g2
g3
Ntp895
Rp896
(dp897
g7
g8
sg9
V3LXX8KJXPWA95VYS6843AVLIJRFO9Q
p898
sbag1
(g2
g3
Ntp899
Rp900
(dp901
g7
g8
sg9
V3EAWOID6MTYMZLJC7O7OCCEXCGHV0M
p902
sbag1
(g2
g3
Ntp903
Rp904
(dp905
g7
g8
sg9
V3DWGDA5POF5M6A4U37BOQHX7H8NV1P
p906
sbag1
(g2
g3
Ntp907
Rp908
(dp909
g7
g8
sg9
V39TX062QX1PAK2N4QQQP2V9PV4B3XW
p910
sbag1
(g2
g3
Ntp911
Rp912
(dp913
g7
g8
sg9
V3NI0WFPPI9H1KV4B6GZG0KYYVNR061
p914
sbag1
(g2
g3
Ntp915
Rp916
(dp917
g7
g8
sg9
V36KM3FWE3RDKOVIGPQ486YYUQYB070
p918
sbag1
(g2
g3
Ntp919
Rp920
(dp921
g7
g8
sg9
V3SX4X51T80ANAE8XYEI36QW2P9XOA5
p922
sbag1
(g2
g3
Ntp923
Rp924
(dp925
g7
g8
sg9
V3HA5ODM5KATM0U3OGQQ8MIKG781VSA
p926
sbag1
(g2
g3
Ntp927
Rp928
(dp929
g7
g8
sg9
V3IWA71V4TIH9HLAM9SON9YL95VD6X5
p930
sbag1
(g2
g3
Ntp931
Rp932
(dp933
g7
g8
sg9
V3AQN9REUTFHX2ZFBOBI3YI2AOMTYDS
p934
sbag1
(g2
g3
Ntp935
Rp936
(dp937
g7
g8
sg9
V32TZXEA1OLLNCXLFJBA1HRXU4PS14N
p938
sbag1
(g2
g3
Ntp939
Rp940
(dp941
g7
g8
sg9
V3YKP7CX6G2GL8ILQN61XQFUDH28B7X
p942
sbag1
(g2
g3
Ntp943
Rp944
(dp945
g7
g8
sg9
V3V8JSVE8YYR2U5TBK6TN40KVOYUYEL
p946
sbag1
(g2
g3
Ntp947
Rp948
(dp949
g7
g8
sg9
V34ZTTGSNJXP55DTRJXKZCHE6H55QHQ
p950
sbag1
(g2
g3
Ntp951
Rp952
(dp953
g7
g8
sg9
V3M47JKRKCX2J2K9E1KCVTZ4GEL368U
p954
sbag1
(g2
g3
Ntp955
Rp956
(dp957
g7
g8
sg9
V3D5G8J4N5A5NFUG35QVYWNG29RFVTZ
p958
sbag1
(g2
g3
Ntp959
Rp960
(dp961
g7
g8
sg9
V38F60IALAGI7MTFN2T79BUQCFV2T05
p962
sbag1
(g2
g3
Ntp963
Rp964
(dp965
g7
g8
sg9
V38B7Q9C28G6JGPSO6CI9TVZRYRL69J
p966
sbag1
(g2
g3
Ntp967
Rp968
(dp969
g7
g8
sg9
V3ZG552ORAM5TVVMQMBB2V07C9E1V26
p970
sbag1
(g2
g3
Ntp971
Rp972
(dp973
g7
g8
sg9
V3UQ1LLR26A9F4T50LM2BE9S8U4SLAL
p974
sbag1
(g2
g3
Ntp975
Rp976
(dp977
g7
g8
sg9
V371QPA24C2P7TI05YCB9PZ9MKN8T18
p978
sbag1
(g2
g3
Ntp979
Rp980
(dp981
g7
g8
sg9
V386T3MLZLNWOO9NZZVWEKYUP1IH08N
p982
sbag1
(g2
g3
Ntp983
Rp984
(dp985
g7
g8
sg9
V38G0E1M85M62F7VS5VL81J24S5MVUQ
p986
sbag1
(g2
g3
Ntp987
Rp988
(dp989
g7
g8
sg9
V3K1H3NEY7L0XG8UBU5WXRIV6JQ3GDC
p990
sbag1
(g2
g3
Ntp991
Rp992
(dp993
g7
g8
sg9
V3D42WVSDH8WU0JT7FHDTMI5V0Z9YF3
p994
sbag1
(g2
g3
Ntp995
Rp996
(dp997
g7
g8
sg9
V38Z7YZ2SB335184BPF2KCTFLHIKQIJ
p998
sbag1
(g2
g3
Ntp999
Rp1000
(dp1001
g7
g8
sg9
V3ZTE0JGGCETB3T5VISEUCLMQPCIOC7
p1002
sbag1
(g2
g3
Ntp1003
Rp1004
(dp1005
g7
g8
sg9
V3MIVREZQVHZW73UZPINWP9UY9M9QKU
p1006
sbag1
(g2
g3
Ntp1007
Rp1008
(dp1009
g7
g8
sg9
V3RBI0I35XE4ZK7DEVMCRL9GYXA53Y2
p1010
sbag1
(g2
g3
Ntp1011
Rp1012
(dp1013
g7
g8
sg9
V3M4KL7H8KVO1RKPT2Z3GEPH80GY168
p1014
sbag1
(g2
g3
Ntp1015
Rp1016
(dp1017
g7
g8
sg9
V3R15W654VDU7R9CHAIZX497DYMEQLX
p1018
sbag1
(g2
g3
Ntp1019
Rp1020
(dp1021
g7
g8
sg9
V3TD33TP5DL33RKJOU9DH06W3IAEBAO
p1022
sbag1
(g2
g3
Ntp1023
Rp1024
(dp1025
g7
g8
sg9
V3TKSOBLOHLH8AUOG0NDDVHG90SZBBJ
p1026
sbag1
(g2
g3
Ntp1027
Rp1028
(dp1029
g7
g8
sg9
V38XPGNCKHT13Y91DQPUQOF4ATSXV42
p1030
sbag1
(g2
g3
Ntp1031
Rp1032
(dp1033
g7
g8
sg9
V3ZUE82NE0A2FLD2P2DFZN5HT7K68FZ
p1034
sbag1
(g2
g3
Ntp1035
Rp1036
(dp1037
g7
g8
sg9
V3IZVJEBJ6ALYMGA1AAC86J1KDVB6Z2
p1038
sbag1
(g2
g3
Ntp1039
Rp1040
(dp1041
g7
g8
sg9
V3SR6AEG6W5UEEFKDA71TP3H8GEMYH1
p1042
sbag1
(g2
g3
Ntp1043
Rp1044
(dp1045
g7
g8
sg9
V3Q7TKIAPOTBD208C5WTD4A0EF7PLDN
p1046
sbag1
(g2
g3
Ntp1047
Rp1048
(dp1049
g7
g8
sg9
V3WRKFXQBOB8EAAVXGPJEPFINGR1YIU
p1050
sbag1
(g2
g3
Ntp1051
Rp1052
(dp1053
g7
g8
sg9
V3INZSNUD80RI1Y73GZQNZ19JFE99DH
p1054
sbag1
(g2
g3
Ntp1055
Rp1056
(dp1057
g7
g8
sg9
V32204AGAABDESOZDG1FNI3A4BIWGHL
p1058
sbag1
(g2
g3
Ntp1059
Rp1060
(dp1061
g7
g8
sg9
V309D674SHZMRKZGMEN9861MRIDZBCQ
p1062
sbag1
(g2
g3
Ntp1063
Rp1064
(dp1065
g7
g8
sg9
V3CZH926SICFMWYFRVZ5GOBGOTXVE4G
p1066
sbag1
(g2
g3
Ntp1067
Rp1068
(dp1069
g7
g8
sg9
V362E9TQF2HREOJAXMJX8IFBJBVBGIE
p1070
sbag1
(g2
g3
Ntp1071
Rp1072
(dp1073
g7
g8
sg9
V34R0BODSP104SHJR94OQT3M2TTQE5L
p1074
sbag1
(g2
g3
Ntp1075
Rp1076
(dp1077
g7
g8
sg9
V335VBRURDJ1NT4L3CU175JR4FQA9EA
p1078
sbag1
(g2
g3
Ntp1079
Rp1080
(dp1081
g7
g8
sg9
V39WICJI5ATTZPXNJR8EAZGP03493ZT
p1082
sbag1
(g2
g3
Ntp1083
Rp1084
(dp1085
g7
g8
sg9
V3VDI8GSXAFULZDYKDXLH5QH58Z68GY
p1086
sbag1
(g2
g3
Ntp1087
Rp1088
(dp1089
g7
g8
sg9
V3UDTAB6HH60O2E694N2SKUP0LOZ09C
p1090
sbag1
(g2
g3
Ntp1091
Rp1092
(dp1093
g7
g8
sg9
V3PUV2Q8SV451PRM0EJ4JQ7493DBBDQ
p1094
sbag1
(g2
g3
Ntp1095
Rp1096
(dp1097
g7
g8
sg9
V3L1EFR8WWT6FZILZ75LDN1C4RRP9FS
p1098
sbag1
(g2
g3
Ntp1099
Rp1100
(dp1101
g7
g8
sg9
V3BPP3MA3TCLIU6MC1R4XASIZFJQLEG
p1102
sbag1
(g2
g3
Ntp1103
Rp1104
(dp1105
g7
g8
sg9
V3EHIMLB7F70ZZ9TVX33ZQQT6NZJ8HX
p1106
sbag1
(g2
g3
Ntp1107
Rp1108
(dp1109
g7
g8
sg9
V3W5PY7V3UP8A5LF3Y74E1GXNT6QYJ6
p1110
sbag1
(g2
g3
Ntp1111
Rp1112
(dp1113
g7
g8
sg9
V3M7OI89LVYPLENZRIWS0VL0Z4CO6C0
p1114
sbag1
(g2
g3
Ntp1115
Rp1116
(dp1117
g7
g8
sg9
V30P8I9JKOIMLUS5D4UD0T7AOTOSV57
p1118
sbag1
(g2
g3
Ntp1119
Rp1120
(dp1121
g7
g8
sg9
V3TL87MO8CMQA0KM8W2O3SA3ZRK5LFY
p1122
sbag1
(g2
g3
Ntp1123
Rp1124
(dp1125
g7
g8
sg9
V36GJS3V78VRAJUU341I8UGQJOA0GJQ
p1126
sbag1
(g2
g3
Ntp1127
Rp1128
(dp1129
g7
g8
sg9
V337F8MIIMZEN580XNS613MEKZXM40N
p1130
sbag1
(g2
g3
Ntp1131
Rp1132
(dp1133
g7
g8
sg9
V32TZXEA1OLLNCXLFJBA1HRXU4PS41Q
p1134
sbag1
(g2
g3
Ntp1135
Rp1136
(dp1137
g7
g8
sg9
V3OEWW2KGQJCL8LB9IO95WR48ACUOD7
p1138
sbag1
(g2
g3
Ntp1139
Rp1140
(dp1141
g7
g8
sg9
V3AA88CN98P45G5LLGS4Q2VX08VQYK5
p1142
sbag1
(g2
g3
Ntp1143
Rp1144
(dp1145
g7
g8
sg9
V3S8A4GJRD34HDW5R9DN5LDOOPJ3V6N
p1146
sbag1
(g2
g3
Ntp1147
Rp1148
(dp1149
g7
g8
sg9
V3ODOP6T3ASLU1I3B2FAFMA7ZWV6427
p1150
sbag1
(g2
g3
Ntp1151
Rp1152
(dp1153
g7
g8
sg9
V3IHWR4LC7DEZV44F3LLKQ2ULNCY8IQ
p1154
sbag1
(g2
g3
Ntp1155
Rp1156
(dp1157
g7
g8
sg9
V3DA79LNS59W33LEKLGPSDSOJI7MT30
p1158
sbag1
(g2
g3
Ntp1159
Rp1160
(dp1161
g7
g8
sg9
V37SDSEDIN93OVY8HVE0EY3DZ6BO18U
p1162
sbag1
(g2
g3
Ntp1163
Rp1164
(dp1165
g7
g8
sg9
V3WA2XVDZEMI0BLJ5ENYVL902PO1E61
p1166
sbag1
(g2
g3
Ntp1167
Rp1168
(dp1169
g7
g8
sg9
V3KL228NDMVN5UE0LMMIKVVQW3Z0GKP
p1170
sbag1
(g2
g3
Ntp1171
Rp1172
(dp1173
g7
g8
sg9
V36KM3FWE3RDKOVIGPQ486YYUQZC70A
p1174
sbag1
(g2
g3
Ntp1175
Rp1176
(dp1177
g7
g8
sg9
V3FTID4TN8LZG0B331SGRHVAFXVVYL8
p1178
sbag1
(g2
g3
Ntp1179
Rp1180
(dp1181
g7
g8
sg9
V3ABAOCJ4R85RXRU2AU0C4MM2YR4QMZ
p1182
sbag1
(g2
g3
Ntp1183
Rp1184
(dp1185
g7
g8
sg9
V3ACRLU860NF6HX00AEF3WPMU3PCBEJ
p1186
sbag1
(g2
g3
Ntp1187
Rp1188
(dp1189
g7
g8
sg9
V3FCO4VKOZ4EJFLXAXX3NRN0YKZLE70
p1190
sbag1
(g2
g3
Ntp1191
Rp1192
(dp1193
g7
g8
sg9
V322ZSN9Z5GLOLHXOLUUBNXGPW7IT4L
p1194
sbag1
(g2
g3
Ntp1195
Rp1196
(dp1197
g7
g8
sg9
V3TZDZ3Y0JS7O93RR066SYZ8AQH619J
p1198
sbag1
(g2
g3
Ntp1199
Rp1200
(dp1201
g7
g8
sg9
V3S8APUMBJXKYNB0W5PZ9E77UFQRBF1
p1202
sbag1
(g2
g3
Ntp1203
Rp1204
(dp1205
g7
g8
sg9
V382GHPVPHSSJM0ZU6FOK5KCR29643I
p1206
sbag1
(g2
g3
Ntp1207
Rp1208
(dp1209
g7
g8
sg9
V37VUR2VJ6AQQ71YUCQGJ0P9IW29C1B
p1210
sbag1
(g2
g3
Ntp1211
Rp1212
(dp1213
g7
g8
sg9
V3OREP8RUT2C41BWRG95RWS76G5RBG0
p1214
sbag1
(g2
g3
Ntp1215
Rp1216
(dp1217
g7
g8
sg9
V3HKIF5DF6YYLDIHUIPRV5MCGS6P9GR
p1218
sbag1
(g2
g3
Ntp1219
Rp1220
(dp1221
g7
g8
sg9
V30OITAWPBQ4ZDEC52V9DQMOH7629HQ
p1222
sbag1
(g2
g3
Ntp1223
Rp1224
(dp1225
g7
g8
sg9
V3P4C70TRMRIGEKI37MULAV3BSZ5LGX
p1226
sbag1
(g2
g3
Ntp1227
Rp1228
(dp1229
g7
g8
sg9
V3P4C70TRMRIGEKI37MULAV3BSZ5GLS
p1230
sbag1
(g2
g3
Ntp1231
Rp1232
(dp1233
g7
g8
sg9
V3566S7OX5DKKVK3YL988K3H4VRI71D
p1234
sbag1
(g2
g3
Ntp1235
Rp1236
(dp1237
g7
g8
sg9
V3UUIU9GZC566H01OZZDLSPM3W3DT5Q
p1238
sbag1
(g2
g3
Ntp1239
Rp1240
(dp1241
g7
g8
sg9
V37VE3DA4YUII17R20FN9HSJ7V54BHZ
p1242
sbag1
(g2
g3
Ntp1243
Rp1244
(dp1245
g7
g8
sg9
V3HYV4299H0XNFZ2T72VT5NWTVJRE8N
p1246
sbag1
(g2
g3
Ntp1247
Rp1248
(dp1249
g7
g8
sg9
V3R6RZGK0XFDJWGFXFWIX448HOTXVYO
p1250
sbag1
(g2
g3
Ntp1251
Rp1252
(dp1253
g7
g8
sg9
V31D0ZWOD0A027XGEWTGSGP0KR6H0AR
p1254
sbag1
(g2
g3
Ntp1255
Rp1256
(dp1257
g7
g8
sg9
V31KPKEKW4AE7Q7L627GOB0KQ9O20BM
p1258
sbag1
(g2
g3
Ntp1259
Rp1260
(dp1261
g7
g8
sg9
V3BVS8WK9Q0WIX22M6X5UH4KMVIJBIS
p1262
sbag1
(g2
g3
Ntp1263
Rp1264
(dp1265
g7
g8
sg9
V38EHZ67RIMT0K20O7YV0A8I0S4VGMU
p1266
sbag1
(g2
g3
Ntp1267
Rp1268
(dp1269
g7
g8
sg9
V30ZKOOGW2W72EM1WSCKSUUJUWZO1AY
p1270
sbag1
(g2
g3
Ntp1271
Rp1272
(dp1273
g7
g8
sg9
V3KG2UQJ0MJPXF9F2MVFCH1B23HEQNZ
p1274
sbag1
(g2
g3
Ntp1275
Rp1276
(dp1277
g7
g8
sg9
V335VBRURDJ1NT4L3CU175JR4FP9E9C
p1278
sbag1
(g2
g3
Ntp1279
Rp1280
(dp1281
g7
g8
sg9
V3A520CCNWN11YNV840F71E2OL7REAR
p1282
sbag1
(g2
g3
Ntp1283
Rp1284
(dp1285
g7
g8
sg9
V34OWYT6U3WIZ99NP8DRYQYPW7JH9IJ
p1286
sbag1
(g2
g3
Ntp1287
Rp1288
(dp1289
g7
g8
sg9
V3IV1AEQ4DREVQFOLL36K239L0RN8J2
p1290
sbag1
(g2
g3
Ntp1291
Rp1292
(dp1293
g7
g8
sg9
V3P888QFVX3VFXUFENAFPWQB7TRJQOE
p1294
sbag1
(g2
g3
Ntp1295
Rp1296
(dp1297
g7
g8
sg9
V3421H3BM9AIV4K7VQVCY2Z4WKY69JV
p1298
sbag1
(g2
g3
Ntp1299
Rp1300
(dp1301
g7
g8
sg9
V32L724R85LLK1W3WP2NVCOPBCMYIPK
p1302
sbag1
(g2
g3
Ntp1303
Rp1304
(dp1305
g7
g8
sg9
V39WSF6KUV2MQ0RP9EJKP29MTAOVOE0
p1306
sbag1
(g2
g3
Ntp1307
Rp1308
(dp1309
g7
g8
sg9
V306996CF6WL7XW6OYQKOP530EH91BT
p1310
sbag1
(g2
g3
Ntp1311
Rp1312
(dp1313
g7
g8
sg9
V3XU80RHWHZH44WIY6TT3FP4XG92443
p1314
sbag1
(g2
g3
Ntp1315
Rp1316
(dp1317
g7
g8
sg9
V3W0KKJIARRAQ1ZU33O6W3I9YFGN8K1
p1318
sbag1
(g2
g3
Ntp1319
Rp1320
(dp1321
g7
g8
sg9
V3Y3N5A7N4GA06TLO14H6H8P4X0LYMA
p1322
sbag1
(g2
g3
Ntp1323
Rp1324
(dp1325
g7
g8
sg9
V388FBO7JZRU6OB6OD5W6UNE42QVYNA
p1326
sbag1
(g2
g3
Ntp1327
Rp1328
(dp1329
g7
g8
sg9
V39RRBHZ0AU2J16P2BIKGIBHJUN1VZF
p1330
sbag1
(g2
g3
Ntp1331
Rp1332
(dp1333
g7
g8
sg9
V388CL5C1RJOUEGDERSC3VVFC7ZILHW
p1334
sbag1
(g2
g3
Ntp1335
Rp1336
(dp1337
g7
g8
sg9
V37VUR2VJ6AQQ71YUCQGJ0P9IW291C0
p1338
sbag1
(g2
g3
Ntp1339
Rp1340
(dp1341
g7
g8
sg9
V3I7KR83SNAEQF4DD8GCA3E49ZN69KU
p1342
sbag1
(g2
g3
Ntp1343
Rp1344
(dp1345
g7
g8
sg9
V3C8QQOM6JP2UABOYXAUOV7GR7CXLIP
p1346
sbag1
(g2
g3
Ntp1347
Rp1348
(dp1349
g7
g8
sg9
V3IJ95K7NDXD62KLOJZA0NN70XU5GNU
p1350
sbag1
(g2
g3
Ntp1351
Rp1352
(dp1353
g7
g8
sg9
V3D0LPO3EAB0O6W60EKWJ9CE9S00YOP
p1354
sbag1
(g2
g3
Ntp1355
Rp1356
(dp1357
g7
g8
sg9
V3TFJJUELSHQXWMGQVUGX58JNO8NC2S
p1358
sbag1
(g2
g3
Ntp1359
Rp1360
(dp1361
g7
g8
sg9
V3NQUW096N691ZAVVTGOBIEHOONB9LX
p1362
sbag1
(g2
g3
Ntp1363
Rp1364
(dp1365
g7
g8
sg9
V360ZO6N6J1KL5SDGTSPQIRWDOS19MZ
p1366
sbag1
(g2
g3
Ntp1367
Rp1368
(dp1369
g7
g8
sg9
V3G5RUKN2EC4RNAYG5T4QV6LDTIB9NZ
p1370
sbag1
(g2
g3
Ntp1371
Rp1372
(dp1373
g7
g8
sg9
V31JUPBOORN51L5CLOOIXIIMD4GS8L4
p1374
sbag1
(g2
g3
Ntp1375
Rp1376
(dp1377
g7
g8
sg9
V3RSBJ6YZECRI65P59U4VKR7TMPAOFI
p1378
sbag1
(g2
g3
Ntp1379
Rp1380
(dp1381
g7
g8
sg9
V356ZPKYPUHI6RWI1TK9YYCJZ25WYP6
p1382
sbag1
(g2
g3
Ntp1383
Rp1384
(dp1385
g7
g8
sg9
V3CMV9YRYP32Q5M84FSFO78VRKRMLJ1
p1386
sbag1
(g2
g3
Ntp1387
Rp1388
(dp1389
g7
g8
sg9
V3KTZHH2ONIGLRNU6O0JCIV124LI8M6
p1390
sbag1
(g2
g3
Ntp1391
Rp1392
(dp1393
g7
g8
sg9
V3MDKGGG61QO204124INQKV03SYOT66
p1394
sbag1
(g2
g3
Ntp1395
Rp1396
(dp1397
g7
g8
sg9
V3HEM8MA6H9DXIURF2AS4LQGX3WFQPV
p1398
sbag1
(g2
g3
Ntp1399
Rp1400
(dp1401
g7
g8
sg9
V3YGE63DIN8YZEAJHXYCKYEXBJPKW0Y
p1402
sbag1
(g2
g3
Ntp1403
Rp1404
(dp1405
g7
g8
sg9
V3PMR2DOWOO2M0FMYKYCDKHABG5X458
p1406
sbag1
(g2
g3
Ntp1407
Rp1408
(dp1409
g7
g8
sg9
V3UYRNV2KIT0R95F601YCVAQ29BS8N6
p1410
sbag1
(g2
g3
Ntp1411
Rp1412
(dp1413
g7
g8
sg9
V3RQVKZ7ZRKKRK5LU4D8MPMR9NXW72U
p1414
sbag1
(g2
g3
Ntp1415
Rp1416
(dp1417
g7
g8
sg9
V3BFNCI9LYKRG5NHD8DMR8WW1TBW735
p1418
sbag1
(g2
g3
Ntp1419
Rp1420
(dp1421
g7
g8
sg9
V3NBFJK3IOHJOK5L0KEAD2C75N4AGO9
p1422
sbag1
(g2
g3
Ntp1423
Rp1424
(dp1425
g7
g8
sg9
V3NSM4HLQNRVII6SU2N7TLV678S1QQM
p1426
sbag1
(g2
g3
Ntp1427
Rp1428
(dp1429
g7
g8
sg9
V3ACRLU860NF6HX00AEF3WPMU3PCEBM
p1430
sbag1
(g2
g3
Ntp1431
Rp1432
(dp1433
g7
g8
sg9
V3X2YVV51PU5ZLZ4ZTHGKCJGLOHQW11
p1434
sbag1
(g2
g3
Ntp1435
Rp1436
(dp1437
g7
g8
sg9
V3H5TOKO3D9KIJJMCPHMICNOBC0846O
p1438
sbag1
(g2
g3
Ntp1439
Rp1440
(dp1441
g7
g8
sg9
V31SIZS5W59GIU77UF2WTQLGC4E3QRN
p1442
sbag1
(g2
g3
Ntp1443
Rp1444
(dp1445
g7
g8
sg9
V3H1C3QRA01KPR2S6OEBY79SCLACECT
p1446
sbag1
(g2
g3
Ntp1447
Rp1448
(dp1449
g7
g8
sg9
V3LXX8KJXPWA95VYS6843AVLIJSG9OE
p1450
sbag1
(g2
g3
Ntp1451
Rp1452
(dp1453
g7
g8
sg9
V3QREJ3J433YLG6EMXDF08NV4ZGMLK0
p1454
sbag1
(g2
g3
Ntp1455
Rp1456
(dp1457
g7
g8
sg9
V3D3B8GE892SRQVATL8HIZVQ8TXC9PV
p1458
sbag1
(g2
g3
Ntp1459
Rp1460
(dp1461
g7
g8
sg9
V3VAOOVPI3ZTW0CW4IDR1NN8JOGRLL3
p1462
sbag1
(g2
g3
Ntp1463
Rp1464
(dp1465
g7
g8
sg9
V307FVKVSYRG1NJ0H8RRAI1O77BS74Q
p1466
sbag1
(g2
g3
Ntp1467
Rp1468
(dp1469
g7
g8
sg9
V3BKZLF990Z0RR8JGTXONYH9971IYQX
p1470
sbag1
(g2
g3
Ntp1471
Rp1472
(dp1473
g7
g8
sg9
V3B9XR6P1WEWESDMSOFQUT5ZM8X8BJ4
p1474
sbag1
(g2
g3
Ntp1475
Rp1476
(dp1477
g7
g8
sg9
V36MUZ9VAE63ZWUYKOA69RFAU6AOEDT
p1478
sbag1
(g2
g3
Ntp1479
Rp1480
(dp1481
g7
g8
sg9
V3FHTJGYT8N1655X1ZENSRCCVX96GPQ
p1482
sbag1
(g2
g3
Ntp1483
Rp1484
(dp1485
g7
g8
sg9
V3SZYX62S5G1JJ24HMWAKNTUL77N75V
p1486
sbag1
(g2
g3
Ntp1487
Rp1488
(dp1489
g7
g8
sg9
V3PEG1BH7AES93XSA60Q6UKZZNM8BK3
p1490
sbag1
(g2
g3
Ntp1491
Rp1492
(dp1493
g7
g8
sg9
V3EKTG13IZU4G6UEPIPSGN0N8OLHLM5
p1494
sbag1
(g2
g3
Ntp1495
Rp1496
(dp1497
g7
g8
sg9
V3OPLMF3EU5OMOCZPUQ7G0FC8TBRLN5
p1498
sbag1
(g2
g3
Ntp1499
Rp1500
(dp1501
g7
g8
sg9
V35F6NGNVM8KL44F7NSSIQ90ZN98T75
p1502
sbag1
(g2
g3
Ntp1503
Rp1504
(dp1505
g7
g8
sg9
V3JHB4BPSFKACQ7B8LLW7Z0GIYTY9QM
p1506
sbag1
(g2
g3
Ntp1507
Rp1508
(dp1509
g7
g8
sg9
V3JMNNNO3B156AKMVCLGYH2QQGN4W2I
p1510
sbag1
(g2
g3
Ntp1511
Rp1512
(dp1513
g7
g8
sg9
V3THR0FZ95PU46XZ1V57TF4CDJLWLOK
p1514
sbag1
(g2
g3
Ntp1515
Rp1516
(dp1517
g7
g8
sg9
V3KI0JD2ZU1JF264VRFKPFZ8L32Y76B
p1518
sbag1
(g2
g3
Ntp1519
Rp1520
(dp1521
g7
g8
sg9
V31ODACBENUGUVM77URWYGVL8QGMQSB
p1522
sbag1
(g2
g3
Ntp1523
Rp1524
(dp1525
g7
g8
sg9
V3LVTFB9DE5JR5HYGZR2HRH2525SGQH
p1526
sbag1
(g2
g3
Ntp1527
Rp1528
(dp1529
g7
g8
sg9
V307FVKVSYRG1NJ0H8RRAI1O77BS47N
p1530
sbag1
(g2
g3
Ntp1531
Rp1532
(dp1533
g7
g8
sg9
V32TMVRKDGNZ5NX50IWJGW1K2IVY48A
p1534
sbag1
(g2
g3
Ntp1535
Rp1536
(dp1537
g7
g8
sg9
V38Z7YZ2SB335184BPF2KCTFLHIKIQB
p1538
sbag1
(g2
g3
Ntp1539
Rp1540
(dp1541
g7
g8
sg9
V3PKVGQTFIHLR39YG6CDN37JE3NKYRY
p1542
sbag1
(g2
g3
Ntp1543
Rp1544
(dp1545
g7
g8
sg9
V3WGCNLZJKF90CT48CMBUKVR0H2L1D0
p1546
sbag1
(g2
g3
Ntp1547
Rp1548
(dp1549
g7
g8
sg9
V33BFF6QPI1CVV2IEGLU30CVIM14W3T
p1550
sbag1
(g2
g3
Ntp1551
Rp1552
(dp1553
g7
g8
sg9
V3S37Y8CWI81GDY1IGZZMAHNO010W4E
p1554
sbag1
(g2
g3
Ntp1555
Rp1556
(dp1557
g7
g8
sg9
V371DNNCG443P4IKQXXKO49WUYTET8S
p1558
sbag1
(g2
g3
Ntp1559
Rp1560
(dp1561
g7
g8
sg9
V3NBFJK3IOHJOK5L0KEAD2C75N4AOGH
p1562
sbag1
(g2
g3
Ntp1563
Rp1564
(dp1565
g7
g8
sg9
V36FFXPMST9P2K1GB4KSVNCJ624NOHG
p1566
sbag1
(g2
g3
Ntp1567
Rp1568
(dp1569
g7
g8
sg9
V3ZVPAMTJWN4RHIDGC6RHW7CAYRUGRI
p1570
sbag1
(g2
g3
Ntp1571
Rp1572
(dp1573
g7
g8
sg9
V3T8DUCXY0N7PIN302PQ245R5IZWT9H
p1574
sbag1
(g2
g3
Ntp1575
Rp1576
(dp1577
g7
g8
sg9
V3HY86PZXPYJ54ZI88HMEQD9LHEM1ET
p1578
sbag1
(g2
g3
Ntp1579
Rp1580
(dp1581
g7
g8
sg9
V3XJOUITW8USVAMKMJR1OQ0HUSZ0QT0
p1582
sbag1
(g2
g3
Ntp1583
Rp1584
(dp1585
g7
g8
sg9
V3R4QIDVOJPD4O0CKK5HTXXSF6MPEEM
p1586
sbag1
(g2
g3
Ntp1587
Rp1588
(dp1589
g7
g8
sg9
V308KJXFUJR73N6D5UV42002POHETAW
p1590
sbag1
(g2
g3
Ntp1591
Rp1592
(dp1593
g7
g8
sg9
V3AFT28WXLF32GWRVA2AGNOKL2H2OI9
p1594
sbag1
(g2
g3
Ntp1595
Rp1596
(dp1597
g7
g8
sg9
V3PGQRAZX02L34OYTL1DSTHOAPP3YSM
p1598
sbag1
(g2
g3
Ntp1599
Rp1600
(dp1601
g7
g8
sg9
V3UXQ63NLAANKN3ASR0279KCECMDBL6
p1602
sbag1
(g2
g3
Ntp1603
Rp1604
(dp1605
g7
g8
sg9
V3O0M2G5VC63512OANOPUWXFD21G49Z
p1606
sbag1
(g2
g3
Ntp1607
Rp1608
(dp1609
g7
g8
sg9
V3ZQX1VYFTD69RQFI1GYPAZQ7ZLX8OL
p1610
sbag1
(g2
g3
Ntp1611
Rp1612
(dp1613
g7
g8
sg9
V3ZURAPD288OXADI43S6K8VULTF11FB
p1614
sbag1
(g2
g3
Ntp1615
Rp1616
(dp1617
g7
g8
sg9
V3VDVA3ILIDG3ODEZECC2QGUXUU11GA
p1618
sbag1
(g2
g3
Ntp1619
Rp1620
(dp1621
g7
g8
sg9
V3D4BBDG7ZHXMH4C9ZUU2OIOFUMNC33
p1622
sbag1
(g2
g3
Ntp1623
Rp1624
(dp1625
g7
g8
sg9
V3XH7ZM9YX2VC28Q8Y0L74QQNUF09RN
p1626
sbag1
(g2
g3
Ntp1627
Rp1628
(dp1629
g7
g8
sg9
V30F94FBDNRL86GIX094YVBMV6ZZTBR
p1630
sbag1
(g2
g3
Ntp1631
Rp1632
(dp1633
g7
g8
sg9
V389A2A304OJQ0CDCG7CJMKQ8R920CT
p1634
sbag1
(g2
g3
Ntp1635
Rp1636
(dp1637
g7
g8
sg9
V33KMQD9OFJFY66I0APPHLD8HYDI77A
p1638
sbag1
(g2
g3
Ntp1639
Rp1640
(dp1641
g7
g8
sg9
V3XUSYT70IT2054JQG37U6Q8QC9E0DT
p1642
sbag1
(g2
g3
Ntp1643
Rp1644
(dp1645
g7
g8
sg9
V3MZ3TAMYTLO5D9JB2URKHJPQD4MIRC
p1646
sbag1
(g2
g3
Ntp1647
Rp1648
(dp1649
g7
g8
sg9
V3LB1BGHFL2X4JOB8A1II3MKWR8HYTB
p1650
sbag1
(g2
g3
Ntp1651
Rp1652
(dp1653
g7
g8
sg9
V3BAWBGQGYL00HWJWSNSXRROKKUNV7M
p1654
sbag1
(g2
g3
Ntp1655
Rp1656
(dp1657
g7
g8
sg9
V3KVQ0UJWPXMY9H5IU4IWF9T20XVW5J
p1658
sbag1
(g2
g3
Ntp1659
Rp1660
(dp1661
g7
g8
sg9
V3RWB1RTQDJORCQRJGGB4ZZVX9QT8P2
p1662
sbag1
(g2
g3
Ntp1663
Rp1664
(dp1665
g7
g8
sg9
V3ATYLI1PRT3YB7B1SKVGZPZLFWROJL
p1666
sbag1
(g2
g3
Ntp1667
Rp1668
(dp1669
g7
g8
sg9
V32W3UF2EZOM7Z0VDZ8ZLYNGL8MJC4O
p1670
sbag1
(g2
g3
Ntp1671
Rp1672
(dp1673
g7
g8
sg9
V3DW3BNF1GHJ4HAOF2SK35RKFVETV89
p1674
sbag1
(g2
g3
Ntp1675
Rp1676
(dp1677
g7
g8
sg9
V3V0TR1NRVA3J6LYFFU3USSQX8JY4AE
p1678
sbag1
(g2
g3
Ntp1679
Rp1680
(dp1681
g7
g8
sg9
V3XABXM4AJ16CC2SYGTQTZ4L7EMF8QT
p1682
sbag1
(g2
g3
Ntp1683
Rp1684
(dp1685
g7
g8
sg9
V3SU800BH86TAAZZBJWRYVW3WBD7QUR
p1686
sbag1
(g2
g3
Ntp1687
Rp1688
(dp1689
g7
g8
sg9
V3UOMW19E6D7PVJZDDDIV3FMZ8IEC5T
p1690
sbag1
(g2
g3
Ntp1691
Rp1692
(dp1693
g7
g8
sg9
V3H781YYV6TJ6DJUHA06OWJSG9XDETF
p1694
sbag1
(g2
g3
Ntp1695
Rp1696
(dp1697
g7
g8
sg9
V3V7ICJJAZAHOPV37L83QN3A3Q1J4B9
p1698
sbag1
(g2
g3
Ntp1699
Rp1700
(dp1701
g7
g8
sg9
V356TQKY9XFY26KNJKUHNZD4C9XO78X
p1702
sbag1
(g2
g3
Ntp1703
Rp1704
(dp1705
g7
g8
sg9
V3MVY4USGB6OHEOJOHJRP7TUMZ65IS0
p1706
sbag1
(g2
g3
Ntp1707
Rp1708
(dp1709
g7
g8
sg9
V3M7OI89LVYPLENZRIWS0VL0Z4DPC69
p1710
sbag1
(g2
g3
Ntp1711
Rp1712
(dp1713
g7
g8
sg9
V359AP8GAGGL4INDW16XS1Z0VZO9C78
p1714
sbag1
(g2
g3
Ntp1715
Rp1716
(dp1717
g7
g8
sg9
V3909MD9T2ZIWUECGFG1ZFFDFIN4EF4
p1718
sbag1
(g2
g3
Ntp1719
Rp1720
(dp1721
g7
g8
sg9
V3ICOHX7ENCC5XAXQCYIEC8QBCLF0EM
p1722
sbag1
(g2
g3
Ntp1723
Rp1724
(dp1725
g7
g8
sg9
V3EHVO81VN5MHO99AYIUKBG6Y9UE1H9
p1726
sbag1
(g2
g3
Ntp1727
Rp1728
(dp1729
g7
g8
sg9
V3XD2A6FGFNVO3NQLDPLCU0VJGHJ9SB
p1730
sbag1
(g2
g3
Ntp1731
Rp1732
(dp1733
g7
g8
sg9
V3CESM1J3EI4USL5WZNS17F72WS6W6Z
p1734
sbag1
(g2
g3
Ntp1735
Rp1736
(dp1737
g7
g8
sg9
V32W3UF2EZOM7Z0VDZ8ZLYNGL8MJ4CG
p1738
sbag1
(g2
g3
Ntp1739
Rp1740
(dp1741
g7
g8
sg9
V3GMLHYZ0LEYJJ1QXA68S8I6YAMOYU2
p1742
sbag1
(g2
g3
Ntp1743
Rp1744
(dp1745
g7
g8
sg9
V37VHPF5VYC48I1IFBBPYFZWQA8FC8V
p1746
sbag1
(g2
g3
Ntp1747
Rp1748
(dp1749
g7
g8
sg9
V3D7VY91L65Y4TLSDRC3M9XR3CR3BM8
p1750
sbag1
(g2
g3
Ntp1751
Rp1752
(dp1753
g7
g8
sg9
V3ZRKL6Z1E843IXDTRVRMMHH6KTDGS6
p1754
sbag1
(g2
g3
Ntp1755
Rp1756
(dp1757
g7
g8
sg9
V3RHLQY6EDT5H4S1RZ4UWITY3TMV4DG
p1758
sbag1
(g2
g3
Ntp1759
Rp1760
(dp1761
g7
g8
sg9
V3RDTX9JRTY22KP6TPMN1Z9ZNT3679M
p1762
sbag1
(g2
g3
Ntp1763
Rp1764
(dp1765
g7
g8
sg9
V3087LXLJ6MHX3OXM792KUQBBOMU0F4
p1766
sbag1
(g2
g3
Ntp1767
Rp1768
(dp1769
g7
g8
sg9
V3VGET1QSZ00DWLJ1IXXTDT7YR3QW7Y
p1770
sbag1
(g2
g3
Ntp1771
Rp1772
(dp1773
g7
g8
sg9
V3LN50BUKPVCMRXB2A5K844H3TQSLP1
p1774
sbag1
(g2
g3
Ntp1775
Rp1776
(dp1777
g7
g8
sg9
V3YD0MU1NC22GP8GYHS11V4A7ZLO7A1
p1778
sbag1
(g2
g3
Ntp1779
Rp1780
(dp1781
g7
g8
sg9
V3YKP7CX6G2GL8ILQN61XQFUDH397BW
p1782
sbag1
(g2
g3
Ntp1783
Rp1784
(dp1785
g7
g8
sg9
V3T8DUCXY0N7PIN302PQ245R5I0X9T0
p1786
sbag1
(g2
g3
Ntp1787
Rp1788
(dp1789
g7
g8
sg9
V3VMV5CHJZ8G4XXQ8GVWCWMDSMCRGTV
p1790
sbag1
(g2
g3
Ntp1791
Rp1792
(dp1793
g7
g8
sg9
V3BA7SXOG1JRCO37YT8FT4UVCA8H8RU
p1794
sbag1
(g2
g3
Ntp1795
Rp1796
(dp1797
g7
g8
sg9
V3OYHVNTV5TZTMRHJA5VS04ZYULROKK
p1798
sbag1
(g2
g3
Ntp1799
Rp1800
(dp1801
g7
g8
sg9
V3THR0FZ95PU46XZ1V57TF4CDJLWOLN
p1802
sbag1
(g2
g3
Ntp1803
Rp1804
(dp1805
g7
g8
sg9
V3IH9TRB0FB0HK4KU40C5BS7D97T1I2
p1806
sbag1
(g2
g3
Ntp1807
Rp1808
(dp1809
g7
g8
sg9
V3CZH926SICFMWYFRVZ5GOBGOTYW4E9
p1810
sbag1
(g2
g3
Ntp1811
Rp1812
(dp1813
g7
g8
sg9
V374UMBUHN5QRGLA3E90T6VSDOKZTCY
p1814
sbag1
(g2
g3
Ntp1815
Rp1816
(dp1817
g7
g8
sg9
V33EEIIWHK78ANEOBOM13RI5FPKGQVG
p1818
sbag1
(g2
g3
Ntp1819
Rp1820
(dp1821
g7
g8
sg9
V35JDMRECC4A28E8BQ07HX0DRJ24EG3
p1822
sbag1
(g2
g3
Ntp1823
Rp1824
(dp1825
g7
g8
sg9
V3QXFBUZ4ZKHJXA5XG0MM1IZU5QYGUM
p1826
sbag1
(g2
g3
Ntp1827
Rp1828
(dp1829
g7
g8
sg9
V3WRBLBQ2GR93HOTHIT82CBBNP1U0G3
p1830
sbag1
(g2
g3
Ntp1831
Rp1832
(dp1833
g7
g8
sg9
V3IVEC1GSLP0DFF40MIX5NTMDMMI1JE
p1834
sbag1
(g2
g3
Ntp1835
Rp1836
(dp1837
g7
g8
sg9
V3R15W654VDU7R9CHAIZX497DYMELQS
p1838
sbag1
(g2
g3
Ntp1839
Rp1840
(dp1841
g7
g8
sg9
V31HLTCK4BLWJAPUXLQWRX41DJX7GVB
p1842
sbag1
(g2
g3
Ntp1843
Rp1844
(dp1845
g7
g8
sg9
V3UV0D2KX1MKE2CFNQAPM6T1O5ZB4FR
p1846
sbag1
(g2
g3
Ntp1847
Rp1848
(dp1849
g7
g8
sg9
V359AP8GAGGL4INDW16XS1Z0VZO97C3
p1850
sbag1
(g2
g3
Ntp1851
Rp1852
(dp1853
g7
g8
sg9
V3FVBZG9CLJFHHKOS2ZQKXBNO4170H2
p1854
sbag1
(g2
g3
Ntp1855
Rp1856
(dp1857
g7
g8
sg9
V3R6RZGK0XFDJWGFXFWIX448HOTXYVR
p1858
sbag1
(g2
g3
Ntp1859
Rp1860
(dp1861
g7
g8
sg9
V3OND0WXMHWGG8A3MA6PZI0PSY2HEH2
p1862
sbag1
(g2
g3
Ntp1863
Rp1864
(dp1865
g7
g8
sg9
V3IQ9O0AYW60ITOW36JWFHYQ81PJITP
p1866
sbag1
(g2
g3
Ntp1867
Rp1868
(dp1869
g7
g8
sg9
V3JVP4ZJHDPTHDFZC8H85XNO34EM0IV
p1870
sbag1
(g2
g3
Ntp1871
Rp1872
(dp1873
g7
g8
sg9
V3NCN4N1H1GIAB3DD3DIMMCG3HHDBN8
p1874
sbag1
(g2
g3
Ntp1875
Rp1876
(dp1877
g7
g8
sg9
V3SNR5F7R92UG45E6GO7KICQ7YFWEIV
p1878
sbag1
(g2
g3
Ntp1879
Rp1880
(dp1881
g7
g8
sg9
V3X2LT8FDHWJHWZOKS2PZRT3T2NWW8L
p1882
sbag1
(g2
g3
Ntp1883
Rp1884
(dp1885
g7
g8
sg9
V3B623HUYJ4ROPI7B8XFYU408WA08SI
p1886
sbag1
(g2
g3
Ntp1887
Rp1888
(dp1889
g7
g8
sg9
V3CRWSLD91K5OCFHMVH88FHR2JQMOMP
p1890
sbag1
(g2
g3
Ntp1891
Rp1892
(dp1893
g7
g8
sg9
V3511RHPADVF73ARHNXOX9ZHIU8GLRT
p1894
sbag1
(g2
g3
Ntp1895
Rp1896
(dp1897
g7
g8
sg9
V3QE4DGPGBRCKGCBI1UV4OE106EB4GQ
p1898
sbag1
(g2
g3
Ntp1899
Rp1900
(dp1901
g7
g8
sg9
V3WPCIUYH1A91LDGHE5V4Q1AV9KBTDY
p1902
sbag1
(g2
g3
Ntp1903
Rp1904
(dp1905
g7
g8
sg9
V3J9UN9O9J3TD8QJIQZT59O33HTB0J7
p1906
sbag1
(g2
g3
Ntp1907
Rp1908
(dp1909
g7
g8
sg9
V3T2HW4QDUV88W61PG3VCFVR1UEXC9K
p1910
sbag1
(g2
g3
Ntp1911
Rp1912
(dp1913
g7
g8
sg9
V3CIS7GGG65KLDW96A5WY1FEISBKEU6
p1914
sbag1
(g2
g3
Ntp1915
Rp1916
(dp1917
g7
g8
sg9
V3UUSLRKAUL4ENFJA12S3L5IDKOL7D3
p1918
sbag1
(g2
g3
Ntp1919
Rp1920
(dp1921
g7
g8
sg9
V3MWOYZD5WVPUUX2M7IN8SWG2OGWONP
p1922
sbag1
(g2
g3
Ntp1923
Rp1924
(dp1925
g7
g8
sg9
V3S4TINXCC0OSTODP4SIZ11G87RIBON
p1926
sbag1
(g2
g3
Ntp1927
Rp1928
(dp1929
g7
g8
sg9
V3OJX0UFJ0Z84I0IP2UGC91D71E49UR
p1930
sbag1
(g2
g3
Ntp1931
Rp1932
(dp1933
g7
g8
sg9
V39I4RL8QGJIYG86TL0DM9ED1LEO4HP
p1934
sbag1
(g2
g3
Ntp1935
Rp1936
(dp1937
g7
g8
sg9
V3D1TUISJWI1XT1BS6OMPMUCAK3QIUG
p1938
sbag1
(g2
g3
Ntp1939
Rp1940
(dp1941
g7
g8
sg9
V3ROUCZ907FVCCI2Y8XNL7LG7EQ1OO4
p1942
sbag1
(g2
g3
Ntp1943
Rp1944
(dp1945
g7
g8
sg9
V3W0XM68YZPW8QZAI43XHO8MQ1BI1KD
p1946
sbag1
(g2
g3
Ntp1947
Rp1948
(dp1949
g7
g8
sg9
V35XW21VSVGFJ4PRU2MO2Z9MEGAZLSH
p1950
sbag1
(g2
g3
Ntp1951
Rp1952
(dp1953
g7
g8
sg9
V3H781YYV6TJ6DJUHA06OWJSG9WCTER
p1954
sbag1
(g2
g3
Ntp1955
Rp1956
(dp1957
g7
g8
sg9
V3BC9H1KCYUDWB5F256NTQ6RVV2ZYW1
p1958
sbag1
(g2
g3
Ntp1959
Rp1960
(dp1961
g7
g8
sg9
V3NKW03WTLM8N23OGEW6ZDKOTWTIQWQ
p1962
sbag1
(g2
g3
Ntp1963
Rp1964
(dp1965
g7
g8
sg9
V3S1WOPCJFGUCZGYCY6SKUD57BULEJ7
p1966
sbag1
(g2
g3
Ntp1967
Rp1968
(dp1969
g7
g8
sg9
V3Z33IC0JC0N4VF7P7KQH5NFQFLD9VG
p1970
sbag1
(g2
g3
Ntp1971
Rp1972
(dp1973
g7
g8
sg9
V371DNNCG443P4IKQXXKO49WUYTE8T7
p1974
sbag1
(g2
g3
Ntp1975
Rp1976
(dp1977
g7
g8
sg9
V3XEDXEGFX3P8JAP08KTHA33GWIB0K6
p1978
sbag1
(g2
g3
Ntp1979
Rp1980
(dp1981
g7
g8
sg9
V302OLP89DZ8M1PBU899CBQ2L0WFCAZ
p1982
sbag1
(g2
g3
Ntp1983
Rp1984
(dp1985
g7
g8
sg9
V3KA7IJSNW66AEOPQJSVEQ1LYHWEBP4
p1986
sbag1
(g2
g3
Ntp1987
Rp1988
(dp1989
g7
g8
sg9
V32CXT5U14G444VZFX2AY95IWH7L8UY
p1990
sbag1
(g2
g3
Ntp1991
Rp1992
(dp1993
g7
g8
sg9
V3HUR21WDDUQB05KSFBJFSP52445YXU
p1994
sbag1
(g2
g3
Ntp1995
Rp1996
(dp1997
g7
g8
sg9
V3QO7EE372OOVE0Q5J5A3Q6B8MS0BQV
p1998
sbag1
(g2
g3
Ntp1999
Rp2000
(dp2001
g7
g8
sg9
V3J9L0X0VDFNHA47UXUVDRPY4MTEW9A
p2002
sbag1
(g2
g3
Ntp2003
Rp2004
(dp2005
g7
g8
sg9
V3DIIW4IV8PWYC3HDRIV79QEGLR34II
p2006
sbag1
(g2
g3
Ntp2007
Rp2008
(dp2009
g7
g8
sg9
V3Z3R5YC0P3OYJXUD5BQUE1DGLXRTF9
p2010
sbag1
(g2
g3
Ntp2011
Rp2012
(dp2013
g7
g8
sg9
V309D674SHZMRKZGMEN9861MRIE0CBU
p2014
sbag1
(g2
g3
Ntp2015
Rp2016
(dp2017
g7
g8
sg9
V3J9L0X0VDFNHA47UXUVDRPY4MUF9WQ
p2018
sbag1
(g2
g3
Ntp2019
Rp2020
(dp2021
g7
g8
sg9
V3PR3LXCWSF0WZ4CK7ZRZT8CBVWL9XJ
p2022
sbag1
(g2
g3
Ntp2023
Rp2024
(dp2025
g7
g8
sg9
V31S7M7DAGGRKJP49RMTS9EI0ITDLT6
p2026
sbag1
(g2
g3
Ntp2027
Rp2028
(dp2029
g7
g8
sg9
V32XN26MTXZKJ3G7ITK5IP3GVLIG0L9
p2030
sbag1
(g2
g3
Ntp2031
Rp2032
(dp2033
g7
g8
sg9
V3T2EL38U0ML2R3T6O12LF3205VOQXJ
p2034
sbag1
(g2
g3
Ntp2035
Rp2036
(dp2037
g7
g8
sg9
V37YYO3NWHDRAU48SSN53HLS90Z0CC1
p2038
sbag1
(g2
g3
Ntp2039
Rp2040
(dp2041
g7
g8
sg9
V3LN3BXKGC0WWPEU2B01NJ6KRQ69GWL
p2042
sbag1
(g2
g3
Ntp2043
Rp2044
(dp2045
g7
g8
sg9
V3OLZC0DJ8JGX6G0SBEWUIGETYAZIV5
p2046
sbag1
(g2
g3
Ntp2047
Rp2048
(dp2049
g7
g8
sg9
V3WJGKMRWVIAKZWE6SJ0E1RARLZCCD1
p2050
sbag1
(g2
g3
Ntp2051
Rp2052
(dp2053
g7
g8
sg9
V3L7SUC0TTUV39YP3TW6XPGVKLN60MB
p2054
sbag1
(g2
g3
Ntp2055
Rp2056
(dp2057
g7
g8
sg9
V3VCK0Q0PO5F9RGA35XLX2VKKQDG0NB
p2058
sbag1
(g2
g3
Ntp2059
Rp2060
(dp2061
g7
g8
sg9
V3JU8CV4BRLDUXIEZNX00WLLXOVXOPL
p2062
sbag1
(g2
g3
Ntp2063
Rp2064
(dp2065
g7
g8
sg9
V366FYU4PTGQ7A04UGRSWVS5KQJLEK6
p2066
sbag1
(g2
g3
Ntp2067
Rp2068
(dp2069
g7
g8
sg9
V3BPP3MA3TCLIU6MC1R4XASIZFJQEL9
p2070
sbag1
(g2
g3
Ntp2071
Rp2072
(dp2073
g7
g8
sg9
V38RHULDV9YGAL50X1O1Q4IX75J1IWF
p2074
sbag1
(g2
g3
Ntp2075
Rp2076
(dp2077
g7
g8
sg9
V31J7RYECZLRJA5S0P39I38Z5QBN1LG
p2078
sbag1
(g2
g3
Ntp2079
Rp2080
(dp2081
g7
g8
sg9
V3UZUVSO3P7W20O4X135CA5XOFOGEMB
p2082
sbag1
(g2
g3
Ntp2083
Rp2084
(dp2085
g7
g8
sg9
V379OL9DBSSFLZ92UCVD1CMJKX2F9YP
p2086
sbag1
(g2
g3
Ntp2087
Rp2088
(dp2089
g7
g8
sg9
V3Q9SPIIRWJNVFNHZP09DNK9OSBWWAP
p2090
sbag1
(g2
g3
Ntp2091
Rp2092
(dp2093
g7
g8
sg9
V344M16OZKIG8I6PXD4KCNKMOKEQENB
p2094
sbag1
(g2
g3
Ntp2095
Rp2096
(dp2097
g7
g8
sg9
V39WSF6KUV2MQ0RP9EJKP29MTAOVEOQ
p2098
sbag1
(g2
g3
Ntp2099
Rp2100
(dp2101
g7
g8
sg9
V3DW3BNF1GHJ4HAOF2SK35RKFVEU8VN
p2102
sbag1
(g2
g3
Ntp2103
Rp2104
(dp2105
g7
g8
sg9
V3X2LT8FDHWJHWZOKS2PZRT3T2NW8WX
p2106
sbag1
(g2
g3
Ntp2107
Rp2108
(dp2109
g7
g8
sg9
V3E9ZFLPWOYTPA55NBTXC61BEEL7IX8
p2110
sbag1
(g2
g3
Ntp2111
Rp2112
(dp2113
g7
g8
sg9
V34O39PNDK69VQ155WKZ3VWLDIE2BRW
p2114
sbag1
(g2
g3
Ntp2115
Rp2116
(dp2117
g7
g8
sg9
V3W3RSPVVGSSZJ2JYRRJ2EA4217KLUX
p2118
sbag1
(g2
g3
Ntp2119
Rp2120
(dp2121
g7
g8
sg9
V3FCO4VKOZ4EJFLXAXX3NRN0YK0M7EW
p2122
sbag1
(g2
g3
Ntp2123
Rp2124
(dp2125
g7
g8
sg9
V3VMV5CHJZ8G4XXQ8GVWCWMDSMCRTG8
p2126
sbag1
(g2
g3
Ntp2127
Rp2128
(dp2129
g7
g8
sg9
V304QEQWKZPLR91AF6CLAHKKPGNL0OQ
p2130
sbag1
(g2
g3
Ntp2131
Rp2132
(dp2133
g7
g8
sg9
V3KTCJ4SCVG23GNALPFAX3LEUQGD1MI
p2134
sbag1
(g2
g3
Ntp2135
Rp2136
(dp2137
g7
g8
sg9
V3EQVJH0T40MIXTLJ01EUHMPT1C4TH7
p2138
sbag1
(g2
g3
Ntp2139
Rp2140
(dp2141
g7
g8
sg9
V3SA4EMRVJV39U1MGLCYP6KPFQSH0P7
p2142
sbag1
(g2
g3
Ntp2143
Rp2144
(dp2145
g7
g8
sg9
V3ZCC2DXSD7500AA2K75HB3CB6AZYY0
p2146
sbag1
(g2
g3
Ntp2147
Rp2148
(dp2149
g7
g8
sg9
V3HXCEECSQMU050K7GT70PALDC43YZR
p2150
sbag1
(g2
g3
Ntp2151
Rp2152
(dp2153
g7
g8
sg9
V341H3G5YF0F385OM8LWRXIRT0ROZ0R
p2154
sbag1
(g2
g3
Ntp2155
Rp2156
(dp2157
g7
g8
sg9
V3UY4PIS8QRM9Y5VL1GPXG03UV6N1NI
p2158
sbag1
(g2
g3
Ntp2159
Rp2160
(dp2161
g7
g8
sg9
V3H1C3QRA01KPR2S6OEBY79SCLBDCEU
p2162
sbag1
(g2
g3
Ntp2163
Rp2164
(dp2165
g7
g8
sg9
V3R5LWXWHR09BEEZSL5X9LPYYZ8FGXE
p2166
sbag1
(g2
g3
Ntp2167
Rp2168
(dp2169
g7
g8
sg9
V3IQ9O0AYW60ITOW36JWFHYQ81PJTI0
p2170
sbag1
(g2
g3
Ntp2171
Rp2172
(dp2173
g7
g8
sg9
V3P888QFVX3VFXUFENAFPWQB7TRJOQC
p2174
sbag1
(g2
g3
Ntp2175
Rp2176
(dp2177
g7
g8
sg9
V3ZQA3IO31BSRGQVX2VPAVP3ZLGS1OX
p2178
sbag1
(g2
g3
Ntp2179
Rp2180
(dp2181
g7
g8
sg9
V3PUOXASB574L4ZCZ8HFKQTSM3WJ9ZG
p2182
sbag1
(g2
g3
Ntp2183
Rp2184
(dp2185
g7
g8
sg9
V33K3E8REWWWWLZTA27LLTCH0BP28XQ
p2186
sbag1
(g2
g3
Ntp2187
Rp2188
(dp2189
g7
g8
sg9
V3RWO3EJELHA91Q7YHV2PKP8PVLO1PE
p2190
sbag1
(g2
g3
Ntp2191
Rp2192
(dp2193
g7
g8
sg9
V39N6W9XWRDO0EJP2Q1JB43571E9GYK
p2194
sbag1
(g2
g3
Ntp2195
Rp2196
(dp2197
g7
g8
sg9
V3DWNFENNE3WU7E1J90G7LRTGY6S4JU
p2198
sbag1
(g2
g3
Ntp2199
Rp2200
(dp2201
g7
g8
sg9
V3I4E7AFQ2K0EOZG9O1HFTZ58E48TJC
p2202
sbag1
(g2
g3
Ntp2203
Rp2204
(dp2205
g7
g8
sg9
V3YO4AH2FPDLUUDNVLPDE6PFPVO30QY
p2206
sbag1
(g2
g3
Ntp2207
Rp2208
(dp2209
g7
g8
sg9
V3WRKFXQBOB8EAAVXGPJEPFINGR1IYE
p2210
sbag1
(g2
g3
Ntp2211
Rp2212
(dp2213
g7
g8
sg9
V34KYK9TV2R97RG5IB9Z8L6Q94GLBSK
p2214
sbag1
(g2
g3
Ntp2215
Rp2216
(dp2217
g7
g8
sg9
V3W9XHF7WGKW9ZJMR6MHRUE5LTT8TKB
p2218
sbag1
(g2
g3
Ntp2219
Rp2220
(dp2221
g7
g8
sg9
V33N1S8XHHMM3FU94440RBNA35JUZ1U
p2222
sbag1
(g2
g3
Ntp2223
Rp2224
(dp2225
g7
g8
sg9
V3ECKRY5B1QXEF052CBLX3MRPML5IZ5
p2226
sbag1
(g2
g3
Ntp2227
Rp2228
(dp2229
g7
g8
sg9
V388CL5C1RJOUEGDERSC3VVFC70JHLV
p2230
sbag1
(g2
g3
Ntp2231
Rp2232
(dp2233
g7
g8
sg9
V37NXA7GVST7ZWH8YWHT7AW6LFETLVM
p2234
sbag1
(g2
g3
Ntp2235
Rp2236
(dp2237
g7
g8
sg9
V3RTFSSG7T87CB683MRY3WYPZMNVLWW
p2238
sbag1
(g2
g3
Ntp2239
Rp2240
(dp2241
g7
g8
sg9
V3P7QK0GJ3TMA4FR0N805G6K8XP8Z2B
p2242
sbag1
(g2
g3
Ntp2243
Rp2244
(dp2245
g7
g8
sg9
V30F94FBDNRL86GIX094YVBMV6ZZBT9
p2246
sbag1
(g2
g3
Ntp2247
Rp2248
(dp2249
g7
g8
sg9
V3R868ACW4SD0J9Z7MNLUIAE978DGZB
p2250
sbag1
(g2
g3
Ntp2251
Rp2252
(dp2253
g7
g8
sg9
V3R16PJFTS3SPIY71RLGJM6TTDVS4KT
p2254
sbag1
(g2
g3
Ntp2255
Rp2256
(dp2257
g7
g8
sg9
V3L2OEKSTW9BLL4JK737NCQO9DVW8YW
p2258
sbag1
(g2
g3
Ntp2259
Rp2260
(dp2261
g7
g8
sg9
V39WICJI5ATTZPXNJR8EAZGP0338Z3M
p2262
sbag1
(g2
g3
Ntp2263
Rp2264
(dp2265
g7
g8
sg9
V3N2YPY1GI6ZLQBY6FV63X1G16ITEVV
p2266
sbag1
(g2
g3
Ntp2267
Rp2268
(dp2269
g7
g8
sg9
V3RIHDBQ1NEZEKYVZR4DIV8U1759HMX
p2270
sbag1
(g2
g3
Ntp2271
Rp2272
(dp2273
g7
g8
sg9
V3XBXDSS888KR06DTWWUPYH36VP1LXP
p2274
sbag1
(g2
g3
Ntp2275
Rp2276
(dp2277
g7
g8
sg9
V338431Z1FLGF9VUE0P4P1GLCPDLORD
p2278
sbag1
(g2
g3
Ntp2279
Rp2280
(dp2281
g7
g8
sg9
V3XAOZ9UYRZSU128DH8HEKUYZ0HA1Q5
p2282
sbag1
(g2
g3
Ntp2283
Rp2284
(dp2285
g7
g8
sg9
V3BKZLF990Z0RR8JGTXONYH9971IQYP
p2286
sbag1
(g2
g3
Ntp2287
Rp2288
(dp2289
g7
g8
sg9
V31N9JPQXIPJK2GGZ35SI8NJ1CVJHNX
p2290
sbag1
(g2
g3
Ntp2291
Rp2292
(dp2293
g7
g8
sg9
V33NOQL7T9O0LQUTP3P96QXXBJP08ZN
p2294
sbag1
(g2
g3
Ntp2295
Rp2296
(dp2297
g7
g8
sg9
V3UDTAB6HH60O2E694N2SKUP0LOZ90L
p2298
sbag1
(g2
g3
Ntp2299
Rp2300
(dp2301
g7
g8
sg9
V3YOAVL4CA0IK7T6NRMJT9LH6H34Z47
p2302
sbag1
(g2
g3
Ntp2303
Rp2304
(dp2305
g7
g8
sg9
V378G7J1SJLZY50YB55BZJ3ZFDRVEW5
p2306
sbag1
(g2
g3
Ntp2307
Rp2308
(dp2309
g7
g8
sg9
V3FVBZG9CLJFHHKOS2ZQKXBNO417H0J
p2310
sbag1
(g2
g3
Ntp2311
Rp2312
(dp2313
g7
g8
sg9
V31S7M7DAGGRKJP49RMTS9EI0ITDTLE
p2314
sbag1
(g2
g3
Ntp2315
Rp2316
(dp2317
g7
g8
sg9
V3K2CEDRACB24P7MURYU79RXPIY3TMG
p2318
sbag1
(g2
g3
Ntp2319
Rp2320
(dp2321
g7
g8
sg9
V3EHVO81VN5MHO99AYIUKBG6Y9TDH1M
p2322
sbag1
(g2
g3
Ntp2323
Rp2324
(dp2325
g7
g8
sg9
V3WKGUBL7SZN024PJCLSK16682VX4LW
p2326
sbag1
(g2
g3
Ntp2327
Rp2328
(dp2329
g7
g8
sg9
V3VQTAXTYN3MN6TXM0EU8078XPD6BU0
p2330
sbag1
(g2
g3
Ntp2331
Rp2332
(dp2333
g7
g8
sg9
V36FFXPMST9P2K1GB4KSVNCJ625OHOC
p2334
sbag1
(g2
g3
Ntp2335
Rp2336
(dp2337
g7
g8
sg9
V301KG0KX9CMODUR6HMUYGZG31ZRH23
p2338
sbag1
(g2
g3
Ntp2339
Rp2340
(dp2341
g7
g8
sg9
V3KQC8JMJGCTDYCNPLM83Z9LV7DRH3E
p2342
sbag1
(g2
g3
Ntp2343
Rp2344
(dp2345
g7
g8
sg9
V3CO05SML7V6U6E2VY42EBFPURA50RZ
p2346
sbag1
(g2
g3
Ntp2347
Rp2348
(dp2349
g7
g8
sg9
V334ZEL5JX6GRAAURFE4URQQ8BF4OS1
p2350
sbag1
(g2
g3
Ntp2351
Rp2352
(dp2353
g7
g8
sg9
V3IZVJEBJ6ALYMGA1AAC86J1KDUAZ6S
p2354
sbag1
(g2
g3
Ntp2355
Rp2356
(dp2357
g7
g8
sg9
V3QGHA0EA0J10YXMRVE99IVTUATHWBK
p2358
sbag1
(g2
g3
Ntp2359
Rp2360
(dp2361
g7
g8
sg9
V3J9UN9O9J3TD8QJIQZT59O33HTBJ0Q
p2362
sbag1
(g2
g3
Ntp2363
Rp2364
(dp2365
g7
g8
sg9
V3VGZ74AYTGHNBGOXU91M7CDOYRSCGB
p2366
sbag1
(g2
g3
Ntp2367
Rp2368
(dp2369
g7
g8
sg9
V36AZSFEYZ41NJ8MM544DWTAG3KFBVP
p2370
sbag1
(g2
g3
Ntp2371
Rp2372
(dp2373
g7
g8
sg9
V31D0ZWOD0A027XGEWTGSGP0KR7IA04
p2374
sbag1
(g2
g3
Ntp2375
Rp2376
(dp2377
g7
g8
sg9
V3FTID4TN8LZG0B331SGRHVAFXVVLYV
p2378
sbag1
(g2
g3
Ntp2379
Rp2380
(dp2381
g7
g8
sg9
V3TZDZ3Y0JS7O93RR066SYZ8AQG591O
p2382
sbag1
(g2
g3
Ntp2383
Rp2384
(dp2385
g7
g8
sg9
V3BAKUKE49HDUD3NDUN6EPK84W3C1R6
p2386
sbag1
(g2
g3
Ntp2387
Rp2388
(dp2389
g7
g8
sg9
V3QGHA0EA0J10YXMRVE99IVTUATHBWZ
p2390
sbag1
(g2
g3
Ntp2391
Rp2392
(dp2393
g7
g8
sg9
V3X52SWXE0X6J82EX9E54TFZCSEHWCR
p2394
sbag1
(g2
g3
Ntp2395
Rp2396
(dp2397
g7
g8
sg9
V3FULMHZ7OUYK8M74CXTZ1JLX20N4MY
p2398
sbag1
(g2
g3
Ntp2399
Rp2400
(dp2401
g7
g8
sg9
V3IVEC1GSLP0DFF40MIX5NTMDMLHJ1T
p2402
sbag1
(g2
g3
Ntp2403
Rp2404
(dp2405
g7
g8
sg9
V311HQEI8RSHHQGO6TKH0CX1G85UZ7R
p2406
sbag1
(g2
g3
Ntp2407
Rp2408
(dp2409
g7
g8
sg9
V3T5ZXGO9DEPRWYTLPJQ6COIBDVMQZG
p2410
sbag1
(g2
g3
Ntp2411
Rp2412
(dp2413
g7
g8
sg9
V3LOJFQ4BOXG2IUQUKWHCPANZQ8LKDM
p2414
sbag1
(g2
g3
Ntp2415
Rp2416
(dp2417
g7
g8
sg9
V3DQYSJDTYLCDU031FA7LLMDMMT1EXY
p2418
sbag1
(g2
g3
Ntp2419
Rp2420
(dp2421
g7
g8
sg9
V3X878VYTIEJBLZX6S8NT95LYW117FE
p2422
sbag1
(g2
g3
Ntp2423
Rp2424
(dp2425
g7
g8
sg9
V366FYU4PTGQ7A04UGRSWVS5KQKMKEF
p2426
sbag1
(g2
g3
Ntp2427
Rp2428
(dp2429
g7
g8
sg9
V3MQKOF1EE2PTDUKB9A0FDLHUDETWDR
p2430
sbag1
(g2
g3
Ntp2431
Rp2432
(dp2433
g7
g8
sg9
V39I4RL8QGJIYG86TL0DM9ED1LDNH4Z
p2434
sbag1
(g2
g3
Ntp2435
Rp2436
(dp2437
g7
g8
sg9
V3TRB893CSJBHZZT13STBRQLAXG17GD
p2438
sbag1
(g2
g3
Ntp2439
Rp2440
(dp2441
g7
g8
sg9
V3CKVGCS3PG667T28DT2J1PUQDCO0SN
p2442
sbag1
(g2
g3
Ntp2443
Rp2444
(dp2445
g7
g8
sg9
V3HRWUH63QU38MNW423R9JQGB7MSN5M
p2446
sbag1
(g2
g3
Ntp2447
Rp2448
(dp2449
g7
g8
sg9
V33NOQL7T9O0LQUTP3P96QXXBJP0Z8E
p2450
sbag1
(g2
g3
Ntp2451
Rp2452
(dp2453
g7
g8
sg9
V3YLTXLH3DF7K51SCJK5ACCOWCAKHPT
p2454
sbag1
(g2
g3
Ntp2455
Rp2456
(dp2457
g7
g8
sg9
V3B6F54KMR2D6EINQ9C6JFUD0I5V1SU
p2458
sbag1
(g2
g3
Ntp2459
Rp2460
(dp2461
g7
g8
sg9
V3O2Y2UIUCQVZGE4QB2C2DAQK2L1KFX
p2462
sbag1
(g2
g3
Ntp2463
Rp2464
(dp2465
g7
g8
sg9
V3V8JSVE8YYR2U5TBK6TN40KVOZVEY4
p2466
sbag1
(g2
g3
Ntp2467
Rp2468
(dp2469
g7
g8
sg9
V34ZTTGSNJXP55DTRJXKZCHE6H66HQK
p2470
sbag1
(g2
g3
Ntp2471
Rp2472
(dp2473
g7
g8
sg9
V3FJ2RVH25Z7VYO9NJA663IIFIMJ925
p2474
sbag1
(g2
g3
Ntp2475
Rp2476
(dp2477
g7
g8
sg9
V3EKZL9T8Y8N1BCJ8EFJ4SCPPDR5CHA
p2478
sbag1
(g2
g3
Ntp2479
Rp2480
(dp2481
g7
g8
sg9
V3DTJ4WT8BDG2ZV3GGSV6I7TXUTZEZV
p2482
sbag1
(g2
g3
Ntp2483
Rp2484
(dp2485
g7
g8
sg9
V30ZKOOGW2W72EM1WSCKSUUJUWZOA17
p2486
sbag1
(g2
g3
Ntp2487
Rp2488
(dp2489
g7
g8
sg9
V3CVBMEMMXBHVZVOCNYBTCQXBCGE7HC
p2490
sbag1
(g2
g3
Ntp2491
Rp2492
(dp2493
g7
g8
sg9
V39AYGO6AFFL45RWI7M1EBWUB3H3N62
p2494
sbag1
(g2
g3
Ntp2495
Rp2496
(dp2497
g7
g8
sg9
V3PUOXASB574L4ZCZ8HFKQTSM3VIZ93
p2498
sbag1
(g2
g3
Ntp2499
Rp2500
(dp2501
g7
g8
sg9
V3KL228NDMVN5UE0LMMIKVVQW301KGW
p2502
sbag1
(g2
g3
Ntp2503
Rp2504
(dp2505
g7
g8
sg9
V3XEIP58NL0OG51D8XEIAV2JH3PZLZM
p2506
sbag1
(g2
g3
Ntp2507
Rp2508
(dp2509
g7
g8
sg9
V3U74KRR67MMA7P7U3Z97M6MPNODTNG
p2510
sbag1
(g2
g3
Ntp2511
Rp2512
(dp2513
g7
g8
sg9
V3SCKNODZ0XHN9RANQW66HAU7YSNN71
p2514
sbag1
(g2
g3
Ntp2515
Rp2516
(dp2517
g7
g8
sg9
V3ZZAYRN1I6SSPA764E9K1VMUDYIOTQ
p2518
sbag1
(g2
g3
Ntp2519
Rp2520
(dp2521
g7
g8
sg9
V3MJ9GGZYO37937JSBGK6ZDTZO52A2O
p2522
sbag1
(g2
g3
Ntp2523
Rp2524
(dp2525
g7
g8
sg9
V3WUVMVA7OB4Z9IM40NTKMO369D0ZAI
p2526
sbag1
(g2
g3
Ntp2527
Rp2528
(dp2529
g7
g8
sg9
V371QPA24C2P7TI05YCB9PZ9MKO91TJ
p2530
sbag1
(g2
g3
Ntp2531
Rp2532
(dp2533
g7
g8
sg9
V3IKDQS3DQE1177USKX1PSOQ4D4KCI3
p2534
sbag1
(g2
g3
Ntp2535
Rp2536
(dp2537
g7
g8
sg9
V33P2GD6NRNTJUAVW6S02GV2XI0EKHV
p2538
sbag1
(g2
g3
Ntp2539
Rp2540
(dp2541
g7
g8
sg9
V3UAU495MIIT7PNMV4JZU6R8WWCPOUH
p2542
sbag1
(g2
g3
Ntp2543
Rp2544
(dp2545
g7
g8
sg9
V3CO05SML7V6U6E2VY42EBFPURA5R0Q
p2546
sbag1
(g2
g3
Ntp2547
Rp2548
(dp2549
g7
g8
sg9
V378G7J1SJLZY50YB55BZJ3ZFDQUWEK
p2550
sbag1
(g2
g3
Ntp2551
Rp2552
(dp2553
g7
g8
sg9
V3P4ZBJFX2V4QBEY70GV51LKFPR9WF2
p2554
sbag1
(g2
g3
Ntp2555
Rp2556
(dp2557
g7
g8
sg9
V31ANT7FQN83GCRATZ5WWE6JFL9IH54
p2558
sbag1
(g2
g3
Ntp2559
Rp2560
(dp2561
g7
g8
sg9
V35U0MRQMUJ8722BV999Z2DAFAJYOV6
p2562
sbag1
(g2
g3
Ntp2563
Rp2564
(dp2565
g7
g8
sg9
V3L7SUC0TTUV39YP3TW6XPGVKLN6M0X
p2566
sbag1
(g2
g3
Ntp2567
Rp2568
(dp2569
g7
g8
sg9
V3KTCJ4SCVG23GNALPFAX3LEUQFCM10
p2570
sbag1
(g2
g3
Ntp2571
Rp2572
(dp2573
g7
g8
sg9
V3P0I4CQYVY8KHRB0ZJEVOFTTHS0OWG
p2574
sbag1
(g2
g3
Ntp2575
Rp2576
(dp2577
g7
g8
sg9
V3087LXLJ6MHX3OXM792KUQBBONVF0M
p2578
sbag1
(g2
g3
Ntp2579
Rp2580
(dp2581
g7
g8
sg9
V3IZPORCT1FA5HE8RWC9ZH7OBDS8HRL
p2582
sbag1
(g2
g3
Ntp2583
Rp2584
(dp2585
g7
g8
sg9
V3TTPFEFXCTLCVVA74O616CXFH4TH6K
p2586
sbag1
(g2
g3
Ntp2587
Rp2588
(dp2589
g7
g8
sg9
V3PZDSVZ3J5IQQ4S4OY8ZEYAX7QX4NY
p2590
sbag1
(g2
g3
Ntp2591
Rp2592
(dp2593
g7
g8
sg9
V3Z8UJEJOCZEKJ656NAKBMSN7O0J93G
p2594
sbag1
(g2
g3
Ntp2595
Rp2596
(dp2597
g7
g8
sg9
V3ZURAPD288OXADI43S6K8VULTF1F1P
p2598
sbag1
(g2
g3
Ntp2599
Rp2600
(dp2601
g7
g8
sg9
V3IVKZBIBJ0AHIT84B1947HT7ZURHS9
p2602
sbag1
(g2
g3
Ntp2603
Rp2604
(dp2605
g7
g8
sg9
V36818Z1KV3EYOPFBFGYBINYRUJ2A3Z
p2606
sbag1
(g2
g3
Ntp2607
Rp2608
(dp2609
g7
g8
sg9
V3O0M2G5VC63512OANOPUWXFD20F941
p2610
sbag1
(g2
g3
Ntp2611
Rp2612
(dp2613
g7
g8
sg9
V3VI0PC2ZAYLZ6RGQ9OAHQY70QU6OX9
p2614
sbag1
(g2
g3
Ntp2615
Rp2616
(dp2617
g7
g8
sg9
V3D0LPO3EAB0O6W60EKWJ9CE9S00OYF
p2618
sbag1
(g2
g3
Ntp2619
Rp2620
(dp2621
g7
g8
sg9
V3IYI9285WS1X2IEY2FMP4P54QJ9CJF
p2622
sbag1
(g2
g3
Ntp2623
Rp2624
(dp2625
g7
g8
sg9
V3URJ6VVYUPO88PSGPD8CTNA2X024OD
p2626
sbag1
(g2
g3
Ntp2627
Rp2628
(dp2629
g7
g8
sg9
V3NOEP8XAU43HRRSROONWFYCQ003PXU
p2630
sbag1
(g2
g3
Ntp2631
Rp2632
(dp2633
g7
g8
sg9
V3UYRNV2KIT0R95F601YCVAQ29CTN8O
p2634
sbag1
(g2
g3
Ntp2635
Rp2636
(dp2637
g7
g8
sg9
V34F34TZU7W0K40MW5MXJSCWIERVJ2A
p2638
sbag1
(g2
g3
Ntp2639
Rp2640
(dp2641
g7
g8
sg9
V3W31J70BASXSD2KGK0M1545H589CKE
p2642
sbag1
(g2
g3
Ntp2643
Rp2644
(dp2645
g7
g8
sg9
V31MBOZ6PAOS3X82Y50Y2K4IWU8ECLH
p2646
sbag1
(g2
g3
Ntp2647
Rp2648
(dp2649
g7
g8
sg9
V3LEG2HW4UFO4ZY00MW6YDE4QLLFF26
p2650
sbag1
(g2
g3
Ntp2651
Rp2652
(dp2653
g7
g8
sg9
V3CVBMEMMXBHVZVOCNYBTCQXBCFDH7J
p2654
sbag1
(g2
g3
Ntp2655
Rp2656
(dp2657
g7
g8
sg9
V3MXX6RQ9EV6QTP4H4DLRINFS75Y4PU
p2658
sbag1
(g2
g3
Ntp2659
Rp2660
(dp2661
g7
g8
sg9
V3GVPRXWRPHVVVQZWTGTEC2YQCTT7I5
p2662
sbag1
(g2
g3
Ntp2663
Rp2664
(dp2665
g7
g8
sg9
V3ZZAYRN1I6SSPA764E9K1VMUDYITOV
p2666
sbag1
(g2
g3
Ntp2667
Rp2668
(dp2669
g7
g8
sg9
V3G5RUKN2EC4RNAYG5T4QV6LDTIBN9D
p2670
sbag1
(g2
g3
Ntp2671
Rp2672
(dp2673
g7
g8
sg9
V3O4VWC1GEW79PIIF9MBOBM1AK5VJ3L
p2674
sbag1
(g2
g3
Ntp2675
Rp2676
(dp2677
g7
g8
sg9
V3DWNFENNE3WU7E1J90G7LRTGY5RJ46
p2678
sbag1
(g2
g3
Ntp2679
Rp2680
(dp2681
g7
g8
sg9
V3R5OYNIC2CAAAAJ7JEMZQVRKN3ETPC
p2682
sbag1
(g2
g3
Ntp2683
Rp2684
(dp2685
g7
g8
sg9
V3W1K7D6QSBI4SSRW61TGHZNCRVLZBD
p2686
sbag1
(g2
g3
Ntp2687
Rp2688
(dp2689
g7
g8
sg9
V36D1BWBEHN2A58SH8JAB84OZILQM2H
p2690
sbag1
(g2
g3
Ntp2691
Rp2692
(dp2693
g7
g8
sg9
V356ZPKYPUHI6RWI1TK9YYCJZ26XPY0
p2694
sbag1
(g2
g3
Ntp2695
Rp2696
(dp2697
g7
g8
sg9
V35O6H0UNLSHC3X5JN5ZHQJZUY1MJ5B
p2698
sbag1
(g2
g3
Ntp2699
Rp2700
(dp2701
g7
g8
sg9
V3KWGG5KP6J3N3QKJ5CZHKHXLUD4CMJ
p2702
sbag1
(g2
g3
Ntp2703
Rp2704
(dp2705
g7
g8
sg9
V37PGLWGSJT7JQ56GCAING73CIDTKIO
p2706
sbag1
(g2
g3
Ntp2707
Rp2708
(dp2709
g7
g8
sg9
V3EQVJH0T40MIXTLJ01EUHMPT1D5HTY
p2710
sbag1
(g2
g3
Ntp2711
Rp2712
(dp2713
g7
g8
sg9
V3X7837UUADZ8M15XSO9MIPDUUWXJ6R
p2714
sbag1
(g2
g3
Ntp2715
Rp2716
(dp2717
g7
g8
sg9
V33Q5P9PUSPNN2XJ2K1PBSJTU9GLZCK
p2718
sbag1
(g2
g3
Ntp2719
Rp2720
(dp2721
g7
g8
sg9
V3BAKUKE49HDUD3NDUN6EPK84W2BR1T
p2722
sbag1
(g2
g3
Ntp2723
Rp2724
(dp2725
g7
g8
sg9
V373L46LKP77FLGQMUS3NS8ICVSIKJ0
p2726
sbag1
(g2
g3
Ntp2727
Rp2728
(dp2729
g7
g8
sg9
V391FPZIE4CNXX6080644MIBVKRCHUP
p2730
sbag1
(g2
g3
Ntp2731
Rp2732
(dp2733
g7
g8
sg9
V3U18MJKL1UNTL85JHDEHXWMLZ3ECNJ
p2734
sbag1
(g2
g3
Ntp2735
Rp2736
(dp2737
g7
g8
sg9
V3L84EBDQ373AW0W4CD3ZTNIPAHIKKZ
p2738
sbag1
(g2
g3
Ntp2739
Rp2740
(dp2741
g7
g8
sg9
V3V0TR1NRVA3J6LYFFU3USSQX8JYA4K
p2742
sbag1
(g2
g3
Ntp2743
Rp2744
(dp2745
g7
g8
sg9
V3LN3BXKGC0WWPEU2B01NJ6KRQ69WG1
p2746
sbag1
(g2
g3
Ntp2747
Rp2748
(dp2749
g7
g8
sg9
V3Q2T3FD0ON9ZQQO0CJOGRETROZQM3S
p2750
sbag1
(g2
g3
Ntp2751
Rp2752
(dp2753
g7
g8
sg9
V3XJOUITW8USVAMKMJR1OQ0HUSZ0TQ3
p2754
sbag1
(g2
g3
Ntp2755
Rp2756
(dp2757
g7
g8
sg9
V3QREJ3J433YLG6EMXDF08NV4ZHNKL2
p2758
sbag1
(g2
g3
Ntp2759
Rp2760
(dp2761
g7
g8
sg9
V3FULMHZ7OUYK8M74CXTZ1JLX2ZMM4D
p2762
sbag1
(g2
g3
Ntp2763
Rp2764
(dp2765
g7
g8
sg9
V3NRZ1LDP7W76WMS6P6BHCJS1801PZR
p2766
sbag1
(g2
g3
Ntp2767
Rp2768
(dp2769
g7
g8
sg9
V3G9UA71JVVVRQ1J2BYEEO3DQP8I7JH
p2770
sbag1
(g2
g3
Ntp2771
Rp2772
(dp2773
g7
g8
sg9
V3NSCTNUR2ZO1242FTZM4XKWB8FTA5P
p2774
sbag1
(g2
g3
Ntp2775
Rp2776
(dp2777
g7
g8
sg9
V3BJKPTD2QCDVMNZMW6QOVQRZOL2TR4
p2778
sbag1
(g2
g3
Ntp2779
Rp2780
(dp2781
g7
g8
sg9
V3VLL1PIENQPOBMG5A6Y2NJNBYU4OZ6
p2782
sbag1
(g2
g3
Ntp2783
Rp2784
(dp2785
g7
g8
sg9
V3SA4EMRVJV39U1MGLCYP6KPFQSHP0W
p2786
sbag1
(g2
g3
Ntp2787
Rp2788
(dp2789
g7
g8
sg9
V32CAVSKPCEQMTVFUYH1JUVVO32G1UA
p2790
sbag1
(g2
g3
Ntp2791
Rp2792
(dp2793
g7
g8
sg9
V3YO4AH2FPDLUUDNVLPDE6PFPVP4Q0R
p2794
sbag1
(g2
g3
Ntp2795
Rp2796
(dp2797
g7
g8
sg9
V3RWO3EJELHA91Q7YHV2PKP8PVKNP1Z
p2798
sbag1
(g2
g3
Ntp2799
Rp2800
(dp2801
g7
g8
sg9
V3ZTE0JGGCETB3T5VISEUCLMQPDJCOY
p2802
sbag1
(g2
g3
Ntp2803
Rp2804
(dp2805
g7
g8
sg9
V3KLL7H3EGD2XALP85WE9I4DEYYLHVE
p2806
sbag1
(g2
g3
Ntp2807
Rp2808
(dp2809
g7
g8
sg9
V3SBX2M1TKDOBT15W4Q0GIS52C1K4QL
p2810
sbag1
(g2
g3
Ntp2811
Rp2812
(dp2813
g7
g8
sg9
V3N5YJ55YXG45ST8LXZIQR1WXZ0TNAS
p2814
sbag1
(g2
g3
Ntp2815
Rp2816
(dp2817
g7
g8
sg9
V3DWGDA5POF5M6A4U37BOQHX7H9P1VZ
p2818
sbag1
(g2
g3
Ntp2819
Rp2820
(dp2821
g7
g8
sg9
V3XU9MCX6VOD12O59DR6SU3I9O8PR2A
p2822
sbag1
(g2
g3
Ntp2823
Rp2824
(dp2825
g7
g8
sg9
V34R3P23QHS2APAPDV6J546WS57NHWO
p2826
sbag1
(g2
g3
Ntp2827
Rp2828
(dp2829
g7
g8
sg9
V36BTXXLZ2V9B52KWH5PGNIF78NM4RM
p2830
sbag1
(g2
g3
Ntp2831
Rp2832
(dp2833
g7
g8
sg9
V391JB9X4ZY95MOW7XPGF80ATZMDKM4
p2834
sbag1
(g2
g3
Ntp2835
Rp2836
(dp2837
g7
g8
sg9
V3FBEFUUYRK6XL82TYIW9PQAB4A4A65
p2838
sbag1
(g2
g3
Ntp2839
Rp2840
(dp2841
g7
g8
sg9
V3YD0MU1NC22GP8GYHS11V4A7ZLOA74
p2842
sbag1
(g2
g3
Ntp2843
Rp2844
(dp2845
g7
g8
sg9
V34R3P23QHS2APAPDV6J546WS56MWH0
p2846
sbag1
(g2
g3
Ntp2847
Rp2848
(dp2849
g7
g8
sg9
V3SBNLSTU6U6X7PPGKXKMCPBCUGXZDK
p2850
sbag1
(g2
g3
Ntp2851
Rp2852
(dp2853
g7
g8
sg9
V3G4VVJO6PZHB7RTKP587P44O4ROKP0
p2854
sbag1
(g2
g3
Ntp2855
Rp2856
(dp2857
g7
g8
sg9
V3A9LA2FRWSFPEAU35BFR6PAZE9THXH
p2858
sbag1
(g2
g3
Ntp2859
Rp2860
(dp2861
g7
g8
sg9
V30Z7M1Q8UYLKPMLHRXT79462A5UA8R
p2862
sbag1
(g2
g3
Ntp2863
Rp2864
(dp2865
g7
g8
sg9
V38RHULDV9YGAL50X1O1Q4IX75J1WIT
p2866
sbag1
(g2
g3
Ntp2867
Rp2868
(dp2869
g7
g8
sg9
V3ZXNP4Z39RMXLR72EJQR4IQITXN7LJ
p2870
sbag1
(g2
g3
Ntp2871
Rp2872
(dp2873
g7
g8
sg9
V3NCN4N1H1GIAB3DD3DIMMCG3HIENBN
p2874
sbag1
(g2
g3
Ntp2875
Rp2876
(dp2877
g7
g8
sg9
V3X2YVV51PU5ZLZ4ZTHGKCJGLOIR1W9
p2878
sbag1
(g2
g3
Ntp2879
Rp2880
(dp2881
g7
g8
sg9
V33KGGVH24UIEAZ9P3MC6E2USXKX1X2
p2882
sbag1
(g2
g3
Ntp2883
Rp2884
(dp2885
g7
g8
sg9
V3U18MJKL1UNTL85JHDEHXWMLZ3ENCU
p2886
sbag1
(g2
g3
Ntp2887
Rp2888
(dp2889
g7
g8
sg9
V3JMQI2OLFZ63Q0BXH99SH243K3QNDU
p2890
sbag1
(g2
g3
Ntp2891
Rp2892
(dp2893
g7
g8
sg9
V3L21G7IH47X3A4ZZ8IY8XG11ZQR1Y8
p2894
sbag1
(g2
g3
Ntp2895
Rp2896
(dp2897
g7
g8
sg9
V3M67TQBQQHPK3R4RWPZL901DUBCA9G
p2898
sbag1
(g2
g3
Ntp2899
Rp2900
(dp2901
g7
g8
sg9
V385MDVINFCG6GGK3J6MQGJC7IYQWJ5
p2902
sbag1
(g2
g3
Ntp2903
Rp2904
(dp2905
g7
g8
sg9
V3I7SHAD35MXHR9PNEVR64V57T2D7ML
p2906
sbag1
(g2
g3
Ntp2907
Rp2908
(dp2909
g7
g8
sg9
V3DGDV62G7OAGQBPU0Z23P8IUNQ1P2G
p2910
sbag1
(g2
g3
Ntp2911
Rp2912
(dp2913
g7
g8
sg9
V3EHIMLB7F70ZZ9TVX33ZQQT6NZJH86
p2914
sbag1
(g2
g3
Ntp2915
Rp2916
(dp2917
g7
g8
sg9
V3X55NP42EOH5BTLD4ZG88INMT41P3R
p2918
sbag1
(g2
g3
Ntp2919
Rp2920
(dp2921
g7
g8
sg9
V33N1S8XHHMM3FU94440RBNA35KV1ZZ
p2922
sbag1
(g2
g3
Ntp2923
Rp2924
(dp2925
g7
g8
sg9
V3RZS0FBRWKBTOTHWXSR91LRGZIFCPF
p2926
sbag1
(g2
g3
Ntp2927
Rp2928
(dp2929
g7
g8
sg9
V3XDSWAMB22TEO5IBX56Y1QHQ4E1CQ6
p2930
sbag1
(g2
g3
Ntp2931
Rp2932
(dp2933
g7
g8
sg9
V30OITAWPBQ4ZDEC52V9DQMOH751H9V
p2934
sbag1
(g2
g3
Ntp2935
Rp2936
(dp2937
g7
g8
sg9
V3SCKNODZ0XHN9RANQW66HAU7YSN7NL
p2938
sbag1
(g2
g3
Ntp2939
Rp2940
(dp2941
g7
g8
sg9
V30IRMPJWDZKWJ49Z2XCWUZ4359CKRS
p2942
sbag1
(g2
g3
Ntp2943
Rp2944
(dp2945
g7
g8
sg9
V3538U0YQ1FVTKGWJQWK3WO9IRZFF3H
p2946
sbag1
(g2
g3
Ntp2947
Rp2948
(dp2949
g7
g8
sg9
V37AQKJ12TXP822CE0VVJV5SHC6ZTTH
p2950
sbag1
(g2
g3
Ntp2951
Rp2952
(dp2953
g7
g8
sg9
V344M16OZKIG8I6PXD4KCNKMOKFRNEN
p2954
sbag1
(g2
g3
Ntp2955
Rp2956
(dp2957
g7
g8
sg9
V3MXX6RQ9EV6QTP4H4DLRINFS74XP4C
p2958
sbag1
(g2
g3
Ntp2959
Rp2960
(dp2961
g7
g8
sg9
V3BDORL6HKKEE06XBAKVY6GRV003CR7
p2962
sbag1
(g2
g3
Ntp2963
Rp2964
(dp2965
g7
g8
sg9
V367O8HRHKG9N6HK9WUPLDSK3UP54SA
p2966
sbag1
(g2
g3
Ntp2967
Rp2968
(dp2969
g7
g8
sg9
V3M0556243SL0OKPT8F4I527OWG6NF5
p2970
sbag1
(g2
g3
Ntp2971
Rp2972
(dp2973
g7
g8
sg9
V30EMX9PEVKK8KJ9CHMC1K99ZRBVKSG
p2974
sbag1
(g2
g3
Ntp2975
Rp2976
(dp2977
g7
g8
sg9
V3W9XHF7WGKW9ZJMR6MHRUE5LTU9KT5
p2978
sbag1
(g2
g3
Ntp2979
Rp2980
(dp2981
g7
g8
sg9
V3T6EIBTM9LPY8AEWOVDL5VCX0TUAAV
p2982
sbag1
(g2
g3
Ntp2983
Rp2984
(dp2985
g7
g8
sg9
V32LAQ1JNT9QN2FR300LT01EJVK6TU8
p2986
sbag1
(g2
g3
Ntp2987
Rp2988
(dp2989
g7
g8
sg9
V3UQVX1UPFSID2ULAJENDA7HMFJQ20P
p2990
sbag1
(g2
g3
Ntp2991
Rp2992
(dp2993
g7
g8
sg9
V3RKHNXPHGWXOZW1G6R71ZARNC8GKUW
p2994
sbag1
(g2
g3
Ntp2995
Rp2996
(dp2997
g7
g8
sg9
V3MA5N0ATTCC1R0QL1RM2HYCKXNQWK4
p2998
sbag1
(g2
g3
Ntp2999
Rp3000
(dp3001
g7
g8
sg9
V3JUDR1D0D6S1QNQ90CHSPD84SNOQ2B
p3002
sbag1
(g2
g3
Ntp3003
Rp3004
(dp3005
g7
g8
sg9
V3X4Q1O9UBHN5RCAZRB6JWZUCO2S7O0
p3006
sbag1
(g2
g3
Ntp3007
Rp3008
(dp3009
g7
g8
sg9
V3IJ95K7NDXD62KLOJZA0NN70XV6NG4
p3010
sbag1
(g2
g3
Ntp3011
Rp3012
(dp3013
g7
g8
sg9
V3B9J25CZ25EQ1LXOP9V3WQWRM2MCSV
p3014
sbag1
(g2
g3
Ntp3015
Rp3016
(dp3017
g7
g8
sg9
V3RTFSSG7T87CB683MRY3WYPZMNVWL7
p3018
sbag1
(g2
g3
Ntp3019
Rp3020
(dp3021
g7
g8
sg9
V33J5JKFMK6ZQB5MS4CVX8NDWY1OQ3M
p3022
sbag1
(g2
g3
Ntp3023
Rp3024
(dp3025
g7
g8
sg9
V31N9JPQXIPJK2GGZ35SI8NJ1CVJNH3
p3026
sbag1
(g2
g3
Ntp3027
Rp3028
(dp3029
g7
g8
sg9
V3IV1AEQ4DREVQFOLL36K239L0RNJ8D
p3030
sbag1
(g2
g3
Ntp3031
Rp3032
(dp3033
g7
g8
sg9
V3421H3BM9AIV4K7VQVCY2Z4WKX5J92
p3034
sbag1
(g2
g3
Ntp3035
Rp3036
(dp3037
g7
g8
sg9
V3A3KKYU7P3IWHOQOM3ZIWB4OMSLWM9
p3038
sbag1
(g2
g3
Ntp3039
Rp3040
(dp3041
g7
g8
sg9
V3TCFMTM8HEPD9J6SFXRDOC0WKBW21S
p3042
sbag1
(g2
g3
Ntp3043
Rp3044
(dp3045
g7
g8
sg9
V3D5G8J4N5A5NFUG35QVYWNG29RFTVX
p3046
sbag1
(g2
g3
Ntp3047
Rp3048
(dp3049
g7
g8
sg9
V3FW4EL5A3LPKY4OOY1RRTVA1CHA229
p3050
sbag1
(g2
g3
Ntp3051
Rp3052
(dp3053
g7
g8
sg9
V324N5FAHSXCOCBQGBHH6VWT6QFPKVL
p3054
sbag1
(g2
g3
Ntp3055
Rp3056
(dp3057
g7
g8
sg9
V3XBYQ44Z6P50UJG8V00UIPZGG0HTW7
p3058
sbag1
(g2
g3
Ntp3059
Rp3060
(dp3061
g7
g8
sg9
V35NNO802AVXKYBRJ9NA38ZKGC8YNIW
p3062
sbag1
(g2
g3
Ntp3063
Rp3064
(dp3065
g7
g8
sg9
V3DTJ4WT8BDG2ZV3GGSV6I7TXUSYZED
p3066
sbag1
(g2
g3
Ntp3067
Rp3068
(dp3069
g7
g8
sg9
V3K8CQCU3KE22Z6BOY4EI9QTORIVWN9
p3070
sbag1
(g2
g3
Ntp3071
Rp3072
(dp3073
g7
g8
sg9
V3PA41K45VN5NCCM06BJYLZZ2Y7O7PH
p3074
sbag1
(g2
g3
Ntp3075
Rp3076
(dp3077
g7
g8
sg9
V3VP28W7DUNLU593CB3FC0PEX6TDZFV
p3078
sbag1
(g2
g3
Ntp3079
Rp3080
(dp3081
g7
g8
sg9
V3ZLW647WALW9JMK7215WC5FTIVA23K
p3082
sbag1
(g2
g3
Ntp3083
Rp3084
(dp3085
g7
g8
sg9
V3ODOP6T3ASLU1I3B2FAFMA7ZWV6245
p3086
sbag1
(g2
g3
Ntp3087
Rp3088
(dp3089
g7
g8
sg9
V3G57RS03HH6CX17BGKTPR2DDWR125A
p3090
sbag1
(g2
g3
Ntp3091
Rp3092
(dp3093
g7
g8
sg9
V3EPG8DX9LKR8P88HII41NFL670SP5H
p3094
sbag1
(g2
g3
Ntp3095
Rp3096
(dp3097
g7
g8
sg9
V374UMBUHN5QRGLA3E90T6VSDOL0CTK
p3098
sbag1
(g2
g3
Ntp3099
Rp3100
(dp3101
g7
g8
sg9
V3MA5N0ATTCC1R0QL1RM2HYCKXORKWV
p3102
sbag1
(g2
g3
Ntp3103
Rp3104
(dp3105
g7
g8
sg9
V322ZSN9Z5GLOLHXOLUUBNXGPW8J4TZ
p3106
sbag1
(g2
g3
Ntp3107
Rp3108
(dp3109
g7
g8
sg9
V3SBX2M1TKDOBT15W4Q0GIS52C1KQ47
p3110
sbag1
(g2
g3
Ntp3111
Rp3112
(dp3113
g7
g8
sg9
V3B286OTISEI993H0I1QYYUFGQFNJAH
p3114
sbag1
(g2
g3
Ntp3115
Rp3116
(dp3117
g7
g8
sg9
V3SSN80MU8CPGG0VBBWIOJHQR6QXKXO
p3118
sbag1
(g2
g3
Ntp3119
Rp3120
(dp3121
g7
g8
sg9
V3TD33TP5DL33RKJOU9DH06W3IBFABQ
p3122
sbag1
(g2
g3
Ntp3123
Rp3124
(dp3125
g7
g8
sg9
V37OPIVELUU4DIXMAU1NDMHZ1DNJHAA
p3126
sbag1
(g2
g3
Ntp3127
Rp3128
(dp3129
g7
g8
sg9
V3PA41K45VN5NCCM06BJYLZZ2Y6NP7W
p3130
sbag1
(g2
g3
Ntp3131
Rp3132
(dp3133
g7
g8
sg9
V3AA88CN98P45G5LLGS4Q2VX08WRKYU
p3134
sbag1
(g2
g3
Ntp3135
Rp3136
(dp3137
g7
g8
sg9
V302OLP89DZ8M1PBU899CBQ2L0WFACX
p3138
sbag1
(g2
g3
Ntp3139
Rp3140
(dp3141
g7
g8
sg9
V3K3G488TR29TPK9WIVJQNKBGCXFQ5C
p3142
sbag1
(g2
g3
Ntp3143
Rp3144
(dp3145
g7
g8
sg9
V3HJ1EVZS2OKQN61SHRKXDDN1UMPR3L
p3146
sbag1
(g2
g3
Ntp3147
Rp3148
(dp3149
g7
g8
sg9
V3SR6AEG6W5UEEFKDA71TP3H8GFNHYN
p3150
sbag1
(g2
g3
Ntp3151
Rp3152
(dp3153
g7
g8
sg9
V351S7I5UG9XGTMBPR5V3K0ZGPNNNJ8
p3154
sbag1
(g2
g3
Ntp3155
Rp3156
(dp3157
g7
g8
sg9
V3B9XR6P1WEWESDMSOFQUT5ZM8X8JBC
p3158
sbag1
(g2
g3
Ntp3159
Rp3160
(dp3161
g7
g8
sg9
V3IYI9285WS1X2IEY2FMP4P54QI8JCJ
p3162
sbag1
(g2
g3
Ntp3163
Rp3164
(dp3165
g7
g8
sg9
V3PN6H8C9R4RW6HH8854NVWK3LWRADX
p3166
sbag1
(g2
g3
Ntp3167
Rp3168
(dp3169
g7
g8
sg9
V3J6BHNX0U9TB46H79QVFLFZT4CNNK7
p3170
sbag1
(g2
g3
Ntp3171
Rp3172
(dp3173
g7
g8
sg9
V3R868ACW4SD0J9Z7MNLUIAE978DZGU
p3174
sbag1
(g2
g3
Ntp3175
Rp3176
(dp3177
g7
g8
sg9
V36BTXXLZ2V9B52KWH5PGNIF78MLR46
p3178
sbag1
(g2
g3
Ntp3179
Rp3180
(dp3181
g7
g8
sg9
V3AC6MFV69KJEJ5UI6T3C3AQAM9RHZE
p3182
sbag1
(g2
g3
Ntp3183
Rp3184
(dp3185
g7
g8
sg9
V3XDJY5RK5SM3LUCDLZKLST2RFMQ4UQ
p3186
sbag1
(g2
g3
Ntp3187
Rp3188
(dp3189
g7
g8
sg9
V32FESTC2NHR6GYPSEEQ3BREF7Z7CUB
p3190
sbag1
(g2
g3
Ntp3191
Rp3192
(dp3193
g7
g8
sg9
V3P0I4CQYVY8KHRB0ZJEVOFTTHS0WOO
p3194
sbag1
(g2
g3
Ntp3195
Rp3196
(dp3197
g7
g8
sg9
V3Z56AA6EK41YN9BIVLMEYH5BYQSM6Y
p3198
sbag1
(g2
g3
Ntp3199
Rp3200
(dp3201
g7
g8
sg9
V3VO4XFFP15N8CONF6OYNL4PC33A7Q8
p3202
sbag1
(g2
g3
Ntp3203
Rp3204
(dp3205
g7
g8
sg9
V3SV8KD29L4T5LVVQCE69G262EQVKZL
p3206
sbag1
(g2
g3
Ntp3207
Rp3208
(dp3209
g7
g8
sg9
V37VE3DA4YUII17R20FN9HSJ7V54HB5
p3210
sbag1
(g2
g3
Ntp3211
Rp3212
(dp3213
g7
g8
sg9
V38XPGNCKHT13Y91DQPUQOF4ATTZ4VF
p3214
sbag1
(g2
g3
Ntp3215
Rp3216
(dp3217
g7
g8
sg9
V3RWB1RTQDJORCQRJGGB4ZZVX9QTP8J
p3218
sbag1
(g2
g3
Ntp3219
Rp3220
(dp3221
g7
g8
sg9
V3A520CCNWN11YNV840F71E2OL8SAEQ
p3222
sbag1
(g2
g3
Ntp3223
Rp3224
(dp3225
g7
g8
sg9
V3S1L4CQSFX6T41V4ZBZDJWNOX97AF8
p3226
sbag1
(g2
g3
Ntp3227
Rp3228
(dp3229
g7
g8
sg9
V3H6W48L9F4Q22RN1EJRADFYJRXWWP5
p3230
sbag1
(g2
g3
Ntp3231
Rp3232
(dp3233
g7
g8
sg9
V3S37Y8CWI81GDY1IGZZMAHNO0214WP
p3234
sbag1
(g2
g3
Ntp3235
Rp3236
(dp3237
g7
g8
sg9
V33TGB4G0LPIFJJLY55WGK8DNP2NTX0
p3238
sbag1
(g2
g3
Ntp3239
Rp3240
(dp3241
g7
g8
sg9
V32XN26MTXZKJ3G7ITK5IP3GVLJHL0X
p3242
sbag1
(g2
g3
Ntp3243
Rp3244
(dp3245
g7
g8
sg9
V3NKW03WTLM8N23OGEW6ZDKOTWTIWQW
p3246
sbag1
(g2
g3
Ntp3247
Rp3248
(dp3249
g7
g8
sg9
V3EKZL9T8Y8N1BCJ8EFJ4SCPPDQ4HCC
p3250
sbag1
(g2
g3
Ntp3251
Rp3252
(dp3253
g7
g8
sg9
V3CMIQF80GNRP8O9ANETVFQPG8SQQ6S
p3254
sbag1
(g2
g3
Ntp3255
Rp3256
(dp3257
g7
g8
sg9
V3DZKABX2ZI66TDESJ4087DGYL6GCV0
p3258
sbag1
(g2
g3
Ntp3259
Rp3260
(dp3261
g7
g8
sg9
V3OKP4QVBP2YZI1RZAV5V1HN0YO7AG7
p3262
sbag1
(g2
g3
Ntp3263
Rp3264
(dp3265
g7
g8
sg9
V3D3B8GE892SRQVATL8HIZVQ8TWBP98
p3266
sbag1
(g2
g3
Ntp3267
Rp3268
(dp3269
g7
g8
sg9
V3Y3CZJSZ9KUT1LOWVA8QSALL8IGR5B
p3270
sbag1
(g2
g3
Ntp3271
Rp3272
(dp3273
g7
g8
sg9
V3I7SHAD35MXHR9PNEVR64V57T1CM7X
p3274
sbag1
(g2
g3
Ntp3275
Rp3276
(dp3277
g7
g8
sg9
V335HHSX8CD6BG4PMEBEFCI77YQGHDC
p3278
sbag1
(g2
g3
Ntp3279
Rp3280
(dp3281
g7
g8
sg9
V3VO4XFFP15N8CONF6OYNL4PC33AQ7R
p3282
sbag1
(g2
g3
Ntp3283
Rp3284
(dp3285
g7
g8
sg9
V39O0SQZVJN88OP2FJ3NNQUZHZPC7R9
p3286
sbag1
(g2
g3
Ntp3287
Rp3288
(dp3289
g7
g8
sg9
V3X52SWXE0X6J82EX9E54TFZCSFICWA
p3290
sbag1
(g2
g3
Ntp3291
Rp3292
(dp3293
g7
g8
sg9
V31J7RYECZLRJA5S0P39I38Z5QBNL10
p3294
sbag1
(g2
g3
Ntp3295
Rp3296
(dp3297
g7
g8
sg9
V37OPIVELUU4DIXMAU1NDMHZ1DOKAH6
p3298
sbag1
(g2
g3
Ntp3299
Rp3300
(dp3301
g7
g8
sg9
V3LB1BGHFL2X4JOB8A1II3MKWR8HTY6
p3302
sbag1
(g2
g3
Ntp3303
Rp3304
(dp3305
g7
g8
sg9
V3K3IX1W4S6S5VEKYDEVIVQ1SZETPAN
p3306
sbag1
(g2
g3
Ntp3307
Rp3308
(dp3309
g7
g8
sg9
V3QMELQS6Y5CPKPOA0TIVKGZL4DRR6R
p3310
sbag1
(g2
g3
Ntp3311
Rp3312
(dp3313
g7
g8
sg9
V3UV0D2KX1MKE2CFNQAPM6T1O5ZBF42
p3314
sbag1
(g2
g3
Ntp3315
Rp3316
(dp3317
g7
g8
sg9
V33W1NHWFYHM4OELD6NK1HTTYX2LTZX
p3318
sbag1
(g2
g3
Ntp3319
Rp3320
(dp3321
g7
g8
sg9
V3AC6MFV69KJEJ5UI6T3C3AQAM8QZHT
p3322
sbag1
(g2
g3
Ntp3323
Rp3324
(dp3325
g7
g8
sg9
V3MNJFORX8B5WYVJN4F8WBL725V6F57
p3326
sbag1
(g2
g3
Ntp3327
Rp3328
(dp3329
g7
g8
sg9
V3E6L1VR4XWNSHZJ19YI13RL21QHF6N
p3330
sbag1
(g2
g3
Ntp3331
Rp3332
(dp3333
g7
g8
sg9
V39KV3A5D188KP42SYSNSG44DLRV7SX
p3334
sbag1
(g2
g3
Ntp3335
Rp3336
(dp3337
g7
g8
sg9
V33QQ60S6ASJMM6UC2YXJGQCEY99U0X
p3338
sbag1
(g2
g3
Ntp3339
Rp3340
(dp3341
g7
g8
sg9
V3KA7IJSNW66AEOPQJSVEQ1LYHWEPBI
p3342
sbag1
(g2
g3
Ntp3343
Rp3344
(dp3345
g7
g8
sg9
V3YLPJ8OXX8EV2Y68Q4V8C01V9474XI
p3346
sbag1
(g2
g3
Ntp3347
Rp3348
(dp3349
g7
g8
sg9
V3XABXM4AJ16CC2SYGTQTZ4L7ENGQ8E
p3350
sbag1
(g2
g3
Ntp3351
Rp3352
(dp3353
g7
g8
sg9
V32CAVSKPCEQMTVFUYH1JUVVO31FU10
p3354
sbag1
(g2
g3
Ntp3355
Rp3356
(dp3357
g7
g8
sg9
V3BO3NEOQM0IDESXU0J5YMT0GD1ZAIZ
p3358
sbag1
(g2
g3
Ntp3359
Rp3360
(dp3361
g7
g8
sg9
V37J05LC5AXK77AKC2BH0OVNMBIKJDJ
p3362
sbag1
(g2
g3
Ntp3363
Rp3364
(dp3365
g7
g8
sg9
V3OWZNK3RYLQTIGXQHL1XZE5TV7TU2H
p3366
sbag1
(g2
g3
Ntp3367
Rp3368
(dp3369
g7
g8
sg9
V3N3WJQXELSRQZQAW879W8R9AIH1L2H
p3370
sbag1
(g2
g3
Ntp3371
Rp3372
(dp3373
g7
g8
sg9
V3KTZHH2ONIGLRNU6O0JCIV124LIM8K
p3374
sbag1
(g2
g3
Ntp3375
Rp3376
(dp3377
g7
g8
sg9
V3JHB4BPSFKACQ7B8LLW7Z0GIYTYQ93
p3378
sbag1
(g2
g3
Ntp3379
Rp3380
(dp3381
g7
g8
sg9
V39O0SQZVJN88OP2FJ3NNQUZHZOBR7Q
p3382
sbag1
(g2
g3
Ntp3383
Rp3384
(dp3385
g7
g8
sg9
V33NKDW9FFXJYX2JNJJ1QVYDJ1HOCX3
p3386
sbag1
(g2
g3
Ntp3387
Rp3388
(dp3389
g7
g8
sg9
V360ZO6N6J1KL5SDGTSPQIRWDOR0M99
p3390
sbag1
(g2
g3
Ntp3391
Rp3392
(dp3393
g7
g8
sg9
V3S1WOPCJFGUCZGYCY6SKUD57BULJEC
p3394
sbag1
(g2
g3
Ntp3395
Rp3396
(dp3397
g7
g8
sg9
V3BA7SXOG1JRCO37YT8FT4UVCA8HR8D
p3398
sbag1
(g2
g3
Ntp3399
Rp3400
(dp3401
g7
g8
sg9
V3L55D8AUFAYNX79XOFNSECKS3NICY9
p3402
sbag1
(g2
g3
Ntp3403
Rp3404
(dp3405
g7
g8
sg9
V3X878VYTIEJBLZX6S8NT95LYW11F7M
p3406
sbag1
(g2
g3
Ntp3407
Rp3408
(dp3409
g7
g8
sg9
V3QHITW7OYOAQVQLDDRA7VVR24BGQAI
p3410
sbag1
(g2
g3
Ntp3411
Rp3412
(dp3413
g7
g8
sg9
V3AXFSPQOYQZ45UY8THCQCVQ7NV0JFU
p3414
sbag1
(g2
g3
Ntp3415
Rp3416
(dp3417
g7
g8
sg9
V33Q5P9PUSPNN2XJ2K1PBSJTU9HMCZ0
p3418
sbag1
(g2
g3
Ntp3419
Rp3420
(dp3421
g7
g8
sg9
V3ZUE82NE0A2FLD2P2DFZN5HT7L7F89
p3422
sbag1
(g2
g3
Ntp3423
Rp3424
(dp3425
g7
g8
sg9
V3G3AJKPCXLTK23WIV0HAVE84BA14YO
p3426
sbag1
(g2
g3
Ntp3427
Rp3428
(dp3429
g7
g8
sg9
V3QO7EE372OOVE0Q5J5A3Q6B8MT1QBD
p3430
sbag1
(g2
g3
Ntp3431
Rp3432
(dp3433
g7
g8
sg9
V36GJS3V78VRAJUU341I8UGQJOA0JGT
p3434
sbag1
(g2
g3
Ntp3435
Rp3436
(dp3437
g7
g8
sg9
V3RZS0FBRWKBTOTHWXSR91LRGZHEPCP
p3438
sbag1
(g2
g3
Ntp3439
Rp3440
(dp3441
g7
g8
sg9
V3L1EFR8WWT6FZILZ75LDN1C4RRPF9Y
p3442
sbag1
(g2
g3
Ntp3443
Rp3444
(dp3445
g7
g8
sg9
V3OND0WXMHWGG8A3MA6PZI0PSY2HHE5
p3446
sbag1
(g2
g3
Ntp3447
Rp3448
(dp3449
g7
g8
sg9
V3PKJ68EHDNXOJQPEO70QFG2K3ADJHS
p3450
sbag1
(g2
g3
Ntp3451
Rp3452
(dp3453
g7
g8
sg9
V3TKXBROM5TBOFL0YUPIBFS3Z3NSJIL
p3454
sbag1
(g2
g3
Ntp3455
Rp3456
(dp3457
g7
g8
sg9
V3XUSYT70IT2054JQG37U6Q8QCAFD09
p3458
sbag1
(g2
g3
Ntp3459
Rp3460
(dp3461
g7
g8
sg9
V3JVP4ZJHDPTHDFZC8H85XNO34FNI0G
p3462
sbag1
(g2
g3
Ntp3463
Rp3464
(dp3465
g7
g8
sg9
V3YOAVL4CA0IK7T6NRMJT9LH6H454ZF
p3466
sbag1
(g2
g3
Ntp3467
Rp3468
(dp3469
g7
g8
sg9
V38LRF35D5LXI3YT9LLF2IOAL1LTU3S
p3470
sbag1
(g2
g3
Ntp3471
Rp3472
(dp3473
g7
g8
sg9
V3XDJY5RK5SM3LUCDLZKLST2RFLPU4D
p3474
sbag1
(g2
g3
Ntp3475
Rp3476
(dp3477
g7
g8
sg9
V38O9DZ0A62O8G57PL33UJ8RDSMC26Q
p3478
sbag1
(g2
g3
Ntp3479
Rp3480
(dp3481
g7
g8
sg9
V3D06DR5225KZABNLLY3QEM7XU9IMAO
p3482
sbag1
(g2
g3
Ntp3483
Rp3484
(dp3485
g7
g8
sg9
V36JW4WBR06L8EO3I5H950IASA3WHFN
p3486
sbag1
(g2
g3
Ntp3487
Rp3488
(dp3489
g7
g8
sg9
V35F6NGNVM8KL44F7NSSIQ90ZNA97TM
p3490
sbag1
(g2
g3
Ntp3491
Rp3492
(dp3493
g7
g8
sg9
V3GKAWYFRAPU3TLNAXOMKLR9YKHQPDP
p3494
sbag1
(g2
g3
Ntp3495
Rp3496
(dp3497
g7
g8
sg9
V31KSVEGZ34TNE43GRBVZIAYYSFKWRX
p3498
sbag1
(g2
g3
Ntp3499
Rp3500
(dp3501
g7
g8
sg9
V30QQTY5GMKL04HUWNXISV5M16OG7UD
p3502
sbag1
(g2
g3
Ntp3503
Rp3504
(dp3505
g7
g8
sg9
V3S1L4CQSFX6T41V4ZBZDJWNOX97FAD
p3506
sbag1
(g2
g3
Ntp3507
Rp3508
(dp3509
g7
g8
sg9
V31GN6YMHLPTZFJ3T60V48K3UEH3WSL
p3510
sbag1
(g2
g3
Ntp3511
Rp3512
(dp3513
g7
g8
sg9
V3XBYQ44Z6P50UJG8V00UIPZGG0HWTA
p3514
sbag1
(g2
g3
Ntp3515
Rp3516
(dp3517
g7
g8
sg9
V3D7VY91L65Y4TLSDRC3M9XR3CR3MBJ
p3518
sbag1
(g2
g3
Ntp3519
Rp3520
(dp3521
g7
g8
sg9
V3BAWBGQGYL00HWJWSNSXRROKKVP7V2
p3522
sbag1
(g2
g3
Ntp3523
Rp3524
(dp3525
g7
g8
sg9
V3ECKRY5B1QXEF052CBLX3MRPML5ZIM
p3526
sbag1
(g2
g3
Ntp3527
Rp3528
(dp3529
g7
g8
sg9
V37SOB9Z0SSYFK86FC7N1R1E2OV1L3S
p3530
sbag1
(g2
g3
Ntp3531
Rp3532
(dp3533
g7
g8
sg9
V3IH9TRB0FB0HK4KU40C5BS7D97TI1J
p3534
sbag1
(g2
g3
Ntp3535
Rp3536
(dp3537
g7
g8
sg9
V3VZYA8PITOZ51R4X1XPB8EKYZTH50T
p3538
sbag1
(g2
g3
Ntp3539
Rp3540
(dp3541
g7
g8
sg9
V3VGET1QSZ00DWLJ1IXXTDT7YR4R7WC
p3542
sbag1
(g2
g3
Ntp3543
Rp3544
(dp3545
g7
g8
sg9
V3TY2U1TEB7BKAWK4C73BRTIZG2HJJX
p3546
sbag1
(g2
g3
Ntp3547
Rp3548
(dp3549
g7
g8
sg9
V3KWGG5KP6J3N3QKJ5CZHKHXLUC3MCQ
p3550
sbag1
(g2
g3
Ntp3551
Rp3552
(dp3553
g7
g8
sg9
V3ULIZ0H1VA658GPFXGTBMJ384LN51W
p3554
sbag1
(g2
g3
Ntp3555
Rp3556
(dp3557
g7
g8
sg9
V3RQVKZ7ZRKKRK5LU4D8MPMR9NXW27P
p3558
sbag1
(g2
g3
Ntp3559
Rp3560
(dp3561
g7
g8
sg9
V3S8APUMBJXKYNB0W5PZ9E77UFRSFB8
p3562
sbag1
(g2
g3
Ntp3563
Rp3564
(dp3565
g7
g8
sg9
V3B286OTISEI993H0I1QYYUFGQGOAJB
p3566
sbag1
(g2
g3
Ntp3567
Rp3568
(dp3569
g7
g8
sg9
V3SMIWMMK616FUWVXV5Q4NLLIZEOWU1
p3570
sbag1
(g2
g3
Ntp3571
Rp3572
(dp3573
g7
g8
sg9
V32204AGAABDESOZDG1FNI3A4BIWHGM
p3574
sbag1
(g2
g3
Ntp3575
Rp3576
(dp3577
g7
g8
sg9
V31YWE12TE0DSLLORS2TFFCL506X7X5
p3578
sbag1
(g2
g3
Ntp3579
Rp3580
(dp3581
g7
g8
sg9
V3TC2K6WK9G3VKJQDEI0S3MN4YH228C
p3582
sbag1
(g2
g3
Ntp3583
Rp3584
(dp3585
g7
g8
sg9
V3WKGUBL7SZN024PJCLSK16682VXL4D
p3586
sbag1
(g2
g3
Ntp3587
Rp3588
(dp3589
g7
g8
sg9
V336OE47KI2LF7BKX0V09J7N1DLXWVQ
p3590
sbag1
(g2
g3
Ntp3591
Rp3592
(dp3593
g7
g8
sg9
V3VADEH0UHCY9VA6SUEH9GQVYLL1SPP
p3594
sbag1
(g2
g3
Ntp3595
Rp3596
(dp3597
g7
g8
sg9
V3EQPA8A374XAABP8UT6XFN6PZ0UZJY
p3598
sbag1
(g2
g3
Ntp3599
Rp3600
(dp3601
g7
g8
sg9
V3OCZWXS7ZO8IYNTJQQBU6YCM2RSL5I
p3602
sbag1
(g2
g3
Ntp3603
Rp3604
(dp3605
g7
g8
sg9
V373L46LKP77FLGQMUS3NS8ICVRHJKW
p3606
sbag1
(g2
g3
Ntp3607
Rp3608
(dp3609
g7
g8
sg9
V3126F2F5F848LR1ATJX4R9RJKTRPEI
p3610
sbag1
(g2
g3
Ntp3611
Rp3612
(dp3613
g7
g8
sg9
V3FJ2RVH25Z7VYO9NJA663IIFINK291
p3614
sbag1
(g2
g3
Ntp3615
Rp3616
(dp3617
g7
g8
sg9
V31ODACBENUGUVM77URWYGVL8QHNSQG
p3618
sbag1
(g2
g3
Ntp3619
Rp3620
(dp3621
g7
g8
sg9
V3MJ9GGZYO37937JSBGK6ZDTZO522AG
p3622
sbag1
(g2
g3
Ntp3623
Rp3624
(dp3625
g7
g8
sg9
V3WGCNLZJKF90CT48CMBUKVR0H2LD1C
p3626
sbag1
(g2
g3
Ntp3627
Rp3628
(dp3629
g7
g8
sg9
V3I01FDIL6M971EM4VQB8PE1598ZD2T
p3630
sbag1
(g2
g3
Ntp3631
Rp3632
(dp3633
g7
g8
sg9
V3P7RGTLO6EE4KNNI0MQAZ9FT55OAKA
p3634
sbag1
(g2
g3
Ntp3635
Rp3636
(dp3637
g7
g8
sg9
V3NC6WP7WJHLSM0K2Q555596FKUZWW0
p3638
sbag1
(g2
g3
Ntp3639
Rp3640
(dp3641
g7
g8
sg9
V3XDSWAMB22TEO5IBX56Y1QHQ4E1QCK
p3642
sbag1
(g2
g3
Ntp3643
Rp3644
(dp3645
g7
g8
sg9
V3JYPJ2TAYI90R516OUHA9RCJWU6PF0
p3646
sbag1
(g2
g3
Ntp3647
Rp3648
(dp3649
g7
g8
sg9
V341YLJU21I0O9P2QN4CJGBHI1D7I20
p3650
sbag1
(g2
g3
Ntp3651
Rp3652
(dp3653
g7
g8
sg9
V3TUOHPJXYHY7B0PS0A1R7SKMTW5WXT
p3654
sbag1
(g2
g3
Ntp3655
Rp3656
(dp3657
g7
g8
sg9
V39HYCOOPKOMX8IQX58US4NF3FCFMDQ
p3658
sbag1
(g2
g3
Ntp3659
Rp3660
(dp3661
g7
g8
sg9
V3P520RYKCH7LHDGDZ43VXL85FHKU5I
p3662
sbag1
(g2
g3
Ntp3663
Rp3664
(dp3665
g7
g8
sg9
V3SV8KD29L4T5LVVQCE69G262EPUZKX
p3666
sbag1
(g2
g3
Ntp3667
Rp3668
(dp3669
g7
g8
sg9
V3UQ1LLR26A9F4T50LM2BE9S8U5TALD
p3670
sbag1
(g2
g3
Ntp3671
Rp3672
(dp3673
g7
g8
sg9
V3UZUVSO3P7W20O4X135CA5XOFOGMEJ
p3674
sbag1
(g2
g3
Ntp3675
Rp3676
(dp3677
g7
g8
sg9
V3CMV9YRYP32Q5M84FSFO78VRKRMJLZ
p3678
sbag1
(g2
g3
Ntp3679
Rp3680
(dp3681
g7
g8
sg9
V3XEIP58NL0OG51D8XEIAV2JH3PZZL0
p3682
sbag1
(g2
g3
Ntp3683
Rp3684
(dp3685
g7
g8
sg9
V3XH7ZM9YX2VC28Q8Y0L74QQNUEZR92
p3686
sbag1
(g2
g3
Ntp3687
Rp3688
(dp3689
g7
g8
sg9
V3G57RS03HH6CX17BGKTPR2DDWR152D
p3690
sbag1
(g2
g3
Ntp3691
Rp3692
(dp3693
g7
g8
sg9
V3FHTJGYT8N1655X1ZENSRCCVX96PGZ
p3694
sbag1
(g2
g3
Ntp3695
Rp3696
(dp3697
g7
g8
sg9
V3GONHBMNHVZ0BJVTXQJPVFY63UPZM2
p3698
sbag1
(g2
g3
Ntp3699
Rp3700
(dp3701
g7
g8
sg9
V3OQQD2WO8I7DU7Y9R4QOZLMA7R7I3B
p3702
sbag1
(g2
g3
Ntp3703
Rp3704
(dp3705
g7
g8
sg9
V3D06DR5225KZABNLLY3QEM7XUAJAMF
p3706
sbag1
(g2
g3
Ntp3707
Rp3708
(dp3709
g7
g8
sg9
V3MYASTQBG7COTXOPX119LWZ8PEDQDK
p3710
sbag1
(g2
g3
Ntp3711
Rp3712
(dp3713
g7
g8
sg9
V3HO4MYYR12PH0HGR4ND0PRM5BCVU6Y
p3714
sbag1
(g2
g3
Ntp3715
Rp3716
(dp3717
g7
g8
sg9
V3VW0145YLYDAB4QPF4G37LAGKWCJM1
p3718
sbag1
(g2
g3
Ntp3719
Rp3720
(dp3721
g7
g8
sg9
V32PT7WK7DMGWMWINZQPD8O6XFMZD34
p3722
sbag1
(g2
g3
Ntp3723
Rp3724
(dp3725
g7
g8
sg9
V3BC9H1KCYUDWB5F256NTQ6RVV2ZWYZ
p3726
sbag1
(g2
g3
Ntp3727
Rp3728
(dp3729
g7
g8
sg9
V351S7I5UG9XGTMBPR5V3K0ZGPMMJN1
p3730
sbag1
(g2
g3
Ntp3731
Rp3732
(dp3733
g7
g8
sg9
V3MQY1YVHS3LEMHOKHUK2UOD56NN2BB
p3734
sbag1
(g2
g3
Ntp3735
Rp3736
(dp3737
g7
g8
sg9
V3RHLQY6EDT5H4S1RZ4UWITY3TMVD4P
p3738
sbag1
(g2
g3
Ntp3739
Rp3740
(dp3741
g7
g8
sg9
V3CVDZS288H1U624TWEPISNIORPVMF1
p3742
sbag1
(g2
g3
Ntp3743
Rp3744
(dp3745
g7
g8
sg9
V3FO95NVK5C1U7NM776LYLLVDM3PSRH
p3746
sbag1
(g2
g3
Ntp3747
Rp3748
(dp3749
g7
g8
sg9
V30QQTY5GMKL04HUWNXISV5M16NFU7X
p3750
sbag1
(g2
g3
Ntp3751
Rp3752
(dp3753
g7
g8
sg9
V34HEO7RUG6VQ7R0DQ6Z70L170WHRAH
p3754
sbag1
(g2
g3
Ntp3755
Rp3756
(dp3757
g7
g8
sg9
V3J94SKDEKIQZ0B5RD9D6NL4HTIQD5U
p3758
sbag1
(g2
g3
Ntp3759
Rp3760
(dp3761
g7
g8
sg9
V3DIIW4IV8PWYC3HDRIV79QEGLR3I4W
p3762
sbag1
(g2
g3
Ntp3763
Rp3764
(dp3765
g7
g8
sg9
V3FK4G712NX1682MKMVL3BV09858SS5
p3766
sbag1
(g2
g3
Ntp3767
Rp3768
(dp3769
g7
g8
sg9
V3OPLMF3EU5OMOCZPUQ7G0FC8TCSNLA
p3770
sbag1
(g2
g3
Ntp3771
Rp3772
(dp3773
g7
g8
sg9
V3ATYLI1PRT3YB7B1SKVGZPZLFWRJOG
p3774
sbag1
(g2
g3
Ntp3775
Rp3776
(dp3777
g7
g8
sg9
V3YLTXLH3DF7K51SCJK5ACCOWC9JPHY
p3778
sbag1
(g2
g3
Ntp3779
Rp3780
(dp3781
g7
g8
sg9
V38EHZ67RIMT0K20O7YV0A8I0S4VMG0
p3782
sbag1
(g2
g3
Ntp3783
Rp3784
(dp3785
g7
g8
sg9
V3QTFNPMJC6J6T1GT9RYP8UN68KZZN2
p3786
sbag1
(g2
g3
Ntp3787
Rp3788
(dp3789
g7
g8
sg9
V3BS6ERDL938VJF55ISNBFRIHPD1D6A
p3790
sbag1
(g2
g3
Ntp3791
Rp3792
(dp3793
g7
g8
sg9
V3GV1I4SEO9QEHRTXV9LZY4QMYM3L6Y
p3794
sbag1
(g2
g3
Ntp3795
Rp3796
(dp3797
g7
g8
sg9
V3RIHDBQ1NEZEKYVZR4DIV8U1748MHZ
p3798
sbag1
(g2
g3
Ntp3799
Rp3800
(dp3801
g7
g8
sg9
V30UZJB2POHD1IJ3UKK7UACI525153O
p3802
sbag1
(g2
g3
Ntp3803
Rp3804
(dp3805
g7
g8
sg9
V3JGHED38EDSHLQE1XYFHYQSE2CR7YB
p3806
sbag1
(g2
g3
Ntp3807
Rp3808
(dp3809
g7
g8
sg9
V37ZQELHEQ0Z6UUHAU28V0SRXTHINMC
p3810
sbag1
(g2
g3
Ntp3811
Rp3812
(dp3813
g7
g8
sg9
V32L724R85LLK1W3WP2NVCOPBCMYPIR
p3814
sbag1
(g2
g3
Ntp3815
Rp3816
(dp3817
g7
g8
sg9
V3TX9T2ZCB92WGVP71SPC4D0X1W3WZQ
p3818
sbag1
(g2
g3
Ntp3819
Rp3820
(dp3821
g7
g8
sg9
V32CXT5U14G444VZFX2AY95IWH7LU8K
p3822
sbag1
(g2
g3
Ntp3823
Rp3824
(dp3825
g7
g8
sg9
V3H4IKZHALBJCCC2A63NVD7GXY7SNNC
p3826
sbag1
(g2
g3
Ntp3827
Rp3828
(dp3829
g7
g8
sg9
V3TFJJUELSHQXWMGQVUGX58JNO8N2CI
p3830
sbag1
(g2
g3
Ntp3831
Rp3832
(dp3833
g7
g8
sg9
V34O39PNDK69VQ155WKZ3VWLDIE2RBC
p3834
sbag1
(g2
g3
Ntp3835
Rp3836
(dp3837
g7
g8
sg9
V3ZXV7Q5FJBPHXGS2JPV4PRDCXCSFCF
p3838
sbag1
(g2
g3
Ntp3839
Rp3840
(dp3841
g7
g8
sg9
V3OJX0UFJ0Z84I0IP2UGC91D71D3U99
p3842
sbag1
(g2
g3
Ntp3843
Rp3844
(dp3845
g7
g8
sg9
V35A1YQPVFEHG8MLD5NEHEIKULNYI51
p3846
sbag1
(g2
g3
Ntp3847
Rp3848
(dp3849
g7
g8
sg9
V3BFF0DJK8XD7N2ZZBVQTL0WVAOMSTU
p3850
sbag1
(g2
g3
Ntp3851
Rp3852
(dp3853
g7
g8
sg9
V3PMR2DOWOO2M0FMYKYCDKHABG5X549
p3854
sbag1
(g2
g3
Ntp3855
Rp3856
(dp3857
g7
g8
sg9
V3MWOYZD5WVPUUX2M7IN8SWG2OHXNOR
p3858
sbag1
(g2
g3
Ntp3859
Rp3860
(dp3861
g7
g8
sg9
V3UUSLRKAUL4ENFJA12S3L5IDKOLD79
p3862
sbag1
(g2
g3
Ntp3863
Rp3864
(dp3865
g7
g8
sg9
V3WGZLY9VCHNINTOTB7K9Z5E8V8RD8W
p3866
sbag1
(g2
g3
Ntp3867
Rp3868
(dp3869
g7
g8
sg9
V3N5YJ55YXG45ST8LXZIQR1WXZ0TANF
p3870
sbag1
(g2
g3
Ntp3871
Rp3872
(dp3873
g7
g8
sg9
V3VIVIU06FKDEGT6JXMV3VKVG7HNMIS
p3874
sbag1
(g2
g3
Ntp3875
Rp3876
(dp3877
g7
g8
sg9
V3VJ4PFXFJ38INJSUU0UC5WOR7VLUAO
p3878
sbag1
(g2
g3
Ntp3879
Rp3880
(dp3881
g7
g8
sg9
V32ZCLEW0BZLGW7N27K8VOP4BP1NJPX
p3882
sbag1
(g2
g3
Ntp3883
Rp3884
(dp3885
g7
g8
sg9
V38DCH97KHH31WJOH7XNKOUULUX9JQO
p3886
sbag1
(g2
g3
Ntp3887
Rp3888
(dp3889
g7
g8
sg9
V3HEA4ZVWVDN4WYQYY3VNP9GPG1S55E
p3890
sbag1
(g2
g3
Ntp3891
Rp3892
(dp3893
g7
g8
sg9
V3INZSNUD80RI1Y73GZQNZ19JFE9D9L
p3894
sbag1
(g2
g3
Ntp3895
Rp3896
(dp3897
g7
g8
sg9
V3ZXNP4Z39RMXLR72EJQR4IQITXNL7X
p3898
sbag1
(g2
g3
Ntp3899
Rp3900
(dp3901
g7
g8
sg9
V36QZ6V1589EMNFEOB0G3QWIXT2TSUL
p3902
sbag1
(g2
g3
Ntp3903
Rp3904
(dp3905
g7
g8
sg9
V311HQEI8RSHHQGO6TKH0CX1G86V7Z2
p3906
sbag1
(g2
g3
Ntp3907
Rp3908
(dp3909
g7
g8
sg9
V3VLL1PIENQPOBMG5A6Y2NJNBYU4ZOH
p3910
sbag1
(g2
g3
Ntp3911
Rp3912
(dp3913
g7
g8
sg9
V31JUPBOORN51L5CLOOIXIIMD4HTL8K
p3914
sbag1
(g2
g3
Ntp3915
Rp3916
(dp3917
g7
g8
sg9
V3SX4X51T80ANAE8XYEI36QW2PAYAOU
p3918
sbag1
(g2
g3
Ntp3919
Rp3920
(dp3921
g7
g8
sg9
V32ZCLEW0BZLGW7N27K8VOP4BP1NPJ3
p3922
sbag1
(g2
g3
Ntp3923
Rp3924
(dp3925
g7
g8
sg9
V3I01FDIL6M971EM4VQB8PE1598Z2DI
p3926
sbag1
(g2
g3
Ntp3927
Rp3928
(dp3929
g7
g8
sg9
V3NQUW096N691ZAVVTGOBIEHOONBL99
p3930
sbag1
(g2
g3
Ntp3931
Rp3932
(dp3933
g7
g8
sg9
V3VW0145YLYDAB4QPF4G37LAGKWCMJ4
p3934
sbag1
(g2
g3
Ntp3935
Rp3936
(dp3937
g7
g8
sg9
V39XCQ6V3KY50F2QC3M5SHFUPCW356U
p3938
sbag1
(g2
g3
Ntp3939
Rp3940
(dp3941
g7
g8
sg9
V3BDORL6HKKEE06XBAKVY6GRV0Z2RCJ
p3942
sbag1
(g2
g3
Ntp3943
Rp3944
(dp3945
g7
g8
sg9
V3PN6H8C9R4RW6HH8854NVWK3LWRDA0
p3946
sbag1
(g2
g3
Ntp3947
Rp3948
(dp3949
g7
g8
sg9
V34YWR3PJ28BE3AO773860XBISRQX0S
p3950
sbag1
(g2
g3
Ntp3951
Rp3952
(dp3953
g7
g8
sg9
V391JB9X4ZY95MOW7XPGF80ATZLCMK3
p3954
sbag1
(g2
g3
Ntp3955
Rp3956
(dp3957
g7
g8
sg9
V3VQTAXTYN3MN6TXM0EU8078XPD6UBJ
p3958
sbag1
(g2
g3
Ntp3959
Rp3960
(dp3961
g7
g8
sg9
V30Y6N4AHYPXO5Y3PAGQ9QM9DLZERDJ
p3962
sbag1
(g2
g3
Ntp3963
Rp3964
(dp3965
g7
g8
sg9
V3UQ1LLR26A9F4T50LM2BE9S8U5TLAO
p3966
sbag1
(g2
g3
Ntp3967
Rp3968
(dp3969
g7
g8
sg9
V3XT3KXP24ZZCRQLRA6OM6OYUHI9I6H
p3970
sbag1
(g2
g3
Ntp3971
Rp3972
(dp3973
g7
g8
sg9
V3SZYX62S5G1JJ24HMWAKNTUL77N57T
p3974
sbag1
(g2
g3
Ntp3975
Rp3976
(dp3977
g7
g8
sg9
V37G6BXQPLQMTL32PTWCTREHTPQEQED
p3978
sbag1
(g2
g3
Ntp3979
Rp3980
(dp3981
g7
g8
sg9
V3G4VVJO6PZHB7RTKP587P44O4QNPK2
p3982
sbag1
(g2
g3
Ntp3983
Rp3984
(dp3985
g7
g8
sg9
V3NRZ1LDP7W76WMS6P6BHCJS18Z0ZPY
p3986
sbag1
(g2
g3
Ntp3987
Rp3988
(dp3989
g7
g8
sg9
V3UXQ63NLAANKN3ASR0279KCECNELBJ
p3990
sbag1
(g2
g3
Ntp3991
Rp3992
(dp3993
g7
g8
sg9
V33KGGVH24UIEAZ9P3MC6E2USXJWX1V
p3994
sbag1
(g2
g3
Ntp3995
Rp3996
(dp3997
g7
g8
sg9
V3PCPFX4U40RLRH2LO7WZ9W2T1RTQFV
p3998
sbag1
(g2
g3
Ntp3999
Rp4000
(dp4001
g7
g8
sg9
V33IXYHIZB5JCTK04RLMSVWJQ9K02EB
p4002
sbag1
(g2
g3
Ntp4003
Rp4004
(dp4005
g7
g8
sg9
V3PUV2Q8SV451PRM0EJ4JQ7493ECDBV
p4006
sbag1
(g2
g3
Ntp4007
Rp4008
(dp4009
g7
g8
sg9
V3E22YV8GG17CFXENMI0NHWLSYMTNP8
p4010
sbag1
(g2
g3
Ntp4011
Rp4012
(dp4013
g7
g8
sg9
V3LEG2HW4UFO4ZY00MW6YDE4QLLF2FT
p4014
sbag1
(g2
g3
Ntp4015
Rp4016
(dp4017
g7
g8
sg9
V3LVTFB9DE5JR5HYGZR2HRH2526TQGU
p4018
sbag1
(g2
g3
Ntp4019
Rp4020
(dp4021
g7
g8
sg9
V375VSR8FVWAR8Z8L2YF6HESG9HOZRQ
p4022
sbag1
(g2
g3
Ntp4023
Rp4024
(dp4025
g7
g8
sg9
V3P458N04Q1ILZKRLMQCKJL4XPPAX2C
p4026
sbag1
(g2
g3
Ntp4027
Rp4028
(dp4029
g7
g8
sg9
V3EKTG13IZU4G6UEPIPSGN0N8OLHML6
p4030
sbag1
(g2
g3
Ntp4031
Rp4032
(dp4033
g7
g8
sg9
V371Q3BEXDHA39E8YHNFB7OXCVJ7ZSE
p4034
sbag1
(g2
g3
Ntp4035
Rp4036
(dp4037
g7
g8
sg9
V3LG268AV387TX4HP6B1TW4RYLBFREC
p4038
sbag1
(g2
g3
Ntp4039
Rp4040
(dp4041
g7
g8
sg9
V34ZTTGSNJXP55DTRJXKZCHE6H66QHT
p4042
sbag1
(g2
g3
Ntp4043
Rp4044
(dp4045
g7
g8
sg9
V32FESTC2NHR6GYPSEEQ3BREF7Y6UCQ
p4046
sbag1
(g2
g3
Ntp4047
Rp4048
(dp4049
g7
g8
sg9
V3WJGKMRWVIAKZWE6SJ0E1RARLZCDC2
p4050
sbag1
(g2
g3
Ntp4051
Rp4052
(dp4053
g7
g8
sg9
V39TX062QX1PAK2N4QQQP2V9PV3AX3N
p4054
sbag1
(g2
g3
Ntp4055
Rp4056
(dp4057
g7
g8
sg9
V3HA5ODM5KATM0U3OGQQ8MIKG792SVA
p4058
sbag1
(g2
g3
Ntp4059
Rp4060
(dp4061
g7
g8
sg9
V386T3MLZLNWOO9NZZVWEKYUP1JI80Y
p4062
sbag1
(g2
g3
Ntp4063
Rp4064
(dp4065
g7
g8
sg9
V3GVPRXWRPHVVVQZWTGTEC2YQCTTI7G
p4066
sbag1
(g2
g3
Ntp4067
Rp4068
(dp4069
g7
g8
sg9
V3YLPJ8OXX8EV2Y68Q4V8C01V936X48
p4070
sbag1
(g2
g3
Ntp4071
Rp4072
(dp4073
g7
g8
sg9
V31GN6YMHLPTZFJ3T60V48K3UEI4SWK
p4074
sbag1
(g2
g3
Ntp4075
Rp4076
(dp4077
g7
g8
sg9
V33CLA8O0MICL3IHL1MLZEMCYXCURFU
p4078
sbag1
(g2
g3
Ntp4079
Rp4080
(dp4081
g7
g8
sg9
V37Y5RYYI0P6E4J8JG5RQA3H1NKASXD
p4082
sbag1
(g2
g3
Ntp4083
Rp4084
(dp4085
g7
g8
sg9
V37SDSEDIN93OVY8HVE0EY3DZ6BO811
p4086
sbag1
(g2
g3
Ntp4087
Rp4088
(dp4089
g7
g8
sg9
V3HXK2V1N4KGADYWVXGCGVZ42M0F2GS
p4090
sbag1
(g2
g3
Ntp4091
Rp4092
(dp4093
g7
g8
sg9
V31MBOZ6PAOS3X82Y50Y2K4IWU8ELCQ
p4094
sbag1
(g2
g3
Ntp4095
Rp4096
(dp4097
g7
g8
sg9
V3Q7TKIAPOTBD208C5WTD4A0EF8QLDQ
p4098
sbag1
(g2
g3
Ntp4099
Rp4100
(dp4101
g7
g8
sg9
V3QD8LUVX4XZDYHA849EIHS799Z1X5D
p4102
sbag1
(g2
g3
Ntp4103
Rp4104
(dp4105
g7
g8
sg9
V3KG2UQJ0MJPXF9F2MVFCH1B23IFNQZ
p4106
sbag1
(g2
g3
Ntp4107
Rp4108
(dp4109
g7
g8
sg9
V3ZVPAMTJWN4RHIDGC6RHW7CAYRURGT
p4110
sbag1
(g2
g3
Ntp4111
Rp4112
(dp4113
g7
g8
sg9
V3XUY87HIVPF0CCWAI1TVND2XOQ7MM8
p4114
sbag1
(g2
g3
Ntp4115
Rp4116
(dp4117
g7
g8
sg9
V37ZQELHEQ0Z6UUHAU28V0SRXTGHMN8
p4118
sbag1
(g2
g3
Ntp4119
Rp4120
(dp4121
g7
g8
sg9
V3MD8CKRQZZO18K3HKCCKTK4QQJBJRP
p4122
sbag1
(g2
g3
Ntp4123
Rp4124
(dp4125
g7
g8
sg9
V3IWA71V4TIH9HLAM9SON9YL95UCX6T
p4126
sbag1
(g2
g3
Ntp4127
Rp4128
(dp4129
g7
g8
sg9
V3CRWSLD91K5OCFHMVH88FHR2JQMMON
p4130
sbag1
(g2
g3
Ntp4131
Rp4132
(dp4133
g7
g8
sg9
V3R0WOCG21MAGLQV6EALEVXWXSYIUDQ
p4134
sbag1
(g2
g3
Ntp4135
Rp4136
(dp4137
g7
g8
sg9
V3YGYP13641AXRAU2ZA4CMRL7Z4HNR0
p4138
sbag1
(g2
g3
Ntp4139
Rp4140
(dp4141
g7
g8
sg9
V301KG0KX9CMODUR6HMUYGZG310S2HR
p4142
sbag1
(g2
g3
Ntp4143
Rp4144
(dp4145
g7
g8
sg9
V3L4YG5VW9NTU4OKKSFVPLXS96ZODD2
p4146
sbag1
(g2
g3
Ntp4147
Rp4148
(dp4149
g7
g8
sg9
V34HEO7RUG6VQ7R0DQ6Z70L170XIAR3
p4150
sbag1
(g2
g3
Ntp4151
Rp4152
(dp4153
g7
g8
sg9
V3CIS7GGG65KLDW96A5WY1FEISAJUEJ
p4154
sbag1
(g2
g3
Ntp4155
Rp4156
(dp4157
g7
g8
sg9
V3M93N4X8HKOD9Z3UZ1CPJU9MCLUJSD
p4158
sbag1
(g2
g3
Ntp4159
Rp4160
(dp4161
g7
g8
sg9
V3BPP3MA3TCLIU6MC1R4XASIZFKRLEJ
p4162
sbag1
(g2
g3
Ntp4163
Rp4164
(dp4165
g7
g8
sg9
V3IHWR4LC7DEZV44F3LLKQ2ULNDZI83
p4166
sbag1
(g2
g3
Ntp4167
Rp4168
(dp4169
g7
g8
sg9
V31YWE12TE0DSLLORS2TFFCL505WX7S
p4170
sbag1
(g2
g3
Ntp4171
Rp4172
(dp4173
g7
g8
sg9
V3TC2K6WK9G3VKJQDEI0S3MN4YH282I
p4174
sbag1
(g2
g3
Ntp4175
Rp4176
(dp4177
g7
g8
sg9
V3TL87MO8CMQA0KM8W2O3SA3ZRL6LF1
p4178
sbag1
(g2
g3
Ntp4179
Rp4180
(dp4181
g7
g8
sg9
V3PGQRAZX02L34OYTL1DSTHOAPQ4SYJ
p4182
sbag1
(g2
g3
Ntp4183
Rp4184
(dp4185
g7
g8
sg9
V3UEBBGULPFPDJA925GG4JXZI4BYUF1
p4186
sbag1
(g2
g3
Ntp4187
Rp4188
(dp4189
g7
g8
sg9
V3LN50BUKPVCMRXB2A5K844H3TQSPL5
p4190
sbag1
(g2
g3
Ntp4191
Rp4192
(dp4193
g7
g8
sg9
V3IZPORCT1FA5HE8RWC9ZH7OBDR7RHS
p4194
sbag1
(g2
g3
Ntp4195
Rp4196
(dp4197
g7
g8
sg9
V3P4C70TRMRIGEKI37MULAV3BS06LG0
p4198
sbag1
(g2
g3
Ntp4199
Rp4200
(dp4201
g7
g8
sg9
V33W1NHWFYHM4OELD6NK1HTTYX2LZT3
p4202
sbag1
(g2
g3
Ntp4203
Rp4204
(dp4205
g7
g8
sg9
V341YLJU21I0O9P2QN4CJGBHI1D72IK
p4206
sbag1
(g2
g3
Ntp4207
Rp4208
(dp4209
g7
g8
sg9
V34OWYT6U3WIZ99NP8DRYQYPW7JHI9S
p4210
sbag1
(g2
g3
Ntp4211
Rp4212
(dp4213
g7
g8
sg9
V3GS542CVJVONXLSA1T841PLR2XB595
p4214
sbag1
(g2
g3
Ntp4215
Rp4216
(dp4217
g7
g8
sg9
V3I4E7AFQ2K0EOZG9O1HFTZ58E48JT2
p4218
sbag1
(g2
g3
Ntp4219
Rp4220
(dp4221
g7
g8
sg9
V33K3E8REWWWWLZTA27LLTCH0BP2X8F
p4222
sbag1
(g2
g3
Ntp4223
Rp4224
(dp4225
g7
g8
sg9
V38Z7YZ2SB335184BPF2KCTFLHJLQIM
p4226
sbag1
(g2
g3
Ntp4227
Rp4228
(dp4229
g7
g8
sg9
V3QXFBUZ4ZKHJXA5XG0MM1IZU5QYUG0
p4230
sbag1
(g2
g3
Ntp4231
Rp4232
(dp4233
g7
g8
sg9
V3Y7LTZE0YTNJOR026SABMPF0GGSZUU
p4234
sbag1
(g2
g3
Ntp4235
Rp4236
(dp4237
g7
g8
sg9
V36MUZ9VAE63ZWUYKOA69RFAU6BPDEV
p4238
sbag1
(g2
g3
Ntp4239
Rp4240
(dp4241
g7
g8
sg9
V388CL5C1RJOUEGDERSC3VVFC70JLHZ
p4242
sbag1
(g2
g3
Ntp4243
Rp4244
(dp4245
g7
g8
sg9
V391FPZIE4CNXX6080644MIBVKQBUHZ
p4246
sbag1
(g2
g3
Ntp4247
Rp4248
(dp4249
g7
g8
sg9
V3OID399FXG8R28YGJLQF9XVUIC4FDF
p4250
sbag1
(g2
g3
Ntp4251
Rp4252
(dp4253
g7
g8
sg9
V3909MD9T2ZIWUECGFG1ZFFDFIO5FE8
p4254
sbag1
(g2
g3
Ntp4255
Rp4256
(dp4257
g7
g8
sg9
V34D9ZRXCYRV2860Q5VZCQV63MZ1ASR
p4258
sbag1
(g2
g3
Ntp4259
Rp4260
(dp4261
g7
g8
sg9
V3BO3NEOQM0IDESXU0J5YMT0GD1ZIA7
p4262
sbag1
(g2
g3
Ntp4263
Rp4264
(dp4265
g7
g8
sg9
V308KJXFUJR73N6D5UV42002POIFATG
p4266
sbag1
(g2
g3
Ntp4267
Rp4268
(dp4269
g7
g8
sg9
V34XASH8KLQN6XFTNAHLN4HWSTVIMP4
p4270
sbag1
(g2
g3
Ntp4271
Rp4272
(dp4273
g7
g8
sg9
V3ABAOCJ4R85RXRU2AU0C4MM2YR4MQV
p4274
sbag1
(g2
g3
Ntp4275
Rp4276
(dp4277
g7
g8
sg9
V3D1UCPY6GGAK51MWIIEXMWSW4V283T
p4278
sbag1
(g2
g3
Ntp4279
Rp4280
(dp4281
g7
g8
sg9
V3C8QQOM6JP2UABOYXAUOV7GR7DYLIS
p4282
sbag1
(g2
g3
Ntp4283
Rp4284
(dp4285
g7
g8
sg9
V3RWSQDNYL9NO0SCCARL5XXYFUPKFFQ
p4286
sbag1
(g2
g3
Ntp4287
Rp4288
(dp4289
g7
g8
sg9
V3NFWQRSHVEFUES87LBRNFIYRV4KFGP
p4290
sbag1
(g2
g3
Ntp4291
Rp4292
(dp4293
g7
g8
sg9
V3PR3LXCWSF0WZ4CK7ZRZT8CBVVKX94
p4294
sbag1
(g2
g3
Ntp4295
Rp4296
(dp4297
g7
g8
sg9
V38DCH97KHH31WJOH7XNKOUULUYAQJY
p4298
sbag1
(g2
g3
Ntp4299
Rp4300
(dp4301
g7
g8
sg9
V3DFYDSXB2W1TOCVYO67PYVRAXIFJUT
p4302
sbag1
(g2
g3
Ntp4303
Rp4304
(dp4305
g7
g8
sg9
V34XASH8KLQN6XFTNAHLN4HWSTVIPM7
p4306
sbag1
(g2
g3
Ntp4307
Rp4308
(dp4309
g7
g8
sg9
V32TMVRKDGNZ5NX50IWJGW1K2IVY84E
p4310
sbag1
(g2
g3
Ntp4311
Rp4312
(dp4313
g7
g8
sg9
V3OID399FXG8R28YGJLQF9XVUIC4DFD
p4314
sbag1
(g2
g3
Ntp4315
Rp4316
(dp4317
g7
g8
sg9
V36JW4WBR06L8EO3I5H950IASA4XFHO
p4318
sbag1
(g2
g3
Ntp4319
Rp4320
(dp4321
g7
g8
sg9
V3BVS8WK9Q0WIX22M6X5UH4KMVJKIB2
p4322
sbag1
(g2
g3
Ntp4323
Rp4324
(dp4325
g7
g8
sg9
V371Q3BEXDHA39E8YHNFB7OXCVK8SZA
p4326
sbag1
(g2
g3
Ntp4327
Rp4328
(dp4329
g7
g8
sg9
V34F34TZU7W0K40MW5MXJSCWIESW2JW
p4330
sbag1
(g2
g3
Ntp4331
Rp4332
(dp4333
g7
g8
sg9
V3MZ3TAMYTLO5D9JB2URKHJPQD4MRIL
p4334
sbag1
(g2
g3
Ntp4335
Rp4336
(dp4337
g7
g8
sg9
V38F60IALAGI7MTFN2T79BUQCFW3T08
p4338
sbag1
(g2
g3
Ntp4339
Rp4340
(dp4341
g7
g8
sg9
V3NSCTNUR2ZO1242FTZM4XKWB8FT5AK
p4342
sbag1
(g2
g3
Ntp4343
Rp4344
(dp4345
g7
g8
sg9
V3UL5XDRDNCKNJG90W12Q1TQGIRT85J
p4346
sbag1
(g2
g3
Ntp4347
Rp4348
(dp4349
g7
g8
sg9
V3D1TUISJWI1XT1BS6OMPMUCAK3QUIS
p4350
sbag1
(g2
g3
Ntp4351
Rp4352
(dp4353
g7
g8
sg9
V3IKMEYR0LWWFFKSEN7XVTRWVTHW2KV
p4354
sbag1
(g2
g3
Ntp4355
Rp4356
(dp4357
g7
g8
sg9
V3YCT0L9OMMA9SPUFEZ4HC1Q3L60NSO
p4358
sbag1
(g2
g3
Ntp4359
Rp4360
(dp4361
g7
g8
sg9
V3E22YV8GG17CFXENMI0NHWLSYLSPN7
p4362
sbag1
(g2
g3
Ntp4363
Rp4364
(dp4365
g7
g8
sg9
V371QPA24C2P7TI05YCB9PZ9MKO9T1B
p4366
sbag1
(g2
g3
Ntp4367
Rp4368
(dp4369
g7
g8
sg9
V3NZ1E5QA6Z26LE77ZDM0SVGHQXE5BF
p4370
sbag1
(g2
g3
Ntp4371
Rp4372
(dp4373
g7
g8
sg9
V3OZ4VAIBEXGT1RKYTWHUUHTTBPOJVI
p4374
sbag1
(g2
g3
Ntp4375
Rp4376
(dp4377
g7
g8
sg9
V3MD8CKRQZZO18K3HKCCKTK4QQJBRJX
p4378
sbag1
(g2
g3
Ntp4379
Rp4380
(dp4381
g7
g8
sg9
V3CMV9YRYP32Q5M84FSFO78VRKSNLJ4
p4382
sbag1
(g2
g3
Ntp4383
Rp4384
(dp4385
g7
g8
sg9
V3UOMW19E6D7PVJZDDDIV3FMZ8IE5CM
p4386
sbag1
(g2
g3
Ntp4387
Rp4388
(dp4389
g7
g8
sg9
V3M47JKRKCX2J2K9E1KCVTZ4GEM486Z
p4390
sbag1
(g2
g3
Ntp4391
Rp4392
(dp4393
g7
g8
sg9
V3U74KRR67MMA7P7U3Z97M6MPNPENTD
p4394
sbag1
(g2
g3
Ntp4395
Rp4396
(dp4397
g7
g8
sg9
V3QREJ3J433YLG6EMXDF08NV4ZHNLK3
p4398
sbag1
(g2
g3
Ntp4399
Rp4400
(dp4401
g7
g8
sg9
V3IKDQS3DQE1177USKX1PSOQ4D4KIC9
p4402
sbag1
(g2
g3
Ntp4403
Rp4404
(dp4405
g7
g8
sg9
V3J94SKDEKIQZ0B5RD9D6NL4HTIQ5DM
p4406
sbag1
(g2
g3
Ntp4407
Rp4408
(dp4409
g7
g8
sg9
V3JU8CV4BRLDUXIEZNX00WLLXOVXPOM
p4410
sbag1
(g2
g3
Ntp4411
Rp4412
(dp4413
g7
g8
sg9
V30IRMPJWDZKWJ49Z2XCWUZ4358BRKW
p4414
sbag1
(g2
g3
Ntp4415
Rp4416
(dp4417
g7
g8
sg9
V3OB6JN3A9QQR9S92N9PC9CW7UD6MRW
p4418
sbag1
(g2
g3
Ntp4419
Rp4420
(dp4421
g7
g8
sg9
V3TLFH2L6Y9PEI3I1HGBNUIJRCUNT2S
p4422
sbag1
(g2
g3
Ntp4423
Rp4424
(dp4425
g7
g8
sg9
V3AJA9FLWSCZ8AJE2BZRQ0UB7AHCFIH
p4426
sbag1
(g2
g3
Ntp4427
Rp4428
(dp4429
g7
g8
sg9
V375VMB7D4JKBCZ06KTW0CU8MY4WID9
p4430
sbag1
(g2
g3
Ntp4431
Rp4432
(dp4433
g7
g8
sg9
V3VJ4PFXFJ38INJSUU0UC5WOR7WMAU7
p4434
sbag1
(g2
g3
Ntp4435
Rp4436
(dp4437
g7
g8
sg9
V3WRAAIUSBJ0A4NMPZ55ZP3NV1D2XAJ
p4438
sbag1
(g2
g3
Ntp4439
Rp4440
(dp4441
g7
g8
sg9
V34R0BODSP104SHJR94OQT3M2TUR5EF
p4442
sbag1
(g2
g3
Ntp4443
Rp4444
(dp4445
g7
g8
sg9
V356TQKY9XFY26KNJKUHNZD4C9XO87Y
p4446
sbag1
(g2
g3
Ntp4447
Rp4448
(dp4449
g7
g8
sg9
V3511RHPADVF73ARHNXOX9ZHIU8GRLZ
p4450
sbag1
(g2
g3
Ntp4451
Rp4452
(dp4453
g7
g8
sg9
V3OB6JN3A9QQR9S92N9PC9CW7UD6RM1
p4454
sbag1
(g2
g3
Ntp4455
Rp4456
(dp4457
g7
g8
sg9
V3O71U79SRBQ3A79F2YPHZM13GFPMSK
p4458
sbag1
(g2
g3
Ntp4459
Rp4460
(dp4461
g7
g8
sg9
V37S0QRNUFBH66YS2UZ9TDD07KHU88L
p4462
sbag1
(g2
g3
Ntp4463
Rp4464
(dp4465
g7
g8
sg9
V3B0MCRZMBRVCIIQ02XDFLLQNY0TPP3
p4466
sbag1
(g2
g3
Ntp4467
Rp4468
(dp4469
g7
g8
sg9
V3K2CEDRACB24P7MURYU79RXPIY3MT9
p4470
sbag1
(g2
g3
Ntp4471
Rp4472
(dp4473
g7
g8
sg9
V3FDWKV9VCN3JPK1JR3KHENJR1CAMU0
p4474
sbag1
(g2
g3
Ntp4475
Rp4476
(dp4477
g7
g8
sg9
V3DFYDSXB2W1TOCVYO67PYVRAXIFUJ4
p4478
sbag1
(g2
g3
Ntp4479
Rp4480
(dp4481
g7
g8
sg9
V3PIOQ99R7YNP72MJ34ZHR28R63LNU4
p4482
sbag1
(g2
g3
Ntp4483
Rp4484
(dp4485
g7
g8
sg9
V3VAOOVPI3ZTW0CW4IDR1NN8JOHSLL6
p4486
sbag1
(g2
g3
Ntp4487
Rp4488
(dp4489
g7
g8
sg9
V3SNR5F7R92UG45E6GO7KICQ7YGXIE2
p4490
sbag1
(g2
g3
Ntp4491
Rp4492
(dp4493
g7
g8
sg9
V3TZ0XG8CBUL6K3BCZRF7D9VI4NC89A
p4494
sbag1
(g2
g3
Ntp4495
Rp4496
(dp4497
g7
g8
sg9
V3HEM8MA6H9DXIURF2AS4LQGX3WFPQU
p4498
sbag1
(g2
g3
Ntp4499
Rp4500
(dp4501
g7
g8
sg9
V39RRBHZ0AU2J16P2BIKGIBHJUN1ZVJ
p4502
sbag1
(g2
g3
Ntp4503
Rp4504
(dp4505
g7
g8
sg9
V3EKTG13IZU4G6UEPIPSGN0N8OMILM8
p4506
sbag1
(g2
g3
Ntp4507
Rp4508
(dp4509
g7
g8
sg9
V385MDVINFCG6GGK3J6MQGJC7IYQJWS
p4510
sbag1
(g2
g3
Ntp4511
Rp4512
(dp4513
g7
g8
sg9
V3VEI3XUCZRYXUV6FFPH4QGQ2ZIHPRV
p4514
sbag1
(g2
g3
Ntp4515
Rp4516
(dp4517
g7
g8
sg9
V3VADEH0UHCY9VA6SUEH9GQVYLK0PSJ
p4518
sbag1
(g2
g3
Ntp4519
Rp4520
(dp4521
g7
g8
sg9
V3WYZV0QBFJEFNXRH5J5VKE71JVNXBE
p4522
sbag1
(g2
g3
Ntp4523
Rp4524
(dp4525
g7
g8
sg9
V30Z7M1Q8UYLKPMLHRXT79462A5U8AP
p4526
sbag1
(g2
g3
Ntp4527
Rp4528
(dp4529
g7
g8
sg9
V3EN4YVUOUCTL5GPTTBICI2QER0WJXL
p4530
sbag1
(g2
g3
Ntp4531
Rp4532
(dp4533
g7
g8
sg9
V3N3WJQXELSRQZQAW879W8R9AIH12LY
p4534
sbag1
(g2
g3
Ntp4535
Rp4536
(dp4537
g7
g8
sg9
V36D1BWBEHN2A58SH8JAB84OZIMR2M0
p4538
sbag1
(g2
g3
Ntp4539
Rp4540
(dp4541
g7
g8
sg9
V363A7XIFV4NI0YHUZQ4H1IQAL3VAVW
p4542
sbag1
(g2
g3
Ntp4543
Rp4544
(dp4545
g7
g8
sg9
V302U8RURJZ2PKHBJ8U9MNOAAKAUNVT
p4546
sbag1
(g2
g3
Ntp4547
Rp4548
(dp4549
g7
g8
sg9
V3W5PY7V3UP8A5LF3Y74E1GXNT6QJYR
p4550
sbag1
(g2
g3
Ntp4551
Rp4552
(dp4553
g7
g8
sg9
V3KLL7H3EGD2XALP85WE9I4DEYYLVHS
p4554
sbag1
(g2
g3
Ntp4555
Rp4556
(dp4557
g7
g8
sg9
V3AXFSPQOYQZ45UY8THCQCVQ7NW1FJT
p4558
sbag1
(g2
g3
Ntp4559
Rp4560
(dp4561
g7
g8
sg9
V306W7JMRYYZP8WQ9XBT34FQ8SNF8BK
p4562
sbag1
(g2
g3
Ntp4563
Rp4564
(dp4565
g7
g8
sg9
V3GITHABACYMGNQDHKKPBLJDZNC12N0
p4566
sbag1
(g2
g3
Ntp4567
Rp4568
(dp4569
g7
g8
sg9
V3OPLMF3EU5OMOCZPUQ7G0FC8TCSLN8
p4570
sbag1
(g2
g3
Ntp4571
Rp4572
(dp4573
g7
g8
sg9
V3DA79LNS59W33LEKLGPSDSOJI8NT33
p4574
sbag1
(g2
g3
Ntp4575
Rp4576
(dp4577
g7
g8
sg9
V3MNJFORX8B5WYVJN4F8WBL725V65FX
p4578
sbag1
(g2
g3
Ntp4579
Rp4580
(dp4581
g7
g8
sg9
V3OLZC0DJ8JGX6G0SBEWUIGETYB0VIL
p4582
sbag1
(g2
g3
Ntp4583
Rp4584
(dp4585
g7
g8
sg9
V3THR0FZ95PU46XZ1V57TF4CDJMXLON
p4586
sbag1
(g2
g3
Ntp4587
Rp4588
(dp4589
g7
g8
sg9
V3O2Y2UIUCQVZGE4QB2C2DAQK2L1FKS
p4590
sbag1
(g2
g3
Ntp4591
Rp4592
(dp4593
g7
g8
sg9
V3I6NF2WGIGX2CVFIFZEET67E6A65GW
p4594
sbag1
(g2
g3
Ntp4595
Rp4596
(dp4597
g7
g8
sg9
V31ANT7FQN83GCRATZ5WWE6JFLAJ5HV
p4598
sbag1
(g2
g3
Ntp4599
Rp4600
(dp4601
g7
g8
sg9
V3K8CQCU3KE22Z6BOY4EI9QTORJWNW3
p4602
sbag1
(g2
g3
Ntp4603
Rp4604
(dp4605
g7
g8
sg9
V3TX9T2ZCB92WGVP71SPC4D0X1W3ZWT
p4606
sbag1
(g2
g3
Ntp4607
Rp4608
(dp4609
g7
g8
sg9
V3LAZVA75NISY5BDTLZPO08D4DM62OF
p4610
sbag1
(g2
g3
Ntp4611
Rp4612
(dp4613
g7
g8
sg9
V335HHSX8CD6BG4PMEBEFCI77YRHDHB
p4614
sbag1
(g2
g3
Ntp4615
Rp4616
(dp4617
g7
g8
sg9
V37VHPF5VYC48I1IFBBPYFZWQA8F8CR
p4618
sbag1
(g2
g3
Ntp4619
Rp4620
(dp4621
g7
g8
sg9
V3WGZLY9VCHNINTOTB7K9Z5E8V8R8DR
p4622
sbag1
(g2
g3
Ntp4623
Rp4624
(dp4625
g7
g8
sg9
V3RKHNXPHGWXOZW1G6R71ZARNC7FUK3
p4626
sbag1
(g2
g3
Ntp4627
Rp4628
(dp4629
g7
g8
sg9
V375VMB7D4JKBCZ06KTW0CU8MY4WDI4
p4630
sbag1
(g2
g3
Ntp4631
Rp4632
(dp4633
g7
g8
sg9
V3MIVREZQVHZW73UZPINWP9UY9NAQKX
p4634
sbag1
(g2
g3
Ntp4635
Rp4636
(dp4637
g7
g8
sg9
V3HYV4299H0XNFZ2T72VT5NWTVKS8EK
p4638
sbag1
(g2
g3
Ntp4639
Rp4640
(dp4641
g7
g8
sg9
V3ZFRE2BDQ9FB5VUXBXLY6WE4AY9ZXM
p4642
sbag1
(g2
g3
Ntp4643
Rp4644
(dp4645
g7
g8
sg9
V33NKDW9FFXJYX2JNJJ1QVYDJ1GNXCL
p4646
sbag1
(g2
g3
Ntp4647
Rp4648
(dp4649
g7
g8
sg9
V3QQUBC64ZEFHO6GE89A4B97V0L2NXW
p4650
sbag1
(g2
g3
Ntp4651
Rp4652
(dp4653
g7
g8
sg9
V3TL87MO8CMQA0KM8W2O3SA3ZRL6FLV
p4654
sbag1
(g2
g3
Ntp4655
Rp4656
(dp4657
g7
g8
sg9
V3Q9SPIIRWJNVFNHZP09DNK9OSCXAW6
p4658
sbag1
(g2
g3
Ntp4659
Rp4660
(dp4661
g7
g8
sg9
V3QX22DUVOOIJ2ZQJWTUMA9LAFJJMVP
p4662
sbag1
(g2
g3
Ntp4663
Rp4664
(dp4665
g7
g8
sg9
V3MA5N0ATTCC1R0QL1RM2HYCKXN4KW6
p4666
sbag1
(g2
g3
Ntp4667
Rp4668
(dp4669
g7
g8
sg9
V3IHWR4LC7DEZV44F3LLKQ2ULNCCI8E
p4670
sbag1
(g2
g3
Ntp4671
Rp4672
(dp4673
g7
g8
sg9
V3HEADTGN2PTAZF3B11Q3W8FKL6WVR0
p4674
sbag1
(g2
g3
Ntp4675
Rp4676
(dp4677
g7
g8
sg9
V31D0ZWOD0A027XGEWTGSGP0KR6V0A5
p4678
sbag1
(g2
g3
Ntp4679
Rp4680
(dp4681
g7
g8
sg9
V389A2A304OJQ0CDCG7CJMKQ8R9G0C7
p4682
sbag1
(g2
g3
Ntp4683
Rp4684
(dp4685
g7
g8
sg9
V3Z3R5YC0P3OYJXUD5BQUE1DGLX5FT9
p4686
sbag1
(g2
g3
Ntp4687
Rp4688
(dp4689
g7
g8
sg9
V304QEQWKZPLR91AF6CLAHKKPGNZO0S
p4690
sbag1
(g2
g3
Ntp4691
Rp4692
(dp4693
g7
g8
sg9
V31ODACBENUGUVM77URWYGVL8QG0QSP
p4694
sbag1
(g2
g3
Ntp4695
Rp4696
(dp4697
g7
g8
sg9
V30P8I9JKOIMLUS5D4UD0T7AOTO6V5L
p4698
sbag1
(g2
g3
Ntp4699
Rp4700
(dp4701
g7
g8
sg9
V386T3MLZLNWOO9NZZVWEKYUP1IV809
p4702
sbag1
(g2
g3
Ntp4703
Rp4704
(dp4705
g7
g8
sg9
V35A1YQPVFEHG8MLD5NEHEIKULMB5IZ
p4706
sbag1
(g2
g3
Ntp4707
Rp4708
(dp4709
g7
g8
sg9
V3VDVA3ILIDG3ODEZECC2QGUXUTEG10
p4710
sbag1
(g2
g3
Ntp4711
Rp4712
(dp4713
g7
g8
sg9
V3MYASTQBG7COTXOPX119LWZ8PDQDQI
p4714
sbag1
(g2
g3
Ntp4715
Rp4716
(dp4717
g7
g8
sg9
V3EQVJH0T40MIXTLJ01EUHMPT1CITHL
p4718
sbag1
(g2
g3
Ntp4719
Rp4720
(dp4721
g7
g8
sg9
V39WICJI5ATTZPXNJR8EAZGP033MZ30
p4722
sbag1
(g2
g3
Ntp4723
Rp4724
(dp4725
g7
g8
sg9
V371Q3BEXDHA39E8YHNFB7OXCVJ5ZSC
p4726
sbag1
(g2
g3
Ntp4727
Rp4728
(dp4729
g7
g8
sg9
V3FCO4VKOZ4EJFLXAXX3NRN0YKZK7ES
p4730
sbag1
(g2
g3
Ntp4731
Rp4732
(dp4733
g7
g8
sg9
V391JB9X4ZY95MOW7XPGF80ATZLBKM0
p4734
sbag1
(g2
g3
Ntp4735
Rp4736
(dp4737
g7
g8
sg9
V3J6BHNX0U9TB46H79QVFLFZT4BLKN0
p4738
sbag1
(g2
g3
Ntp4739
Rp4740
(dp4741
g7
g8
sg9
V3QQUBC64ZEFHO6GE89A4B97V0KZXN1
p4742
sbag1
(g2
g3
Ntp4743
Rp4744
(dp4745
g7
g8
sg9
V3RZS0FBRWKBTOTHWXSR91LRGZHCPCN
p4746
sbag1
(g2
g3
Ntp4747
Rp4748
(dp4749
g7
g8
sg9
V334ZEL5JX6GRAAURFE4URQQ8BF3SO4
p4750
sbag1
(g2
g3
Ntp4751
Rp4752
(dp4753
g7
g8
sg9
V3HXCEECSQMU050K7GT70PALDC41ZYQ
p4754
sbag1
(g2
g3
Ntp4755
Rp4756
(dp4757
g7
g8
sg9
V3CVBMEMMXBHVZVOCNYBTCQXBCFC7H8
p4758
sbag1
(g2
g3
Ntp4759
Rp4760
(dp4761
g7
g8
sg9
V3G5RUKN2EC4RNAYG5T4QV6LDTH9N99
p4762
sbag1
(g2
g3
Ntp4763
Rp4764
(dp4765
g7
g8
sg9
V3TD33TP5DL33RKJOU9DH06W3IADABM
p4766
sbag1
(g2
g3
Ntp4767
Rp4768
(dp4769
g7
g8
sg9
V3Z33IC0JC0N4VF7P7KQH5NFQFKBV9Y
p4770
sbag1
(g2
g3
Ntp4771
Rp4772
(dp4773
g7
g8
sg9
V363A7XIFV4NI0YHUZQ4H1IQAL2TVAD
p4774
sbag1
(g2
g3
Ntp4775
Rp4776
(dp4777
g7
g8
sg9
V3XD2A6FGFNVO3NQLDPLCU0VJGGGS9P
p4778
sbag1
(g2
g3
Ntp4779
Rp4780
(dp4781
g7
g8
sg9
V3GVPRXWRPHVVVQZWTGTEC2YQCSR7I1
p4782
sbag1
(g2
g3
Ntp4783
Rp4784
(dp4785
g7
g8
sg9
V3VADEH0UHCY9VA6SUEH9GQVYLKZSPL
p4786
sbag1
(g2
g3
Ntp4787
Rp4788
(dp4789
g7
g8
sg9
V3ZICQFRS31J0AQUCCF9J3HUFIY5ZZH
p4790
sbag1
(g2
g3
Ntp4791
Rp4792
(dp4793
g7
g8
sg9
V34D9ZRXCYRV2860Q5VZCQV63MYYSA4
p4794
sbag1
(g2
g3
Ntp4795
Rp4796
(dp4797
g7
g8
sg9
V3XAOZ9UYRZSU128DH8HEKUYZ0G8Q1Q
p4798
sbag1
(g2
g3
Ntp4799
Rp4800
(dp4801
g7
g8
sg9
V3KWGG5KP6J3N3QKJ5CZHKHXLUC2CMF
p4802
sbag1
(g2
g3
Ntp4803
Rp4804
(dp4805
g7
g8
sg9
V3N5YJ55YXG45ST8LXZIQR1WXZZRNAO
p4806
sbag1
(g2
g3
Ntp4807
Rp4808
(dp4809
g7
g8
sg9
V3JUDR1D0D6S1QNQ90CHSPD84SMMQ27
p4810
sbag1
(g2
g3
Ntp4811
Rp4812
(dp4813
g7
g8
sg9
V3URJ6VVYUPO88PSGPD8CTNA2XZ04O9
p4814
sbag1
(g2
g3
Ntp4815
Rp4816
(dp4817
g7
g8
sg9
V3VI0PC2ZAYLZ6RGQ9OAHQY70QU4XOG
p4818
sbag1
(g2
g3
Ntp4819
Rp4820
(dp4821
g7
g8
sg9
V31ODACBENUGUVM77URWYGVL8QGLSQC
p4822
sbag1
(g2
g3
Ntp4823
Rp4824
(dp4825
g7
g8
sg9
V3NCN4N1H1GIAB3DD3DIMMCG3HHCNBJ
p4826
sbag1
(g2
g3
Ntp4827
Rp4828
(dp4829
g7
g8
sg9
V3SBX2M1TKDOBT15W4Q0GIS52C0IQ43
p4830
sbag1
(g2
g3
Ntp4831
Rp4832
(dp4833
g7
g8
sg9
V3G9UA71JVVVRQ1J2BYEEO3DQP7G7JD
p4834
sbag1
(g2
g3
Ntp4835
Rp4836
(dp4837
g7
g8
sg9
V3NOEP8XAU43HRRSROONWFYCQ0Z0XPX
p4838
sbag1
(g2
g3
Ntp4839
Rp4840
(dp4841
g7
g8
sg9
V3GKAWYFRAPU3TLNAXOMKLR9YKHOPDN
p4842
sbag1
(g2
g3
Ntp4843
Rp4844
(dp4845
g7
g8
sg9
V3FO95NVK5C1U7NM776LYLLVDM2NSRD
p4846
sbag1
(g2
g3
Ntp4847
Rp4848
(dp4849
g7
g8
sg9
V39KMGHJ4RZB66KIW4RJZRJO7IK400Z
p4850
sbag1
(g2
g3
Ntp4851
Rp4852
(dp4853
g7
g8
sg9
V3U18MJKL1UNTL85JHDEHXWMLZ2CNCQ
p4854
sbag1
(g2
g3
Ntp4855
Rp4856
(dp4857
g7
g8
sg9
V3VO4XFFP15N8CONF6OYNL4PC328Q7N
p4858
sbag1
(g2
g3
Ntp4859
Rp4860
(dp4861
g7
g8
sg9
V3L21G7IH47X3A4ZZ8IY8XG11ZPPY11
p4862
sbag1
(g2
g3
Ntp4863
Rp4864
(dp4865
g7
g8
sg9
V3A9LA2FRWSFPEAU35BFR6PAZE8RHXD
p4866
sbag1
(g2
g3
Ntp4867
Rp4868
(dp4869
g7
g8
sg9
V36AZSFEYZ41NJ8MM544DWTAG3KEVB8
p4870
sbag1
(g2
g3
Ntp4871
Rp4872
(dp4873
g7
g8
sg9
V37MQ8Z1JQEXAZPHVRMYM2ZB6RV3Y2I
p4874
sbag1
(g2
g3
Ntp4875
Rp4876
(dp4877
g7
g8
sg9
V3SBX2M1TKDOBT15W4Q0GIS52C0I4QH
p4878
sbag1
(g2
g3
Ntp4879
Rp4880
(dp4881
g7
g8
sg9
V3SR6AEG6W5UEEFKDA71TP3H8GELHYJ
p4882
sbag1
(g2
g3
Ntp4883
Rp4884
(dp4885
g7
g8
sg9
V3T2EL38U0ML2R3T6O12LF3205VMXQO
p4886
sbag1
(g2
g3
Ntp4887
Rp4888
(dp4889
g7
g8
sg9
V3UQVX1UPFSID2ULAJENDA7HMFIO02J
p4890
sbag1
(g2
g3
Ntp4891
Rp4892
(dp4893
g7
g8
sg9
V38G0E1M85M62F7VS5VL81J24S5KUVN
p4894
sbag1
(g2
g3
Ntp4895
Rp4896
(dp4897
g7
g8
sg9
V3B9J25CZ25EQ1LXOP9V3WQWRM1JSC6
p4898
sbag1
(g2
g3
Ntp4899
Rp4900
(dp4901
g7
g8
sg9
V36BTXXLZ2V9B52KWH5PGNIF78MK4RI
p4902
sbag1
(g2
g3
Ntp4903
Rp4904
(dp4905
g7
g8
sg9
V3NFWQRSHVEFUES87LBRNFIYRV3IFGL
p4906
sbag1
(g2
g3
Ntp4907
Rp4908
(dp4909
g7
g8
sg9
V38F60IALAGI7MTFN2T79BUQCFV20TC
p4910
sbag1
(g2
g3
Ntp4911
Rp4912
(dp4913
g7
g8
sg9
V3UEDKCTP9VRM1LPKTJEQPID34WG7KC
p4914
sbag1
(g2
g3
Ntp4915
Rp4916
(dp4917
g7
g8
sg9
V367O8HRHKG9N6HK9WUPLDSK3UO34S6
p4918
sbag1
(g2
g3
Ntp4919
Rp4920
(dp4921
g7
g8
sg9
V3AC6MFV69KJEJ5UI6T3C3AQAM8PHZA
p4922
sbag1
(g2
g3
Ntp4923
Rp4924
(dp4925
g7
g8
sg9
V36JW4WBR06L8EO3I5H950IASA3VFHK
p4926
sbag1
(g2
g3
Ntp4927
Rp4928
(dp4929
g7
g8
sg9
V3RBI0I35XE4ZK7DEVMCRL9GYX93Y3T
p4930
sbag1
(g2
g3
Ntp4931
Rp4932
(dp4933
g7
g8
sg9
V3ZXNP4Z39RMXLR72EJQR4IQITWL7LF
p4934
sbag1
(g2
g3
Ntp4935
Rp4936
(dp4937
g7
g8
sg9
V33QQ60S6ASJMM6UC2YXJGQCEY990U3
p4938
sbag1
(g2
g3
Ntp4939
Rp4940
(dp4941
g7
g8
sg9
V3EAWOID6MTYMZLJC7O7OCCEXCGI0VS
p4942
sbag1
(g2
g3
Ntp4943
Rp4944
(dp4945
g7
g8
sg9
V3SMIWMMK616FUWVXV5Q4NLLIZEMUWX
p4946
sbag1
(g2
g3
Ntp4947
Rp4948
(dp4949
g7
g8
sg9
V3Y40HMYLL1JUJW0N5AMQP4ZP8GSUXQ
p4950
sbag1
(g2
g3
Ntp4951
Rp4952
(dp4953
g7
g8
sg9
V3I7SHAD35MXHR9PNEVR64V57T1B7MH
p4954
sbag1
(g2
g3
Ntp4955
Rp4956
(dp4957
g7
g8
sg9
V322ZSN9Z5GLOLHXOLUUBNXGPW7H4TV
p4958
sbag1
(g2
g3
Ntp4959
Rp4960
(dp4961
g7
g8
sg9
V372AGES0I46234861GRLKTC51HOXRP
p4962
sbag1
(g2
g3
Ntp4963
Rp4964
(dp4965
g7
g8
sg9
V3SCKNODZ0XHN9RANQW66HAU7YRL7NH
p4966
sbag1
(g2
g3
Ntp4967
Rp4968
(dp4969
g7
g8
sg9
V3AJA9FLWSCZ8AJE2BZRQ0UB7AGAFID
p4970
sbag1
(g2
g3
Ntp4971
Rp4972
(dp4973
g7
g8
sg9
V32K26U12DNPGY5K6J0VJRJYG65QVDF
p4974
sbag1
(g2
g3
Ntp4975
Rp4976
(dp4977
g7
g8
sg9
V3YGE63DIN8YZEAJHXYCKYEXBJPK0W2
p4978
sbag1
(g2
g3
Ntp4979
Rp4980
(dp4981
g7
g8
sg9
V3G3AJKPCXLTK23WIV0HAVE84B9ZY4E
p4982
sbag1
(g2
g3
Ntp4983
Rp4984
(dp4985
g7
g8
sg9
V37Y5RYYI0P6E4J8JG5RQA3H1NJ7XSD
p4986
sbag1
(g2
g3
Ntp4987
Rp4988
(dp4989
g7
g8
sg9
V3A520CCNWN11YNV840F71E2OL7QAEM
p4990
sbag1
(g2
g3
Ntp4991
Rp4992
(dp4993
g7
g8
sg9
V3N2YPY1GI6ZLQBY6FV63X1G16HRVE8
p4994
sbag1
(g2
g3
Ntp4995
Rp4996
(dp4997
g7
g8
sg9
V38VTL6WC4AE2YM0I950K06EIB5UY5J
p4998
sbag1
(g2
g3
Ntp4999
Rp5000
(dp5001
g7
g8
sg9
V33TGB4G0LPIFJJLY55WGK8DNP2LXT2
p5002
sbag1
(g2
g3
Ntp5003
Rp5004
(dp5005
g7
g8
sg9
V3JYPJ2TAYI90R516OUHA9RCJWU4PFY
p5006
sbag1
(g2
g3
Ntp5007
Rp5008
(dp5009
g7
g8
sg9
V3FK4G712NX1682MKMVL3BV09846SS1
p5010
sbag1
(g2
g3
Ntp5011
Rp5012
(dp5013
g7
g8
sg9
V3M0556243SL0OKPT8F4I527OWF4NF1
p5014
sbag1
(g2
g3
Ntp5015
Rp5016
(dp5017
g7
g8
sg9
V3JVP4ZJHDPTHDFZC8H85XNO34ELI0C
p5018
sbag1
(g2
g3
Ntp5019
Rp5020
(dp5021
g7
g8
sg9
V3IH9TRB0FB0HK4KU40C5BS7D96RI1F
p5022
sbag1
(g2
g3
Ntp5023
Rp5024
(dp5025
g7
g8
sg9
V3Y40HMYLL1JUJW0N5AMQP4ZP8GSXUT
p5026
sbag1
(g2
g3
Ntp5027
Rp5028
(dp5029
g7
g8
sg9
V3EFNPKWBMSP2NCHTNE1ITHMELWO03U
p5030
sbag1
(g2
g3
Ntp5031
Rp5032
(dp5033
g7
g8
sg9
V341YLJU21I0O9P2QN4CJGBHI1C52IG
p5034
sbag1
(g2
g3
Ntp5035
Rp5036
(dp5037
g7
g8
sg9
V34YWR3PJ28BE3AO773860XBISRQ0XV
p5038
sbag1
(g2
g3
Ntp5039
Rp5040
(dp5041
g7
g8
sg9
V3MIVREZQVHZW73UZPINWP9UY9M8KQN
p5042
sbag1
(g2
g3
Ntp5043
Rp5044
(dp5045
g7
g8
sg9
V39O6Z4JLX2YUWBPNA0WVLQ18MN1XVI
p5046
sbag1
(g2
g3
Ntp5047
Rp5048
(dp5049
g7
g8
sg9
V337F8MIIMZEN580XNS613MEKZWK04F
p5050
sbag1
(g2
g3
Ntp5051
Rp5052
(dp5053
g7
g8
sg9
V35YHTYFL1G4DWPY2A6Q9FJ11II6VFQ
p5054
sbag1
(g2
g3
Ntp5055
Rp5056
(dp5057
g7
g8
sg9
V3XDJY5RK5SM3LUCDLZKLST2RFLO4UM
p5058
sbag1
(g2
g3
Ntp5059
Rp5060
(dp5061
g7
g8
sg9
V341YLJU21I0O9P2QN4CJGBHI1C5I2W
p5062
sbag1
(g2
g3
Ntp5063
Rp5064
(dp5065
g7
g8
sg9
V3TUOHPJXYHY7B0PS0A1R7SKMTW3XWS
p5066
sbag1
(g2
g3
Ntp5067
Rp5068
(dp5069
g7
g8
sg9
V3VZYA8PITOZ51R4X1XPB8EKYZSF05K
p5070
sbag1
(g2
g3
Ntp5071
Rp5072
(dp5073
g7
g8
sg9
V3MGHRFQY2LQ33FEHCZU8JBIRUXK0Y1
p5074
sbag1
(g2
g3
Ntp5075
Rp5076
(dp5077
g7
g8
sg9
V38XPGNCKHT13Y91DQPUQOF4ATSX4VB
p5078
sbag1
(g2
g3
Ntp5079
Rp5080
(dp5081
g7
g8
sg9
V3S37Y8CWI81GDY1IGZZMAHNO01Z4WL
p5082
sbag1
(g2
g3
Ntp5083
Rp5084
(dp5085
g7
g8
sg9
V3IKMEYR0LWWFFKSEN7XVTRWVTGU2KR
p5086
sbag1
(g2
g3
Ntp5087
Rp5088
(dp5089
g7
g8
sg9
V341H3G5YF0F385OM8LWRXIRT0RO0ZS
p5090
sbag1
(g2
g3
Ntp5091
Rp5092
(dp5093
g7
g8
sg9
V3ZTE0JGGCETB3T5VISEUCLMQPCHCOU
p5094
sbag1
(g2
g3
Ntp5095
Rp5096
(dp5097
g7
g8
sg9
V3OQQD2WO8I7DU7Y9R4QOZLMA7Q5I37
p5098
sbag1
(g2
g3
Ntp5099
Rp5100
(dp5101
g7
g8
sg9
V37SOB9Z0SSYFK86FC7N1R1E2OU03L7
p5102
sbag1
(g2
g3
Ntp5103
Rp5104
(dp5105
g7
g8
sg9
V3FHTJGYT8N1655X1ZENSRCCVX94PGX
p5106
sbag1
(g2
g3
Ntp5107
Rp5108
(dp5109
g7
g8
sg9
V3YLPJ8OXX8EV2Y68Q4V8C01V9354XE
p5110
sbag1
(g2
g3
Ntp5111
Rp5112
(dp5113
g7
g8
sg9
V3S1L4CQSFX6T41V4ZBZDJWNOX85AF4
p5114
sbag1
(g2
g3
Ntp5115
Rp5116
(dp5117
g7
g8
sg9
V36D1BWBEHN2A58SH8JAB84OZILP2MW
p5118
sbag1
(g2
g3
Ntp5119
Rp5120
(dp5121
g7
g8
sg9
V31HLTCK4BLWJAPUXLQWRX41DJX6VGP
p5122
sbag1
(g2
g3
Ntp5123
Rp5124
(dp5125
g7
g8
sg9
V386659BNTLI6D93E0ANZ5O7HNCB104
p5126
sbag1
(g2
g3
Ntp5127
Rp5128
(dp5129
g7
g8
sg9
V37SQU136V7P6KYOWWTRZJTQRS4H117
p5130
sbag1
(g2
g3
Ntp5131
Rp5132
(dp5133
g7
g8
sg9
V3DIIW4IV8PWYC3HDRIV79QEGLQ1I4S
p5134
sbag1
(g2
g3
Ntp5135
Rp5136
(dp5137
g7
g8
sg9
V3Q2T3FD0ON9ZQQO0CJOGRETROZQ3M9
p5138
sbag1
(g2
g3
Ntp5139
Rp5140
(dp5141
g7
g8
sg9
V3TCFMTM8HEPD9J6SFXRDOC0WKAV12O
p5142
sbag1
(g2
g3
Ntp5143
Rp5144
(dp5145
g7
g8
sg9
V3RZS0FBRWKBTOTHWXSR91LRGZHDCPB
p5146
sbag1
(g2
g3
Ntp5147
Rp5148
(dp5149
g7
g8
sg9
V307L9TDWJYT58890OK3G4TIRTP03N9
p5150
sbag1
(g2
g3
Ntp5151
Rp5152
(dp5153
g7
g8
sg9
V3NI0WFPPI9H1KV4B6GZG0KYYVNQ060
p5154
sbag1
(g2
g3
Ntp5155
Rp5156
(dp5157
g7
g8
sg9
V3JHB4BPSFKACQ7B8LLW7Z0GIYSWQ9Z
p5158
sbag1
(g2
g3
Ntp5159
Rp5160
(dp5161
g7
g8
sg9
V3G3AJKPCXLTK23WIV0HAVE84B9Z4YK
p5162
sbag1
(g2
g3
Ntp5163
Rp5164
(dp5165
g7
g8
sg9
V3YLTXLH3DF7K51SCJK5ACCOWC9HPHW
p5166
sbag1
(g2
g3
Ntp5167
Rp5168
(dp5169
g7
g8
sg9
V3AXFSPQOYQZ45UY8THCQCVQ7NVZFJP
p5170
sbag1
(g2
g3
Ntp5171
Rp5172
(dp5173
g7
g8
sg9
V3OKP4QVBP2YZI1RZAV5V1HN0YN5AG3
p5174
sbag1
(g2
g3
Ntp5175
Rp5176
(dp5177
g7
g8
sg9
V35A1YQPVFEHG8MLD5NEHEIKULMWI5X
p5178
sbag1
(g2
g3
Ntp5179
Rp5180
(dp5181
g7
g8
sg9
V35ZRNT9RUIZNQT9CPZ3TJIIWJZ53OO
p5182
sbag1
(g2
g3
Ntp5183
Rp5184
(dp5185
g7
g8
sg9
V3IJ95K7NDXD62KLOJZA0NN70XU4NG0
p5186
sbag1
(g2
g3
Ntp5187
Rp5188
(dp5189
g7
g8
sg9
V3GITHABACYMGNQDHKKPBLJDZNBZ2NW
p5190
sbag1
(g2
g3
Ntp5191
Rp5192
(dp5193
g7
g8
sg9
V3GMLHYZ0LEYJJ1QXA68S8I6YAMMUYW
p5194
sbag1
(g2
g3
Ntp5195
Rp5196
(dp5197
g7
g8
sg9
V3D17ECOUOEW2U12BJX5I7M5OQOV13Z
p5198
sbag1
(g2
g3
Ntp5199
Rp5200
(dp5201
g7
g8
sg9
V3X4Q1O9UBHN5RCAZRB6JWZUCO1Q7OW
p5202
sbag1
(g2
g3
Ntp5203
Rp5204
(dp5205
g7
g8
sg9
V3YOAVL4CA0IK7T6NRMJT9LH6H334ZB
p5206
sbag1
(g2
g3
Ntp5207
Rp5208
(dp5209
g7
g8
sg9
V3XT3KXP24ZZCRQLRA6OM6OYUHH7I6D
p5210
sbag1
(g2
g3
Ntp5211
Rp5212
(dp5213
g7
g8
sg9
V32TZXEA1OLLNCXLFJBA1HRXU4OR14K
p5214
sbag1
(g2
g3
Ntp5215
Rp5216
(dp5217
g7
g8
sg9
V3GVPRXWRPHVVVQZWTGTEC2YQCSRI7C
p5218
sbag1
(g2
g3
Ntp5219
Rp5220
(dp5221
g7
g8
sg9
V37OPIVELUU4DIXMAU1NDMHZ1DNIAH2
p5222
sbag1
(g2
g3
Ntp5223
Rp5224
(dp5225
g7
g8
sg9
V3LAZVA75NISY5BDTLZPO08D4DL42OB
p5226
sbag1
(g2
g3
Ntp5227
Rp5228
(dp5229
g7
g8
sg9
V3Y7LTZE0YTNJOR026SABMPF0GGQUZN
p5230
sbag1
(g2
g3
Ntp5231
Rp5232
(dp5233
g7
g8
sg9
V3QHITW7OYOAQVQLDDRA7VVR24AEQAE
p5234
sbag1
(g2
g3
Ntp5235
Rp5236
(dp5237
g7
g8
sg9
V30EV7DWJTVWYHQ0WEOAPSCSI705Y6Z
p5238
sbag1
(g2
g3
Ntp5239
Rp5240
(dp5241
g7
g8
sg9
V3VZYA8PITOZ51R4X1XPB8EKYZSF50P
p5242
sbag1
(g2
g3
Ntp5243
Rp5244
(dp5245
g7
g8
sg9
V31N9JPQXIPJK2GGZ35SI8NJ1CUHNHZ
p5246
sbag1
(g2
g3
Ntp5247
Rp5248
(dp5249
g7
g8
sg9
V3EAWOID6MTYMZLJC7O7OCCEXCGGV0L
p5250
sbag1
(g2
g3
Ntp5251
Rp5252
(dp5253
g7
g8
sg9
V3DWGDA5POF5M6A4U37BOQHX7H8MV1O
p5254
sbag1
(g2
g3
Ntp5255
Rp5256
(dp5257
g7
g8
sg9
V3XDSWAMB22TEO5IBX56Y1QHQ4DZCQ2
p5258
sbag1
(g2
g3
Ntp5259
Rp5260
(dp5261
g7
g8
sg9
V3KLL7H3EGD2XALP85WE9I4DEYXJVHO
p5262
sbag1
(g2
g3
Ntp5263
Rp5264
(dp5265
g7
g8
sg9
V3ZG552ORAM5TVVMQMBB2V07C9E0V25
p5266
sbag1
(g2
g3
Ntp5267
Rp5268
(dp5269
g7
g8
sg9
V3ULIZ0H1VA658GPFXGTBMJ384KM15P
p5270
sbag1
(g2
g3
Ntp5271
Rp5272
(dp5273
g7
g8
sg9
V36KM3FWE3RDKOVIGPQ486YYUQYA07Z
p5274
sbag1
(g2
g3
Ntp5275
Rp5276
(dp5277
g7
g8
sg9
V3O2Y2UIUCQVZGE4QB2C2DAQK2KZFKO
p5278
sbag1
(g2
g3
Ntp5279
Rp5280
(dp5281
g7
g8
sg9
V3DGDV62G7OAGQBPU0Z23P8IUNQ02PS
p5282
sbag1
(g2
g3
Ntp5283
Rp5284
(dp5285
g7
g8
sg9
V3BFF0DJK8XD7N2ZZBVQTL0WVANKSTQ
p5286
sbag1
(g2
g3
Ntp5287
Rp5288
(dp5289
g7
g8
sg9
V3BDORL6HKKEE06XBAKVY6GRV0Z1CR3
p5290
sbag1
(g2
g3
Ntp5291
Rp5292
(dp5293
g7
g8
sg9
V3IHWR4LC7DEZV44F3LLKQ2ULNCXI8Z
p5294
sbag1
(g2
g3
Ntp5295
Rp5296
(dp5297
g7
g8
sg9
V36QZ6V1589EMNFEOB0G3QWIXT1RSUH
p5298
sbag1
(g2
g3
Ntp5299
Rp5300
(dp5301
g7
g8
sg9
V3J5XXLQDHMCIGDI9QBP7EAC4FS0V3G
p5302
sbag1
(g2
g3
Ntp5303
Rp5304
(dp5305
g7
g8
sg9
V3M4KL7H8KVO1RKPT2Z3GEPH80FX165
p5306
sbag1
(g2
g3
Ntp5307
Rp5308
(dp5309
g7
g8
sg9
V3PA41K45VN5NCCM06BJYLZZ2Y6M7PD
p5310
sbag1
(g2
g3
Ntp5311
Rp5312
(dp5313
g7
g8
sg9
V3X55NP42EOH5BTLD4ZG88INMT413P5
p5314
sbag1
(g2
g3
Ntp5315
Rp5316
(dp5317
g7
g8
sg9
V3BO3NEOQM0IDESXU0J5YMT0GD0XAIV
p5318
sbag1
(g2
g3
Ntp5319
Rp5320
(dp5321
g7
g8
sg9
V3JGHED38EDSHLQE1XYFHYQSE2BPY7Y
p5322
sbag1
(g2
g3
Ntp5323
Rp5324
(dp5325
g7
g8
sg9
V3ULIZ0H1VA658GPFXGTBMJ384KL51S
p5326
sbag1
(g2
g3
Ntp5327
Rp5328
(dp5329
g7
g8
sg9
V34OWYT6U3WIZ99NP8DRYQYPW7IFI9O
p5330
sbag1
(g2
g3
Ntp5331
Rp5332
(dp5333
g7
g8
sg9
V3JUDR1D0D6S1QNQ90CHSPD84SMM2QJ
p5334
sbag1
(g2
g3
Ntp5335
Rp5336
(dp5337
g7
g8
sg9
V3OLZC0DJ8JGX6G0SBEWUIGETYAYVIH
p5338
sbag1
(g2
g3
Ntp5339
Rp5340
(dp5341
g7
g8
sg9
V3566S7OX5DKKVK3YL988K3H4VQH174
p5342
sbag1
(g2
g3
Ntp5343
Rp5344
(dp5345
g7
g8
sg9
V30IRMPJWDZKWJ49Z2XCWUZ4358AKRO
p5346
sbag1
(g2
g3
Ntp5347
Rp5348
(dp5349
g7
g8
sg9
V386T3MLZLNWOO9NZZVWEKYUP1IG08M
p5350
sbag1
(g2
g3
Ntp5351
Rp5352
(dp5353
g7
g8
sg9
V3B286OTISEI993H0I1QYYUFGQFMAJ7
p5354
sbag1
(g2
g3
Ntp5355
Rp5356
(dp5357
g7
g8
sg9
V3G57RS03HH6CX17BGKTPR2DDWQZ529
p5358
sbag1
(g2
g3
Ntp5359
Rp5360
(dp5361
g7
g8
sg9
V3UDTAB6HH60O2E694N2SKUP0LOY09B
p5362
sbag1
(g2
g3
Ntp5363
Rp5364
(dp5365
g7
g8
sg9
V3TL87MO8CMQA0KM8W2O3SA3ZRK4FLR
p5366
sbag1
(g2
g3
Ntp5367
Rp5368
(dp5369
g7
g8
sg9
V3XU9MCX6VOD12O59DR6SU3I9O8O2RK
p5370
sbag1
(g2
g3
Ntp5371
Rp5372
(dp5373
g7
g8
sg9
V3QO7EE372OOVE0Q5J5A3Q6B8MSZQB9
p5374
sbag1
(g2
g3
Ntp5375
Rp5376
(dp5377
g7
g8
sg9
V3B9J25CZ25EQ1LXOP9V3WQWRM1KCSR
p5378
sbag1
(g2
g3
Ntp5379
Rp5380
(dp5381
g7
g8
sg9
V30EMX9PEVKK8KJ9CHMC1K99ZRATKSC
p5382
sbag1
(g2
g3
Ntp5383
Rp5384
(dp5385
g7
g8
sg9
V31D0ZWOD0A027XGEWTGSGP0KR6G0AQ
p5386
sbag1
(g2
g3
Ntp5387
Rp5388
(dp5389
g7
g8
sg9
V3CVDZS288H1U624TWEPISNIORPUFMT
p5390
sbag1
(g2
g3
Ntp5391
Rp5392
(dp5393
g7
g8
sg9
V38XPGNCKHT13Y91DQPUQOF4ATSWV41
p5394
sbag1
(g2
g3
Ntp5395
Rp5396
(dp5397
g7
g8
sg9
V3L2OEKSTW9BLL4JK737NCQO9DVVY8L
p5398
sbag1
(g2
g3
Ntp5399
Rp5400
(dp5401
g7
g8
sg9
V30UZJB2POHD1IJ3UKK7UACI524Z53K
p5402
sbag1
(g2
g3
Ntp5403
Rp5404
(dp5405
g7
g8
sg9
V3OZ4VAIBEXGT1RKYTWHUUHTTBPNVJT
p5406
sbag1
(g2
g3
Ntp5407
Rp5408
(dp5409
g7
g8
sg9
V3BS6ERDL938VJF55ISNBFRIHPC06D0
p5410
sbag1
(g2
g3
Ntp5411
Rp5412
(dp5413
g7
g8
sg9
V3XDSWAMB22TEO5IBX56Y1QHQ4DZQCG
p5414
sbag1
(g2
g3
Ntp5415
Rp5416
(dp5417
g7
g8
sg9
V3WA2XVDZEMI0BLJ5ENYVL902PO16ET
p5418
sbag1
(g2
g3
Ntp5419
Rp5420
(dp5421
g7
g8
sg9
V37SDSEDIN93OVY8HVE0EY3DZ6AN18R
p5422
sbag1
(g2
g3
Ntp5423
Rp5424
(dp5425
g7
g8
sg9
V3TZDZ3Y0JS7O93RR066SYZ8AQG519G
p5426
sbag1
(g2
g3
Ntp5427
Rp5428
(dp5429
g7
g8
sg9
V3HA5ODM5KATM0U3OGQQ8MIKG780SV6
p5430
sbag1
(g2
g3
Ntp5431
Rp5432
(dp5433
g7
g8
sg9
V324N5FAHSXCOCBQGBHH6VWT6QENVKS
p5434
sbag1
(g2
g3
Ntp5435
Rp5436
(dp5437
g7
g8
sg9
V30ZKOOGW2W72EM1WSCKSUUJUWYN1AV
p5438
sbag1
(g2
g3
Ntp5439
Rp5440
(dp5441
g7
g8
sg9
V3VO4XFFP15N8CONF6OYNL4PC3287Q4
p5442
sbag1
(g2
g3
Ntp5443
Rp5444
(dp5445
g7
g8
sg9
V39O0SQZVJN88OP2FJ3NNQUZHZOA7R5
p5446
sbag1
(g2
g3
Ntp5447
Rp5448
(dp5449
g7
g8
sg9
V35NNO802AVXKYBRJ9NA38ZKGC7WNIS
p5450
sbag1
(g2
g3
Ntp5451
Rp5452
(dp5453
g7
g8
sg9
V306996CF6WL7XW6OYQKOP530EG81BQ
p5454
sbag1
(g2
g3
Ntp5455
Rp5456
(dp5457
g7
g8
sg9
V374UMBUHN5QRGLA3E90T6VSDOKYCTG
p5458
sbag1
(g2
g3
Ntp5459
Rp5460
(dp5461
g7
g8
sg9
V351S7I5UG9XGTMBPR5V3K0ZGPMLNJ4
p5462
sbag1
(g2
g3
Ntp5463
Rp5464
(dp5465
g7
g8
sg9
V37NXA7GVST7ZWH8YWHT7AW6LFESVLV
p5466
sbag1
(g2
g3
Ntp5467
Rp5468
(dp5469
g7
g8
sg9
V32L724R85LLK1W3WP2NVCOPBCMWPIP
p5470
sbag1
(g2
g3
Ntp5471
Rp5472
(dp5473
g7
g8
sg9
V3XQ4XW3OD9DD335MSG6XKDN5AA72S8
p5474
sbag1
(g2
g3
Ntp5475
Rp5476
(dp5477
g7
g8
sg9
V3TLFH2L6Y9PEI3I1HGBNUIJRCTL2TX
p5478
sbag1
(g2
g3
Ntp5479
Rp5480
(dp5481
g7
g8
sg9
V3QX22DUVOOIJ2ZQJWTUMA9LAFJIVMX
p5482
sbag1
(g2
g3
Ntp5483
Rp5484
(dp5485
g7
g8
sg9
V379OL9DBSSFLZ92UCVD1CMJKX1DY9A
p5486
sbag1
(g2
g3
Ntp5487
Rp5488
(dp5489
g7
g8
sg9
V3W9XHF7WGKW9ZJMR6MHRUE5LTT7KT1
p5490
sbag1
(g2
g3
Ntp5491
Rp5492
(dp5493
g7
g8
sg9
V3RKHNXPHGWXOZW1G6R71ZARNC7EKUS
p5494
sbag1
(g2
g3
Ntp5495
Rp5496
(dp5497
g7
g8
sg9
V3J6BHNX0U9TB46H79QVFLFZT4BLNK3
p5498
sbag1
(g2
g3
Ntp5499
Rp5500
(dp5501
g7
g8
sg9
V3E9VAUV7BWFZ4SCZ41R18HU43JVYAP
p5502
sbag1
(g2
g3
Ntp5503
Rp5504
(dp5505
g7
g8
sg9
V324N5FAHSXCOCBQGBHH6VWT6QENKVH
p5506
sbag1
(g2
g3
Ntp5507
Rp5508
(dp5509
g7
g8
sg9
V3OPLMF3EU5OMOCZPUQ7G0FC8TBQNL6
p5510
sbag1
(g2
g3
Ntp5511
Rp5512
(dp5513
g7
g8
sg9
V37ZQELHEQ0Z6UUHAU28V0SRXTGGNM8
p5514
sbag1
(g2
g3
Ntp5515
Rp5516
(dp5517
g7
g8
sg9
V3MYASTQBG7COTXOPX119LWZ8PDBQDG
p5518
sbag1
(g2
g3
Ntp5519
Rp5520
(dp5521
g7
g8
sg9
V32FESTC2NHR6GYPSEEQ3BREF7Y5CU7
p5522
sbag1
(g2
g3
Ntp5523
Rp5524
(dp5525
g7
g8
sg9
V33J5JKFMK6ZQB5MS4CVX8NDWY0N3QW
p5526
sbag1
(g2
g3
Ntp5527
Rp5528
(dp5529
g7
g8
sg9
V3EGKVCRQFWT4N2HRAFRX3SEAL1GYBK
p5530
sbag1
(g2
g3
Ntp5531
Rp5532
(dp5533
g7
g8
sg9
V31GN6YMHLPTZFJ3T60V48K3UEH2SWG
p5534
sbag1
(g2
g3
Ntp5535
Rp5536
(dp5537
g7
g8
sg9
V37Y5RYYI0P6E4J8JG5RQA3H1NJ8SX9
p5538
sbag1
(g2
g3
Ntp5539
Rp5540
(dp5541
g7
g8
sg9
V302U8RURJZ2PKHBJ8U9MNOAAK9SVNX
p5542
sbag1
(g2
g3
Ntp5543
Rp5544
(dp5545
g7
g8
sg9
V35U0MRQMUJ8722BV999Z2DAFAJXVOC
p5546
sbag1
(g2
g3
Ntp5547
Rp5548
(dp5549
g7
g8
sg9
V3PMR2DOWOO2M0FMYKYCDKHABG4V545
p5550
sbag1
(g2
g3
Ntp5551
Rp5552
(dp5553
g7
g8
sg9
V3MA5N0ATTCC1R0QL1RM2HYCKXNPKWR
p5554
sbag1
(g2
g3
Ntp5555
Rp5556
(dp5557
g7
g8
sg9
V3BO3NEOQM0IDESXU0J5YMT0GD0XIA3
p5558
sbag1
(g2
g3
Ntp5559
Rp5560
(dp5561
g7
g8
sg9
V3HJ1EVZS2OKQN61SHRKXDDN1UMP3RX
p5562
sbag1
(g2
g3
Ntp5563
Rp5564
(dp5565
g7
g8
sg9
V3HFWPF5AK9K2OL15WGK23NSXGO83SL
p5566
sbag1
(g2
g3
Ntp5567
Rp5568
(dp5569
g7
g8
sg9
V3E6L1VR4XWNSHZJ19YI13RL21PG6FB
p5570
sbag1
(g2
g3
Ntp5571
Rp5572
(dp5573
g7
g8
sg9
V37G6BXQPLQMTL32PTWCTREHTPPCQE9
p5574
sbag1
(g2
g3
Ntp5575
Rp5576
(dp5577
g7
g8
sg9
V32ZCLEW0BZLGW7N27K8VOP4BP1LPJ1
p5578
sbag1
(g2
g3
Ntp5579
Rp5580
(dp5581
g7
g8
sg9
V3OWZNK3RYLQTIGXQHL1XZE5TV7S2UO
p5582
sbag1
(g2
g3
Ntp5583
Rp5584
(dp5585
g7
g8
sg9
V37VUR2VJ6AQQ71YUCQGJ0P9IW181CX
p5586
sbag1
(g2
g3
Ntp5587
Rp5588
(dp5589
g7
g8
sg9
V39KV3A5D188KP42SYSNSG44DLQT7ST
p5590
sbag1
(g2
g3
Ntp5591
Rp5592
(dp5593
g7
g8
sg9
V3P7RGTLO6EE4KNNI0MQAZ9FT54MAK6
p5594
sbag1
(g2
g3
Ntp5595
Rp5596
(dp5597
g7
g8
sg9
V3X0EMNLXEPQPN2NWO9MERDF5KOTVPT
p5598
sbag1
(g2
g3
Ntp5599
Rp5600
(dp5601
g7
g8
sg9
V3SSN80MU8CPGG0VBBWIOJHQR6PVKXK
p5602
sbag1
(g2
g3
Ntp5603
Rp5604
(dp5605
g7
g8
sg9
V3AA88CN98P45G5LLGS4Q2VX08VPKYQ
p5606
sbag1
(g2
g3
Ntp5607
Rp5608
(dp5609
g7
g8
sg9
V3BVS8WK9Q0WIX22M6X5UH4KMVIIIBY
p5610
sbag1
(g2
g3
Ntp5611
Rp5612
(dp5613
g7
g8
sg9
V3IKDQS3DQE1177USKX1PSOQ4D3IIC5
p5614
sbag1
(g2
g3
Ntp5615
Rp5616
(dp5617
g7
g8
sg9
V3G4VVJO6PZHB7RTKP587P44O4QLPK0
p5618
sbag1
(g2
g3
Ntp5619
Rp5620
(dp5621
g7
g8
sg9
V31KPKEKW4AE7Q7L627GOB0KQ9O10BL
p5622
sbag1
(g2
g3
Ntp5623
Rp5624
(dp5625
g7
g8
sg9
V3H4IKZHALBJCCC2A63NVD7GXY6QNN8
p5626
sbag1
(g2
g3
Ntp5627
Rp5628
(dp5629
g7
g8
sg9
V3MWOYZD5WVPUUX2M7IN8SWG2OGVNON
p5630
sbag1
(g2
g3
Ntp5631
Rp5632
(dp5633
g7
g8
sg9
V3L55D8AUFAYNX79XOFNSECKS3MGYCR
p5634
sbag1
(g2
g3
Ntp5635
Rp5636
(dp5637
g7
g8
sg9
V35F6NGNVM8KL44F7NSSIQ90ZN977TI
p5638
sbag1
(g2
g3
Ntp5639
Rp5640
(dp5641
g7
g8
sg9
V3DA79LNS59W33LEKLGPSDSOJI7M3TA
p5642
sbag1
(g2
g3
Ntp5643
Rp5644
(dp5645
g7
g8
sg9
V33EEIIWHK78ANEOBOM13RI5FPKFVQK
p5646
sbag1
(g2
g3
Ntp5647
Rp5648
(dp5649
g7
g8
sg9
V3HEADTGN2PTAZF3B11Q3W8FKL6HVRL
p5650
sbag1
(g2
g3
Ntp5651
Rp5652
(dp5653
g7
g8
sg9
V3APP19WN71FYVZFWKIOJLCLE24G6GA
p5654
sbag1
(g2
g3
Ntp5655
Rp5656
(dp5657
g7
g8
sg9
V3WGCNLZJKF90CT48CMBUKVR0H1K1DX
p5658
sbag1
(g2
g3
Ntp5659
Rp5660
(dp5661
g7
g8
sg9
V38LRF35D5LXI3YT9LLF2IOAL1LT3U1
p5662
sbag1
(g2
g3
Ntp5663
Rp5664
(dp5665
g7
g8
sg9
V3E22YV8GG17CFXENMI0NHWLSYLRNP4
p5666
sbag1
(g2
g3
Ntp5667
Rp5668
(dp5669
g7
g8
sg9
V3HA5ODM5KATM0U3OGQQ8MIKG780VS9
p5670
sbag1
(g2
g3
Ntp5671
Rp5672
(dp5673
g7
g8
sg9
V3TTPFEFXCTLCVVA74O616CXFH4T6H9
p5674
sbag1
(g2
g3
Ntp5675
Rp5676
(dp5677
g7
g8
sg9
V3HY86PZXPYJ54ZI88HMEQD9LHDL1EQ
p5678
sbag1
(g2
g3
Ntp5679
Rp5680
(dp5681
g7
g8
sg9
V3SV8KD29L4T5LVVQCE69G262EPTKZH
p5682
sbag1
(g2
g3
Ntp5683
Rp5684
(dp5685
g7
g8
sg9
V3J5XXLQDHMCIGDI9QBP7EAC4FS23VQ
p5686
sbag1
(g2
g3
Ntp5687
Rp5688
(dp5689
g7
g8
sg9
V389A2A304OJQ0CDCG7CJMKQ8R910CS
p5690
sbag1
(g2
g3
Ntp5691
Rp5692
(dp5693
g7
g8
sg9
V3AQN9REUTFHX2ZFBOBI3YI2AOMSYDR
p5694
sbag1
(g2
g3
Ntp5695
Rp5696
(dp5697
g7
g8
sg9
V3X52SWXE0X6J82EX9E54TFZCSEGCW6
p5698
sbag1
(g2
g3
Ntp5699
Rp5700
(dp5701
g7
g8
sg9
V32XN26MTXZKJ3G7ITK5IP3GVLIFL0T
p5702
sbag1
(g2
g3
Ntp5703
Rp5704
(dp5705
g7
g8
sg9
V31J7RYECZLRJA5S0P39I38Z5QALL1W
p5706
sbag1
(g2
g3
Ntp5707
Rp5708
(dp5709
g7
g8
sg9
V3XT3KXP24ZZCRQLRA6OM6OYUHH86I2
p5710
sbag1
(g2
g3
Ntp5711
Rp5712
(dp5713
g7
g8
sg9
V3RSBJ6YZECRI65P59U4VKR7TMP9FO8
p5714
sba.