ccollections
defaultdict
p0
(c__builtin__
list
p1
tp2
Rp3
V3L7SUC0TTUV39YP3TW6XPGVKLNK0MP
p4
(lp5
ccopy_reg
_reconstructor
p6
(cboto.mturk.connection
Assignment
p7
c__builtin__
object
p8
Ntp9
Rp10
(dp11
S'AutoApprovalTime'
p12
V2016-07-08T02:30:27Z
p13
sS'AssignmentId'
p14
V36AHBNMV1RD0PJD5EDN4M2XUIN3YD5
p15
sS'WorkerId'
p16
VA333VJ2K6O6R79
p17
sS'answers'
p18
(lp19
g6
(cboto.resultset
ResultSet
p20
g1
(lp21
g6
(cboto.mturk.connection
QuestionFormAnswer
p22
g8
Ntp23
Rp24
(dp25
S'fields'
p26
(lp27
VDaily_Science_Grade_5_Evan_Moor_95.jpeg
p28
asS'qid'
p29
Vimage_id
p30
sbag6
(g22
g8
Ntp31
Rp32
(dp33
g26
(lp34
V[{"id":"T8","category":"unlabeled"},{"id":"T9","category":"Question"},{"id":"T6","category":"unlabeled"},{"id":"T7","category":"Question"},{"id":"T4","category":"Header/Topic"},{"id":"T5","category":"unlabeled"},{"id":"T2","category":"unlabeled"},{"id":"T3","category":"unlabeled"},{"id":"T1","category":"unlabeled"},{"id":"T14","category":"Figure Label"},{"id":"T15","category":"unlabeled"},{"id":"T16","category":"unlabeled"},{"id":"T17","category":"unlabeled"},{"id":"T10","category":"Figure Label"},{"id":"T11","category":"Figure Label"},{"id":"T12","category":"Figure Label"},{"id":"T13","category":"Figure Label"},{"id":"T18","category":"unlabeled"}]
p35
asg29
Vresults
p36
sbatp37
Rp38
(dp39
S'status'
p40
I01
sS'version_id_marker'
p41
NsS'next_version_id_marker'
p42
NsS'markers'
p43
(lp44
(S'Answer'
p45
g22
tp46
asS'next_key_marker'
p47
NsS'next_upload_id_marker'
p48
NsS'is_truncated'
p49
I00
sS'key_marker'
p50
NsS'next_generation_marker'
p51
NsS'marker'
p52
NsS'next_marker'
p53
NsS'QuestionFormAnswers'
p54
V\u000a
p55
sS'next_token'
p56
NsbasS'AcceptTime'
p57
V2016-06-08T02:29:50Z
p58
sS'HITId'
p59
V3L7SUC0TTUV39YP3TW6XPGVKLNK0MP
p60
sS'Assignment'
p61
S''
p62
sS'AssignmentStatus'
p63
VSubmitted
p64
sS'SubmitTime'
p65
V2016-06-08T02:30:27Z
p66
sbag6
(g7
g8
Ntp67
Rp68
(dp69
g12
V2016-07-08T05:16:40Z
p70
sg14
V3OF2M9AATGP88FTK2GBA4M1M8QFZKL
p71
sg16
VA2RSOGTSR83XKO
p72
sg18
(lp73
g6
(g20
g1
(lp74
g6
(g22
g8
Ntp75
Rp76
(dp77
g26
(lp78
VDaily_Science_Grade_5_Evan_Moor_95.jpeg
p79
asg29
Vimage_id
p80
sbag6
(g22
g8
Ntp81
Rp82
(dp83
g26
(lp84
V[{"id":"T8","category":"unlabeled"},{"id":"T9","category":"Question"},{"id":"T6","category":"unlabeled"},{"id":"T7","category":"Question"},{"id":"T4","category":"Header/Topic"},{"id":"T5","category":"unlabeled"},{"id":"T2","category":"unlabeled"},{"id":"T3","category":"unlabeled"},{"id":"T1","category":"unlabeled"},{"id":"T14","category":"Question"},{"id":"T15","category":"unlabeled"},{"id":"T16","category":"unlabeled"},{"id":"T17","category":"unlabeled"},{"id":"T10","category":"Question"},{"id":"T11","category":"Question"},{"id":"T12","category":"Question"},{"id":"T13","category":"Question"},{"id":"T18","category":"unlabeled"}]
p85
asg29
Vresults
p86
sbatp87
Rp88
(dp89
g40
I01
sg41
Nsg42
Nsg43
(lp90
(g45
g22
tp91
asg47
Nsg48
Nsg49
I00
sg50
Nsg51
Nsg52
Nsg53
Nsg54
V\u000a
p92
sg56
Nsbasg57
V2016-06-08T05:16:15Z
p93
sg59
V3L7SUC0TTUV39YP3TW6XPGVKLNK0MP
p94
sg61
g62
sg63
VSubmitted
p95
sg65
V2016-06-08T05:16:40Z
p96
sbag6
(g7
g8
Ntp97
Rp98
(dp99
g12
V2016-07-08T19:07:34Z
p100
sg14
V3I33IC7ZWF3CQRHM1IP7NXOJI5LA28
p101
sg16
VA3TXJLD6JNR280
p102
sg18
(lp103
g6
(g20
g1
(lp104
g6
(g22
g8
Ntp105
Rp106
(dp107
g26
(lp108
VDaily_Science_Grade_5_Evan_Moor_95.jpeg
p109
asg29
Vimage_id
p110
sbag6
(g22
g8
Ntp111
Rp112
(dp113
g26
(lp114
V[{"id":"T8","category":"unlabeled"},{"id":"T9","category":"Discussion"},{"id":"T6","category":"unlabeled"},{"id":"T7","category":"Discussion"},{"id":"T4","category":"Header/Topic"},{"id":"T5","category":"unlabeled"},{"id":"T2","category":"unlabeled"},{"id":"T3","category":"unlabeled"},{"id":"T1","category":"unlabeled"},{"id":"T14","category":"unlabeled"},{"id":"T15","category":"unlabeled"},{"id":"T16","category":"unlabeled"},{"id":"T17","category":"unlabeled"},{"id":"T10","category":"unlabeled"},{"id":"T11","category":"unlabeled"},{"id":"T12","category":"unlabeled"},{"id":"T13","category":"unlabeled"},{"id":"T18","category":"unlabeled"}]
p115
asg29
Vresults
p116
sbatp117
Rp118
(dp119
g40
I01
sg41
Nsg42
Nsg43
(lp120
(g45
g22
tp121
asg47
Nsg48
Nsg49
I00
sg50
Nsg51
Nsg52
Nsg53
Nsg54
V\u000a
p122
sg56
Nsbasg57
V2016-06-08T04:54:11Z
p123
sg59
V3L7SUC0TTUV39YP3TW6XPGVKLNK0MP
p124
sg61
g62
sg63
VSubmitted
p125
sg65
V2016-06-08T19:07:34Z
p126
sbasV3D1UCPY6GGAK51MWIIEXMWSW4UF38Z
p127
(lp128
g6
(g7
g8
Ntp129
Rp130
(dp131
g12
V2016-07-08T05:06:59Z
p132
sg14
V3GA6AFUKOOPGLWLJBOD4NTGF1EBH31
p133
sg16
VA03922113RU44GENR8ATX
p134
sg18
(lp135
g6
(g20
g1
(lp136
g6
(g22
g8
Ntp137
Rp138
(dp139
g26
(lp140
VDaily_Science_Grade_5_Evan_Moor_41.jpeg
p141
asg29
Vimage_id
p142
sbag6
(g22
g8
Ntp143
Rp144
(dp145
g26
(lp146
V[{"id":"T14","category":"unlabeled"},{"id":"T15","category":"unlabeled"},{"id":"T16","category":"Figure Label"},{"id":"T17","category":"Definition"},{"id":"T10","category":"unlabeled"},{"id":"T11","category":"unlabeled"},{"id":"T12","category":"Discussion"},{"id":"T13","category":"Definition"},{"id":"T18","category":"Figure Label"},{"id":"T19","category":"unlabeled"},{"id":"T30","category":"unlabeled"},{"id":"T31","category":"unlabeled"},{"id":"T32","category":"unlabeled"},{"id":"T8","category":"Discussion"},{"id":"T9","category":"unlabeled"},{"id":"T6","category":"unlabeled"},{"id":"T7","category":"Header/Topic"},{"id":"T4","category":"unlabeled"},{"id":"T5","category":"unlabeled"},{"id":"T2","category":"unlabeled"},{"id":"T3","category":"unlabeled"},{"id":"T1","category":"unlabeled"},{"id":"T29","category":"unlabeled"},{"id":"T28","category":"Question"},{"id":"T21","category":"Figure Label"},{"id":"T20","category":"Definition"},{"id":"T23","category":"Figure Label"},{"id":"T22","category":"Figure Label"},{"id":"T25","category":"Question"},{"id":"T24","category":"Question"},{"id":"T27","category":"Question"},{"id":"T26","category":"Question"}]
p147
asg29
Vresults
p148
sbatp149
Rp150
(dp151
g40
I01
sg41
Nsg42
Nsg43
(lp152
(g45
g22
tp153
asg47
Nsg48
Nsg49
I00
sg50
Nsg51
Nsg52
Nsg53
Nsg54
V\u000a
p154
sg56
Nsbasg57
V2016-06-08T04:40:09Z
p155
sg59
V3D1UCPY6GGAK51MWIIEXMWSW4UF38Z
p156
sg61
g62
sg63
VSubmitted
p157
sg65
V2016-06-08T05:06:59Z
p158
sbag6
(g7
g8
Ntp159
Rp160
(dp161
g12
V2016-07-08T05:45:35Z
p162
sg14
V3DEL4X4EL6MENPIM5DOGG90MY5SYXK
p163
sg16
VA2RSOGTSR83XKO
p164
sg18
(lp165
g6
(g20
g1
(lp166
g6
(g22
g8
Ntp167
Rp168
(dp169
g26
(lp170
VDaily_Science_Grade_5_Evan_Moor_41.jpeg
p171
asg29
Vimage_id
p172
sbag6
(g22
g8
Ntp173
Rp174
(dp175
g26
(lp176
V[{"id":"T14","category":"unlabeled"},{"id":"T15","category":"unlabeled"},{"id":"T16","category":"Figure Label"},{"id":"T17","category":"Definition"},{"id":"T10","category":"unlabeled"},{"id":"T11","category":"unlabeled"},{"id":"T12","category":"Discussion"},{"id":"T13","category":"Definition"},{"id":"T18","category":"Figure Label"},{"id":"T19","category":"unlabeled"},{"id":"T30","category":"unlabeled"},{"id":"T31","category":"unlabeled"},{"id":"T32","category":"unlabeled"},{"id":"T8","category":"Discussion"},{"id":"T9","category":"unlabeled"},{"id":"T6","category":"unlabeled"},{"id":"T7","category":"Header/Topic"},{"id":"T4","category":"unlabeled"},{"id":"T5","category":"unlabeled"},{"id":"T2","category":"unlabeled"},{"id":"T3","category":"unlabeled"},{"id":"T1","category":"unlabeled"},{"id":"T29","category":"unlabeled"},{"id":"T28","category":"Question"},{"id":"T21","category":"Figure Label"},{"id":"T20","category":"Definition"},{"id":"T23","category":"Figure Label"},{"id":"T22","category":"Figure Label"},{"id":"T25","category":"Question"},{"id":"T24","category":"Question"},{"id":"T27","category":"Question"},{"id":"T26","category":"Question"}]
p177
asg29
Vresults
p178
sbatp179
Rp180
(dp181
g40
I01
sg41
Nsg42
Nsg43
(lp182
(g45
g22
tp183
asg47
Nsg48
Nsg49
I00
sg50
Nsg51
Nsg52
Nsg53
Nsg54
V\u000a
p184
sg56
Nsbasg57
V2016-06-08T05:45:08Z
p185
sg59
V3D1UCPY6GGAK51MWIIEXMWSW4UF38Z
p186
sg61
g62
sg63
VSubmitted
p187
sg65
V2016-06-08T05:45:35Z
p188
sbag6
(g7
g8
Ntp189
Rp190
(dp191
g12
V2016-07-08T19:13:24Z
p192
sg14
V3JJVG1YBEBY98Y51PFR1GFB1KX05B2
p193
sg16
VA3TXJLD6JNR280
p194
sg18
(lp195
g6
(g20
g1
(lp196
g6
(g22
g8
Ntp197
Rp198
(dp199
g26
(lp200
VDaily_Science_Grade_5_Evan_Moor_41.jpeg
p201
asg29
Vimage_id
p202
sbag6
(g22
g8
Ntp203
Rp204
(dp205
g26
(lp206
V[{"id":"T14","category":"unlabeled"},{"id":"T15","category":"unlabeled"},{"id":"T16","category":"Figure Label"},{"id":"T17","category":"Definition"},{"id":"T10","category":"Discussion"},{"id":"T11","category":"Definition"},{"id":"T12","category":"Discussion"},{"id":"T13","category":"Definition"},{"id":"T18","category":"Figure Label"},{"id":"T19","category":"unlabeled"},{"id":"T30","category":"unlabeled"},{"id":"T31","category":"unlabeled"},{"id":"T32","category":"unlabeled"},{"id":"T8","category":"Discussion"},{"id":"T9","category":"unlabeled"},{"id":"T6","category":"unlabeled"},{"id":"T7","category":"Header/Topic"},{"id":"T4","category":"unlabeled"},{"id":"T5","category":"unlabeled"},{"id":"T2","category":"unlabeled"},{"id":"T3","category":"unlabeled"},{"id":"T1","category":"unlabeled"},{"id":"T29","category":"unlabeled"},{"id":"T28","category":"Question"},{"id":"T21","category":"Figure Label"},{"id":"T20","category":"Definition"},{"id":"T23","category":"Figure Label"},{"id":"T22","category":"Figure Label"},{"id":"T25","category":"unlabeled"},{"id":"T24","category":"Question"},{"id":"T27","category":"unlabeled"},{"id":"T26","category":"unlabeled"}]
p207
asg29
Vresults
p208
sbatp209
Rp210
(dp211
g40
I01
sg41
Nsg42
Nsg43
(lp212
(g45
g22
tp213
asg47
Nsg48
Nsg49
I00
sg50
Nsg51
Nsg52
Nsg53
Nsg54
V\u000a
p214
sg56
Nsbasg57
V2016-06-08T05:37:59Z
p215
sg59
V3D1UCPY6GGAK51MWIIEXMWSW4UF38Z
p216
sg61
g62
sg63
VSubmitted
p217
sg65
V2016-06-08T19:13:24Z
p218
sbasV3RBI0I35XE4ZK7DEVMCRL9GYX9HY37
p219
(lp220
g6
(g7
g8
Ntp221
Rp222
(dp223
g12
V2016-07-08T03:24:14Z
p224
sg14
V3P1L2B7AD1Q7THXVL7CU3O7XDMBOL5
p225
sg16
VAAC5XT7UY7B2K
p226
sg18
(lp227
g6
(g20
g1
(lp228
g6
(g22
g8
Ntp229
Rp230
(dp231
g26
(lp232
VDaily_Science_Grade_6_(Daily_Practice_Books)_Evan_Moor_83.jpeg
p233
asg29
Vimage_id
p234
sbag6
(g22
g8
Ntp235
Rp236
(dp237
g26
(lp238
V[{"id":"T8","category":"unlabeled"},{"id":"T9","category":"Definition"},{"id":"T6","category":"Discussion"},{"id":"T7","category":"unlabeled"},{"id":"T4","category":"Header/Topic"},{"id":"T5","category":"unlabeled"},{"id":"T2","category":"unlabeled"},{"id":"T3","category":"unlabeled"},{"id":"T1","category":"unlabeled"},{"id":"T14","category":"Question"},{"id":"T15","category":"unlabeled"},{"id":"T16","category":"unlabeled"},{"id":"T17","category":"unlabeled"},{"id":"T10","category":"Definition"},{"id":"T11","category":"Question"},{"id":"T12","category":"Question"},{"id":"T13","category":"Question"},{"id":"T18","category":"unlabeled"},{"id":"T19","category":"unlabeled"}]
p239
asg29
Vresults
p240
sbatp241
Rp242
(dp243
g40
I01
sg41
Nsg42
Nsg43
(lp244
(g45
g22
tp245
asg47
Nsg48
Nsg49
I00
sg50
Nsg51
Nsg52
Nsg53
Nsg54
V\u000a
p246
sg56
Nsbasg57
V2016-06-08T03:22:20Z
p247
sg59
V3RBI0I35XE4ZK7DEVMCRL9GYX9HY37
p248
sg61
g62
sg63
VSubmitted
p249
sg65
V2016-06-08T03:24:14Z
p250
sbag6
(g7
g8
Ntp251
Rp252
(dp253
g12
V2016-07-08T05:29:45Z
p254
sg14
V3EJPLAJKEMH1908V0CH9U3W47VX6ZP
p255
sg16
VAL8NYDL4JOYL3
p256
sg18
(lp257
g6
(g20
g1
(lp258
g6
(g22
g8
Ntp259
Rp260
(dp261
g26
(lp262
VDaily_Science_Grade_6_(Daily_Practice_Books)_Evan_Moor_83.jpeg
p263
asg29
Vimage_id
p264
sbag6
(g22
g8
Ntp265
Rp266
(dp267
g26
(lp268
V[{"id":"T8","category":"unlabeled"},{"id":"T9","category":"Definition"},{"id":"T6","category":"Discussion"},{"id":"T7","category":"unlabeled"},{"id":"T4","category":"Header/Topic"},{"id":"T5","category":"unlabeled"},{"id":"T2","category":"unlabeled"},{"id":"T3","category":"unlabeled"},{"id":"T1","category":"unlabeled"},{"id":"T14","category":"Question"},{"id":"T15","category":"unlabeled"},{"id":"T16","category":"unlabeled"},{"id":"T17","category":"unlabeled"},{"id":"T10","category":"Definition"},{"id":"T11","category":"Question"},{"id":"T12","category":"Question"},{"id":"T13","category":"Question"},{"id":"T18","category":"unlabeled"},{"id":"T19","category":"unlabeled"}]
p269
asg29
Vresults
p270
sbatp271
Rp272
(dp273
g40
I01
sg41
Nsg42
Nsg43
(lp274
(g45
g22
tp275
asg47
Nsg48
Nsg49
I00
sg50
Nsg51
Nsg52
Nsg53
Nsg54
V\u000a
p276
sg56
Nsbasg57
V2016-06-08T05:28:36Z
p277
sg59
V3RBI0I35XE4ZK7DEVMCRL9GYX9HY37
p278
sg61
g62
sg63
VSubmitted
p279
sg65
V2016-06-08T05:29:45Z
p280
sbag6
(g7
g8
Ntp281
Rp282
(dp283
g12
V2016-07-08T19:15:25Z
p284
sg14
V3F0BG9B9MPOK8ACVN0KIMANYWCD7YY
p285
sg16
VA3TXJLD6JNR280
p286
sg18
(lp287
g6
(g20
g1
(lp288
g6
(g22
g8
Ntp289
Rp290
(dp291
g26
(lp292
VDaily_Science_Grade_6_(Daily_Practice_Books)_Evan_Moor_83.jpeg
p293
asg29
Vimage_id
p294
sbag6
(g22
g8
Ntp295
Rp296
(dp297
g26
(lp298
V[{"id":"T8","category":"Definition"},{"id":"T9","category":"Definition"},{"id":"T6","category":"Discussion"},{"id":"T7","category":"unlabeled"},{"id":"T4","category":"Header/Topic"},{"id":"T5","category":"unlabeled"},{"id":"T2","category":"unlabeled"},{"id":"T3","category":"unlabeled"},{"id":"T1","category":"unlabeled"},{"id":"T14","category":"Question"},{"id":"T15","category":"unlabeled"},{"id":"T16","category":"unlabeled"},{"id":"T17","category":"unlabeled"},{"id":"T10","category":"Definition"},{"id":"T11","category":"Question"},{"id":"T12","category":"Question"},{"id":"T13","category":"Question"},{"id":"T18","category":"unlabeled"},{"id":"T19","category":"unlabeled"}]
p299
asg29
Vresults
p300
sbatp301
Rp302
(dp303
g40
I01
sg41
Nsg42
Nsg43
(lp304
(g45
g22
tp305
asg47
Nsg48
Nsg49
I00
sg50
Nsg51
Nsg52
Nsg53
Nsg54
V\u000a
p306
sg56
Nsbasg57
V2016-06-08T05:38:20Z
p307
sg59
V3RBI0I35XE4ZK7DEVMCRL9GYX9HY37
p308
sg61
g62
sg63
VSubmitted
p309
sg65
V2016-06-08T19:15:25Z
p310
sbasV3V0TR1NRVA3J6LYFFU3USSQX8IC4AQ
p311
(lp312
g6
(g7
g8
Ntp313
Rp314
(dp315
g12
V2016-07-08T05:16:57Z
p316
sg14
V32ZKVD547FO6UJIXBW381IDH615B3E
p317
sg16
VA03922113RU44GENR8ATX
p318
sg18
(lp319
g6
(g20
g1
(lp320
g6
(g22
g8
Ntp321
Rp322
(dp323
g26
(lp324
VDaily_Science_Grade_6_(Daily_Practice_Books)_Evan_Moor_93.jpeg
p325
asg29
Vimage_id
p326
sbag6
(g22
g8
Ntp327
Rp328
(dp329
g26
(lp330
V[{"id":"T14","category":"Question"},{"id":"T15","category":"Question"},{"id":"T16","category":"Question"},{"id":"T17","category":"Question"},{"id":"T10","category":"Question"},{"id":"T11","category":"Question"},{"id":"T12","category":"Question"},{"id":"T13","category":"Question"},{"id":"T34","category":"unlabeled"},{"id":"T35","category":"unlabeled"},{"id":"T18","category":"Question"},{"id":"T19","category":"Question"},{"id":"T30","category":"Question"},{"id":"T31","category":"Question"},{"id":"T32","category":"unlabeled"},{"id":"T33","category":"unlabeled"},{"id":"T8","category":"unlabeled"},{"id":"T9","category":"Question"},{"id":"T6","category":"unlabeled"},{"id":"T7","category":"Question"},{"id":"T4","category":"Header/Topic"},{"id":"T5","category":"unlabeled"},{"id":"T2","category":"unlabeled"},{"id":"T3","category":"unlabeled"},{"id":"T1","category":"unlabeled"},{"id":"T29","category":"Question"},{"id":"T28","category":"Question"},{"id":"T21","category":"Question"},{"id":"T20","category":"Question"},{"id":"T23","category":"Question"},{"id":"T22","category":"Question"},{"id":"T25","category":"Question"},{"id":"T24","category":"Question"},{"id":"T27","category":"Question"},{"id":"T26","category":"Question"}]
p331
asg29
Vresults
p332
sbatp333
Rp334
(dp335
g40
I01
sg41
Nsg42
Nsg43
(lp336
(g45
g22
tp337
asg47
Nsg48
Nsg49
I00
sg50
Nsg51
Nsg52
Nsg53
Nsg54
V\u000a
p338
sg56
Nsbasg57
V2016-06-08T04:41:09Z
p339
sg59
V3V0TR1NRVA3J6LYFFU3USSQX8IC4AQ
p340
sg61
g62
sg63
VSubmitted
p341
sg65
V2016-06-08T05:16:57Z
p342
sbag6
(g7
g8
Ntp343
Rp344
(dp345
g12
V2016-07-08T05:54:10Z
p346
sg14
V3IXEICO792K5NOZWUKSR8FVNMZCT6X
p347
sg16
VA2RSOGTSR83XKO
p348
sg18
(lp349
g6
(g20
g1
(lp350
g6
(g22
g8
Ntp351
Rp352
(dp353
g26
(lp354
VDaily_Science_Grade_6_(Daily_Practice_Books)_Evan_Moor_93.jpeg
p355
asg29
Vimage_id
p356
sbag6
(g22
g8
Ntp357
Rp358
(dp359
g26
(lp360
V[{"id":"T14","category":"Question"},{"id":"T15","category":"Question"},{"id":"T16","category":"Question"},{"id":"T17","category":"Question"},{"id":"T10","category":"Question"},{"id":"T11","category":"Question"},{"id":"T12","category":"Question"},{"id":"T13","category":"Question"},{"id":"T34","category":"unlabeled"},{"id":"T35","category":"unlabeled"},{"id":"T18","category":"Question"},{"id":"T19","category":"Question"},{"id":"T30","category":"Question"},{"id":"T31","category":"Question"},{"id":"T32","category":"unlabeled"},{"id":"T33","category":"unlabeled"},{"id":"T8","category":"unlabeled"},{"id":"T9","category":"Question"},{"id":"T6","category":"unlabeled"},{"id":"T7","category":"Question"},{"id":"T4","category":"Header/Topic"},{"id":"T5","category":"unlabeled"},{"id":"T2","category":"unlabeled"},{"id":"T3","category":"unlabeled"},{"id":"T1","category":"unlabeled"},{"id":"T29","category":"Question"},{"id":"T28","category":"Question"},{"id":"T21","category":"Question"},{"id":"T20","category":"Question"},{"id":"T23","category":"unlabeled"},{"id":"T22","category":"Question"},{"id":"T25","category":"Question"},{"id":"T24","category":"Question"},{"id":"T27","category":"Question"},{"id":"T26","category":"Question"}]
p361
asg29
Vresults
p362
sbatp363
Rp364
(dp365
g40
I01
sg41
Nsg42
Nsg43
(lp366
(g45
g22
tp367
asg47
Nsg48
Nsg49
I00
sg50
Nsg51
Nsg52
Nsg53
Nsg54
V\u000a
p368
sg56
Nsbasg57
V2016-06-08T05:53:39Z
p369
sg59
V3V0TR1NRVA3J6LYFFU3USSQX8IC4AQ
p370
sg61
g62
sg63
VSubmitted
p371
sg65
V2016-06-08T05:54:10Z
p372
sbag6
(g7
g8
Ntp373
Rp374
(dp375
g12
V2016-07-08T19:14:05Z
p376
sg14
V30JNVC0OR9L8SXRL9ZP0019QB6SQHG
p377
sg16
VA3TXJLD6JNR280
p378
sg18
(lp379
g6
(g20
g1
(lp380
g6
(g22
g8
Ntp381
Rp382
(dp383
g26
(lp384
VDaily_Science_Grade_6_(Daily_Practice_Books)_Evan_Moor_93.jpeg
p385
asg29
Vimage_id
p386
sbag6
(g22
g8
Ntp387
Rp388
(dp389
g26
(lp390
V[{"id":"T14","category":"Question"},{"id":"T15","category":"Question"},{"id":"T16","category":"Question"},{"id":"T17","category":"Question"},{"id":"T10","category":"Question"},{"id":"T11","category":"Question"},{"id":"T12","category":"Question"},{"id":"T13","category":"Question"},{"id":"T34","category":"unlabeled"},{"id":"T35","category":"unlabeled"},{"id":"T18","category":"Question"},{"id":"T19","category":"Question"},{"id":"T30","category":"Question"},{"id":"T31","category":"Question"},{"id":"T32","category":"unlabeled"},{"id":"T33","category":"unlabeled"},{"id":"T8","category":"unlabeled"},{"id":"T9","category":"Question"},{"id":"T6","category":"unlabeled"},{"id":"T7","category":"Question"},{"id":"T4","category":"Header/Topic"},{"id":"T5","category":"unlabeled"},{"id":"T2","category":"unlabeled"},{"id":"T3","category":"unlabeled"},{"id":"T1","category":"unlabeled"},{"id":"T29","category":"Question"},{"id":"T28","category":"Question"},{"id":"T21","category":"Question"},{"id":"T20","category":"Question"},{"id":"T23","category":"Question"},{"id":"T22","category":"Question"},{"id":"T25","category":"Question"},{"id":"T24","category":"Question"},{"id":"T27","category":"Question"},{"id":"T26","category":"Question"}]
p391
asg29
Vresults
p392
sbatp393
Rp394
(dp395
g40
I01
sg41
Nsg42
Nsg43
(lp396
(g45
g22
tp397
asg47
Nsg48
Nsg49
I00
sg50
Nsg51
Nsg52
Nsg53
Nsg54
V\u000a
p398
sg56
Nsbasg57
V2016-06-08T05:38:14Z
p399
sg59
V3V0TR1NRVA3J6LYFFU3USSQX8IC4AQ
p400
sg61
g62
sg63
VSubmitted
p401
sg65
V2016-06-08T19:14:05Z
p402
sbasV3TLFH2L6Y9PEI3I1HGBNUIJRCT02TC
p403
(lp404
g6
(g7
g8
Ntp405
Rp406
(dp407
g12
V2016-07-08T04:30:13Z
p408
sg14
V37TD41K0AHATO5VIFB04KARBG24SCU
p409
sg16
VA36PFUM96J0ES6
p410
sg18
(lp411
g6
(g20
g1
(lp412
g6
(g22
g8
Ntp413
Rp414
(dp415
g26
(lp416
VDaily_Science_Grade_4_Evan_Moor_25.jpeg
p417
asg29
Vimage_id
p418
sbag6
(g22
g8
Ntp419
Rp420
(dp421
g26
(lp422
V[{"id":"T14","category":"Question"},{"id":"T15","category":"Question"},{"id":"T16","category":"unlabeled"},{"id":"T17","category":"Question"},{"id":"T10","category":"Figure Label"},{"id":"T11","category":"unlabeled"},{"id":"T12","category":"Question"},{"id":"T13","category":"Question"},{"id":"T18","category":"unlabeled"},{"id":"T19","category":"unlabeled"},{"id":"T8","category":"unlabeled"},{"id":"T9","category":"Question"},{"id":"T6","category":"unlabeled"},{"id":"T7","category":"Discussion"},{"id":"T4","category":"unlabeled"},{"id":"T5","category":"Header/Topic"},{"id":"T2","category":"unlabeled"},{"id":"T3","category":"unlabeled"},{"id":"T1","category":"unlabeled"},{"id":"T21","category":"unlabeled"},{"id":"T20","category":"unlabeled"},{"id":"T22","category":"unlabeled"}]
p423
asg29
Vresults
p424
sbatp425
Rp426
(dp427
g40
I01
sg41
Nsg42
Nsg43
(lp428
(g45
g22
tp429
asg47
Nsg48
Nsg49
I00
sg50
Nsg51
Nsg52
Nsg53
Nsg54
V\u000a
p430
sg56
Nsbasg57
V2016-06-08T04:29:49Z
p431
sg59
V3TLFH2L6Y9PEI3I1HGBNUIJRCT02TC
p432
sg61
g62
sg63
VSubmitted
p433
sg65
V2016-06-08T04:30:13Z
p434
sbag6
(g7
g8
Ntp435
Rp436
(dp437
g12
V2016-07-08T05:52:45Z
p438
sg14
V336KAV9KYQTDM9FPHO3NQJ6QLWP2YB
p439
sg16
VA3I9WD8P9RBFHR
p440
sg18
(lp441
g6
(g20
g1
(lp442
g6
(g22
g8
Ntp443
Rp444
(dp445
g26
(lp446
VDaily_Science_Grade_4_Evan_Moor_25.jpeg
p447
asg29
Vimage_id
p448
sbag6
(g22
g8
Ntp449
Rp450
(dp451
g26
(lp452
V[{"id":"T14","category":"Question"},{"id":"T15","category":"Question"},{"id":"T16","category":"unlabeled"},{"id":"T17","category":"Question"},{"id":"T10","category":"Figure Label"},{"id":"T11","category":"unlabeled"},{"id":"T12","category":"Question"},{"id":"T13","category":"Question"},{"id":"T18","category":"unlabeled"},{"id":"T19","category":"unlabeled"},{"id":"T8","category":"unlabeled"},{"id":"T9","category":"Question"},{"id":"T6","category":"unlabeled"},{"id":"T7","category":"Discussion"},{"id":"T4","category":"unlabeled"},{"id":"T5","category":"Header/Topic"},{"id":"T2","category":"unlabeled"},{"id":"T3","category":"unlabeled"},{"id":"T1","category":"unlabeled"},{"id":"T21","category":"unlabeled"},{"id":"T20","category":"unlabeled"},{"id":"T22","category":"unlabeled"}]
p453
asg29
Vresults
p454
sbatp455
Rp456
(dp457
g40
I01
sg41
Nsg42
Nsg43
(lp458
(g45
g22
tp459
asg47
Nsg48
Nsg49
I00
sg50
Nsg51
Nsg52
Nsg53
Nsg54
V\u000a
p460
sg56
Nsbasg57
V2016-06-08T05:10:24Z
p461
sg59
V3TLFH2L6Y9PEI3I1HGBNUIJRCT02TC
p462
sg61
g62
sg63
VSubmitted
p463
sg65
V2016-06-08T05:52:45Z
p464
sbag6
(g7
g8
Ntp465
Rp466
(dp467
g12
V2016-07-08T19:08:08Z
p468
sg14
V3F0BG9B9MPOK8ACVN0KIMANYWCCY7O
p469
sg16
VA3TXJLD6JNR280
p470
sg18
(lp471
g6
(g20
g1
(lp472
g6
(g22
g8
Ntp473
Rp474
(dp475
g26
(lp476
VDaily_Science_Grade_4_Evan_Moor_25.jpeg
p477
asg29
Vimage_id
p478
sbag6
(g22
g8
Ntp479
Rp480
(dp481
g26
(lp482
V[{"id":"T14","category":"Discussion"},{"id":"T15","category":"Discussion"},{"id":"T16","category":"unlabeled"},{"id":"T17","category":"unlabeled"},{"id":"T10","category":"Figure Label"},{"id":"T11","category":"unlabeled"},{"id":"T12","category":"Discussion"},{"id":"T13","category":"Discussion"},{"id":"T18","category":"unlabeled"},{"id":"T19","category":"unlabeled"},{"id":"T8","category":"unlabeled"},{"id":"T9","category":"Discussion"},{"id":"T6","category":"unlabeled"},{"id":"T7","category":"Discussion"},{"id":"T4","category":"unlabeled"},{"id":"T5","category":"Header/Topic"},{"id":"T2","category":"unlabeled"},{"id":"T3","category":"unlabeled"},{"id":"T1","category":"unlabeled"},{"id":"T21","category":"unlabeled"},{"id":"T20","category":"unlabeled"},{"id":"T22","category":"unlabeled"}]
p483
asg29
Vresults
p484
sbatp485
Rp486
(dp487
g40
I01
sg41
Nsg42
Nsg43
(lp488
(g45
g22
tp489
asg47
Nsg48
Nsg49
I00
sg50
Nsg51
Nsg52
Nsg53
Nsg54
V\u000a
p490
sg56
Nsbasg57
V2016-06-08T05:19:44Z
p491
sg59
V3TLFH2L6Y9PEI3I1HGBNUIJRCT02TC
p492
sg61
g62
sg63
VSubmitted
p493
sg65
V2016-06-08T19:08:08Z
p494
sbasV3XUSYT70IT2054JQG37U6Q8QC9S0D7
p495
(lp496
g6
(g7
g8
Ntp497
Rp498
(dp499
g12
V2016-07-08T04:48:20Z
p500
sg14
V30MVJZJNHMEYR45PGXHZQJZGEYP9JF
p501
sg16
VA36PFUM96J0ES6
p502
sg18
(lp503
g6
(g20
g1
(lp504
g6
(g22
g8
Ntp505
Rp506
(dp507
g26
(lp508
VDaily_Science_Grade_5_Evan_Moor_17.jpeg
p509
asg29
Vimage_id
p510
sbag6
(g22
g8
Ntp511
Rp512
(dp513
g26
(lp514
V[{"id":"T14","category":"Question"},{"id":"T15","category":"Question"},{"id":"T16","category":"Question"},{"id":"T17","category":"Question"},{"id":"T10","category":"Question"},{"id":"T11","category":"Definition"},{"id":"T12","category":"Definition"},{"id":"T13","category":"unlabeled"},{"id":"T18","category":"Question"},{"id":"T19","category":"unlabeled"},{"id":"T8","category":"Definition"},{"id":"T9","category":"Definition"},{"id":"T6","category":"Discussion"},{"id":"T7","category":"unlabeled"},{"id":"T4","category":"Header/Topic"},{"id":"T5","category":"unlabeled"},{"id":"T2","category":"unlabeled"},{"id":"T3","category":"unlabeled"},{"id":"T1","category":"unlabeled"},{"id":"T21","category":"unlabeled"},{"id":"T20","category":"unlabeled"},{"id":"T23","category":"unlabeled"},{"id":"T22","category":"unlabeled"}]
p515
asg29
Vresults
p516
sbatp517
Rp518
(dp519
g40
I01
sg41
Nsg42
Nsg43
(lp520
(g45
g22
tp521
asg47
Nsg48
Nsg49
I00
sg50
Nsg51
Nsg52
Nsg53
Nsg54
V\u000a
p522
sg56
Nsbasg57
V2016-06-08T04:47:46Z
p523
sg59
V3XUSYT70IT2054JQG37U6Q8QC9S0D7
p524
sg61
g62
sg63
VSubmitted
p525
sg65
V2016-06-08T04:48:20Z
p526
sbag6
(g7
g8
Ntp527
Rp528
(dp529
g12
V2016-07-08T05:01:04Z
p530
sg14
V3QBD8R3Z21KBV9QAFFDDH75MR0LO4H
p531
sg16
VA230N919X9GWNN
p532
sg18
(lp533
g6
(g20
g1
(lp534
g6
(g22
g8
Ntp535
Rp536
(dp537
g26
(lp538
VDaily_Science_Grade_5_Evan_Moor_17.jpeg
p539
asg29
Vimage_id
p540
sbag6
(g22
g8
Ntp541
Rp542
(dp543
g26
(lp544
V[{"id":"T14","category":"Question"},{"id":"T15","category":"Question"},{"id":"T16","category":"Question"},{"id":"T17","category":"Question"},{"id":"T10","category":"Question"},{"id":"T11","category":"unlabeled"},{"id":"T12","category":"Definition"},{"id":"T13","category":"unlabeled"},{"id":"T18","category":"Question"},{"id":"T19","category":"unlabeled"},{"id":"T8","category":"Definition"},{"id":"T9","category":"Definition"},{"id":"T6","category":"Discussion"},{"id":"T7","category":"unlabeled"},{"id":"T4","category":"Header/Topic"},{"id":"T5","category":"unlabeled"},{"id":"T2","category":"unlabeled"},{"id":"T3","category":"unlabeled"},{"id":"T1","category":"unlabeled"},{"id":"T21","category":"unlabeled"},{"id":"T20","category":"unlabeled"},{"id":"T23","category":"unlabeled"},{"id":"T22","category":"unlabeled"}]
p545
asg29
Vresults
p546
sbatp547
Rp548
(dp549
g40
I01
sg41
Nsg42
Nsg43
(lp550
(g45
g22
tp551
asg47
Nsg48
Nsg49
I00
sg50
Nsg51
Nsg52
Nsg53
Nsg54
V\u000a
p552
sg56
Nsbasg57
V2016-06-08T04:57:44Z
p553
sg59
V3XUSYT70IT2054JQG37U6Q8QC9S0D7
p554
sg61
g62
sg63
VSubmitted
p555
sg65
V2016-06-08T05:01:04Z
p556
sbag6
(g7
g8
Ntp557
Rp558
(dp559
g12
V2016-07-08T19:11:39Z
p560
sg14
V37UQDCYH6XW34GHQIPXYFBJ4EVB7VP
p561
sg16
VA3TXJLD6JNR280
p562
sg18
(lp563
g6
(g20
g1
(lp564
g6
(g22
g8
Ntp565
Rp566
(dp567
g26
(lp568
VDaily_Science_Grade_5_Evan_Moor_17.jpeg
p569
asg29
Vimage_id
p570
sbag6
(g22
g8
Ntp571
Rp572
(dp573
g26
(lp574
V[{"id":"T14","category":"Question"},{"id":"T15","category":"Question"},{"id":"T16","category":"Question"},{"id":"T17","category":"Question"},{"id":"T10","category":"Question"},{"id":"T11","category":"unlabeled"},{"id":"T12","category":"Definition"},{"id":"T13","category":"unlabeled"},{"id":"T18","category":"Question"},{"id":"T19","category":"unlabeled"},{"id":"T8","category":"Definition"},{"id":"T9","category":"Definition"},{"id":"T6","category":"Discussion"},{"id":"T7","category":"unlabeled"},{"id":"T4","category":"Header/Topic"},{"id":"T5","category":"unlabeled"},{"id":"T2","category":"unlabeled"},{"id":"T3","category":"unlabeled"},{"id":"T1","category":"unlabeled"},{"id":"T21","category":"unlabeled"},{"id":"T20","category":"unlabeled"},{"id":"T23","category":"unlabeled"},{"id":"T22","category":"unlabeled"}]
p575
asg29
Vresults
p576
sbatp577
Rp578
(dp579
g40
I01
sg41
Nsg42
Nsg43
(lp580
(g45
g22
tp581
asg47
Nsg48
Nsg49
I00
sg50
Nsg51
Nsg52
Nsg53
Nsg54
V\u000a
p582
sg56
Nsbasg57
V2016-06-08T05:37:48Z
p583
sg59
V3XUSYT70IT2054JQG37U6Q8QC9S0D7
p584
sg61
g62
sg63
VSubmitted
p585
sg65
V2016-06-08T19:11:39Z
p586
sbasV3EFNPKWBMSP2NCHTNE1ITHMELW3039
p587
(lp588
g6
(g7
g8
Ntp589
Rp590
(dp591
g12
V2016-07-08T05:23:42Z
p592
sg14
V34S9DKFK73Q9BV4I3717I79OWRHNYO
p593
sg16
VA3HSGURL7PBDIX
p594
sg18
(lp595
g6
(g20
g1
(lp596
g6
(g22
g8
Ntp597
Rp598
(dp599
g26
(lp600
VDaily_Science_Grade_4_Evan_Moor_78.jpeg
p601
asg29
Vimage_id
p602
sbag6
(g22
g8
Ntp603
Rp604
(dp605
g26
(lp606
V[{"id":"T14","category":"unlabeled"},{"id":"T15","category":"Question"},{"id":"T16","category":"Question"},{"id":"T17","category":"Question"},{"id":"T10","category":"Discussion"},{"id":"T11","category":"Definition"},{"id":"T12","category":"Discussion"},{"id":"T13","category":"Definition"},{"id":"T18","category":"Question"},{"id":"T19","category":"Question"},{"id":"T8","category":"Discussion"},{"id":"T9","category":"Definition"},{"id":"T6","category":"Discussion"},{"id":"T7","category":"unlabeled"},{"id":"T4","category":"Header/Topic"},{"id":"T5","category":"unlabeled"},{"id":"T2","category":"unlabeled"},{"id":"T3","category":"unlabeled"},{"id":"T1","category":"unlabeled"},{"id":"T21","category":"Question"},{"id":"T20","category":"Question"},{"id":"T23","category":"unlabeled"},{"id":"T22","category":"unlabeled"},{"id":"T25","category":"unlabeled"},{"id":"T24","category":"unlabeled"}]
p607
asg29
Vresults
p608
sbatp609
Rp610
(dp611
g40
I01
sg41
Nsg42
Nsg43
(lp612
(g45
g22
tp613
asg47
Nsg48
Nsg49
I00
sg50
Nsg51
Nsg52
Nsg53
Nsg54
V\u000a
p614
sg56
Nsbasg57
V2016-06-08T05:23:08Z
p615
sg59
V3EFNPKWBMSP2NCHTNE1ITHMELW3039
p616
sg61
g62
sg63
VSubmitted
p617
sg65
V2016-06-08T05:23:42Z
p618
sbag6
(g7
g8
Ntp619
Rp620
(dp621
g12
V2016-07-08T05:41:15Z
p622
sg14
V3AMYWKA6YBNPAWUOY36SE5P0NRUO65
p623
sg16
VA2RSOGTSR83XKO
p624
sg18
(lp625
g6
(g20
g1
(lp626
g6
(g22
g8
Ntp627
Rp628
(dp629
g26
(lp630
VDaily_Science_Grade_4_Evan_Moor_78.jpeg
p631
asg29
Vimage_id
p632
sbag6
(g22
g8
Ntp633
Rp634
(dp635
g26
(lp636
V[{"id":"T14","category":"Question"},{"id":"T15","category":"Question"},{"id":"T16","category":"Question"},{"id":"T17","category":"Question"},{"id":"T10","category":"Discussion"},{"id":"T11","category":"Definition"},{"id":"T12","category":"Question"},{"id":"T13","category":"Definition"},{"id":"T18","category":"Question"},{"id":"T19","category":"Question"},{"id":"T8","category":"Discussion"},{"id":"T9","category":"unlabeled"},{"id":"T6","category":"Discussion"},{"id":"T7","category":"unlabeled"},{"id":"T4","category":"Header/Topic"},{"id":"T5","category":"unlabeled"},{"id":"T2","category":"unlabeled"},{"id":"T3","category":"unlabeled"},{"id":"T1","category":"unlabeled"},{"id":"T21","category":"Question"},{"id":"T20","category":"Question"},{"id":"T23","category":"unlabeled"},{"id":"T22","category":"unlabeled"},{"id":"T25","category":"unlabeled"},{"id":"T24","category":"unlabeled"}]
p637
asg29
Vresults
p638
sbatp639
Rp640
(dp641
g40
I01
sg41
Nsg42
Nsg43
(lp642
(g45
g22
tp643
asg47
Nsg48
Nsg49
I00
sg50
Nsg51
Nsg52
Nsg53
Nsg54
V\u000a
p644
sg56
Nsbasg57
V2016-06-08T05:40:53Z
p645
sg59
V3EFNPKWBMSP2NCHTNE1ITHMELW3039
p646
sg61
g62
sg63
VSubmitted
p647
sg65
V2016-06-08T05:41:15Z
p648
sbag6
(g7
g8
Ntp649
Rp650
(dp651
g12
V2016-07-08T18:58:41Z
p652
sg14
V3RXCAC0YIRQOMXWE3ZQITACP20P8GK
p653
sg16
VAPLQSM4J9E6LR
p654
sg18
(lp655
g6
(g20
g1
(lp656
g6
(g22
g8
Ntp657
Rp658
(dp659
g26
(lp660
VDaily_Science_Grade_4_Evan_Moor_78.jpeg
p661
asg29
Vimage_id
p662
sbag6
(g22
g8
Ntp663
Rp664
(dp665
g26
(lp666
V[{"id":"T14","category":"Question"},{"id":"T15","category":"Question"},{"id":"T16","category":"Question"},{"id":"T17","category":"Question"},{"id":"T10","category":"Discussion"},{"id":"T11","category":"Definition"},{"id":"T12","category":"Question"},{"id":"T13","category":"Definition"},{"id":"T18","category":"Question"},{"id":"T19","category":"Question"},{"id":"T8","category":"Discussion"},{"id":"T9","category":"Definition"},{"id":"T6","category":"Discussion"},{"id":"T7","category":"unlabeled"},{"id":"T4","category":"Header/Topic"},{"id":"T5","category":"unlabeled"},{"id":"T2","category":"unlabeled"},{"id":"T3","category":"unlabeled"},{"id":"T1","category":"unlabeled"},{"id":"T21","category":"Question"},{"id":"T20","category":"Question"},{"id":"T23","category":"unlabeled"},{"id":"T22","category":"unlabeled"},{"id":"T25","category":"unlabeled"},{"id":"T24","category":"unlabeled"}]
p667
asg29
Vresults
p668
sbatp669
Rp670
(dp671
g40
I01
sg41
Nsg42
Nsg43
(lp672
(g45
g22
tp673
asg47
Nsg48
Nsg49
I00
sg50
Nsg51
Nsg52
Nsg53
Nsg54
V\u000a
p674
sg56
Nsbasg57
V2016-06-08T04:19:21Z
p675
sg59
V3EFNPKWBMSP2NCHTNE1ITHMELW3039
p676
sg61
g62
sg63
VSubmitted
p677
sg65
V2016-06-08T18:58:41Z
p678
sbasV3BS6ERDL938VJF55ISNBFRIHPCED6L
p679
(lp680
g6
(g7
g8
Ntp681
Rp682
(dp683
g12
V2016-07-08T03:47:31Z
p684
sg14
V3ZY8KE4ISJ4DAYM5EO64F20ZJLWVQ4
p685
sg16
VA3HSGURL7PBDIX
p686
sg18
(lp687
g6
(g20
g1
(lp688
g6
(g22
g8
Ntp689
Rp690
(dp691
g26
(lp692
VDaily_Science_Grade_3_(Daily_Practice_Books)_Evan_Moore_165.jpeg
p693
asg29
Vimage_id
p694
sbag6
(g22
g8
Ntp695
Rp696
(dp697
g26
(lp698
V[{"id":"T8","category":"Discussion"},{"id":"T9","category":"Discussion"},{"id":"T6","category":"Discussion"},{"id":"T7","category":"Header/Topic"},{"id":"T4","category":"Discussion"},{"id":"T5","category":"Answer"},{"id":"T2","category":"Header/Topic"},{"id":"T3","category":"unlabeled"},{"id":"T1","category":"unlabeled"},{"id":"T14","category":"Header/Topic"},{"id":"T15","category":"Discussion"},{"id":"T16","category":"Header/Topic"},{"id":"T17","category":"unlabeled"},{"id":"T10","category":"Header/Topic"},{"id":"T11","category":"Discussion"},{"id":"T12","category":"Discussion"},{"id":"T13","category":"unlabeled"},{"id":"T21","category":"unlabeled"},{"id":"T20","category":"unlabeled"},{"id":"T18","category":"Discussion"},{"id":"T19","category":"Header/Topic"}]
p699
asg29
Vresults
p700
sbatp701
Rp702
(dp703
g40
I01
sg41
Nsg42
Nsg43
(lp704
(g45
g22
tp705
asg47
Nsg48
Nsg49
I00
sg50
Nsg51
Nsg52
Nsg53
Nsg54
V\u000a
p706
sg56
Nsbasg57
V2016-06-08T03:46:47Z
p707
sg59
V3BS6ERDL938VJF55ISNBFRIHPCED6L
p708
sg61
g62
sg63
VSubmitted
p709
sg65
V2016-06-08T03:47:31Z
p710
sbag6
(g7
g8
Ntp711
Rp712
(dp713
g12
V2016-07-08T05:00:43Z
p714
sg14
V3L70J4KAZGNZT1F2Y79OJGFNFWBADI
p715
sg16
VA23DD2MEZFE7EU
p716
sg18
(lp717
g6
(g20
g1
(lp718
g6
(g22
g8
Ntp719
Rp720
(dp721
g26
(lp722
VDaily_Science_Grade_3_(Daily_Practice_Books)_Evan_Moore_165.jpeg
p723
asg29
Vimage_id
p724
sbag6
(g22
g8
Ntp725
Rp726
(dp727
g26
(lp728
V[{"id":"T8","category":"unlabeled"},{"id":"T9","category":"Discussion"},{"id":"T6","category":"Discussion"},{"id":"T7","category":"Discussion"},{"id":"T4","category":"Discussion"},{"id":"T5","category":"Discussion"},{"id":"T2","category":"Header/Topic"},{"id":"T3","category":"unlabeled"},{"id":"T1","category":"unlabeled"},{"id":"T14","category":"Discussion"},{"id":"T15","category":"Discussion"},{"id":"T16","category":"Discussion"},{"id":"T17","category":"unlabeled"},{"id":"T10","category":"Discussion"},{"id":"T11","category":"unlabeled"},{"id":"T12","category":"Discussion"},{"id":"T13","category":"Discussion"},{"id":"T21","category":"unlabeled"},{"id":"T20","category":"unlabeled"},{"id":"T18","category":"Discussion"},{"id":"T19","category":"Discussion"}]
p729
asg29
Vresults
p730
sbatp731
Rp732
(dp733
g40
I01
sg41
Nsg42
Nsg43
(lp734
(g45
g22
tp735
asg47
Nsg48
Nsg49
I00
sg50
Nsg51
Nsg52
Nsg53
Nsg54
V\u000a
p736
sg56
Nsbasg57
V2016-06-08T04:59:26Z
p737
sg59
V3BS6ERDL938VJF55ISNBFRIHPCED6L
p738
sg61
g62
sg63
VSubmitted
p739
sg65
V2016-06-08T05:00:43Z
p740
sbag6
(g7
g8
Ntp741
Rp742
(dp743
g12
V2016-07-08T18:57:45Z
p744
sg14
V3NGI5ARFTT6COA5S7X7Q8939PL6P1L
p745
sg16
VAPLQSM4J9E6LR
p746
sg18
(lp747
g6
(g20
g1
(lp748
g6
(g22
g8
Ntp749
Rp750
(dp751
g26
(lp752
VDaily_Science_Grade_3_(Daily_Practice_Books)_Evan_Moore_165.jpeg
p753
asg29
Vimage_id
p754
sbag6
(g22
g8
Ntp755
Rp756
(dp757
g26
(lp758
V[{"id":"T8","category":"unlabeled"},{"id":"T9","category":"Discussion"},{"id":"T6","category":"Discussion"},{"id":"T7","category":"unlabeled"},{"id":"T4","category":"Discussion"},{"id":"T5","category":"unlabeled"},{"id":"T2","category":"Header/Topic"},{"id":"T3","category":"unlabeled"},{"id":"T1","category":"unlabeled"},{"id":"T14","category":"unlabeled"},{"id":"T15","category":"Discussion"},{"id":"T16","category":"unlabeled"},{"id":"T17","category":"unlabeled"},{"id":"T10","category":"unlabeled"},{"id":"T11","category":"unlabeled"},{"id":"T12","category":"Discussion"},{"id":"T13","category":"unlabeled"},{"id":"T21","category":"unlabeled"},{"id":"T20","category":"unlabeled"},{"id":"T18","category":"Discussion"},{"id":"T19","category":"unlabeled"}]
p759
asg29
Vresults
p760
sbatp761
Rp762
(dp763
g40
I01
sg41
Nsg42
Nsg43
(lp764
(g45
g22
tp765
asg47
Nsg48
Nsg49
I00
sg50
Nsg51
Nsg52
Nsg53
Nsg54
V\u000a
p766
sg56
Nsbasg57
V2016-06-08T04:24:45Z
p767
sg59
V3BS6ERDL938VJF55ISNBFRIHPCED6L
p768
sg61
g62
sg63
VSubmitted
p769
sg65
V2016-06-08T18:57:45Z
p770
sbasV3GV1I4SEO9QEHRTXV9LZY4QMYLGL69
p771
(lp772
g6
(g7
g8
Ntp773
Rp774
(dp775
g12
V2016-07-08T02:52:56Z
p776
sg14
V3MD9PLUKKIF9GLENZT3QWEIQ2LBNZ5
p777
sg16
VA333VJ2K6O6R79
p778
sg18
(lp779
g6
(g20
g1
(lp780
g6
(g22
g8
Ntp781
Rp782
(dp783
g26
(lp784
VDaily_Science_Grade_4_Evan_Moor_149.jpeg
p785
asg29
Vimage_id
p786
sbag6
(g22
g8
Ntp787
Rp788
(dp789
g26
(lp790
V[{"id":"T14","category":"Figure Label"},{"id":"T15","category":"Question"},{"id":"T16","category":"Question"},{"id":"T17","category":"Question"},{"id":"T10","category":"unlabeled"},{"id":"T11","category":"Definition"},{"id":"T12","category":"Figure Label"},{"id":"T13","category":"Figure Label"},{"id":"T18","category":"Question"},{"id":"T19","category":"Question"},{"id":"T8","category":"unlabeled"},{"id":"T9","category":"unlabeled"},{"id":"T6","category":"unlabeled"},{"id":"T7","category":"Discussion"},{"id":"T4","category":"Header/Topic"},{"id":"T5","category":"unlabeled"},{"id":"T2","category":"unlabeled"},{"id":"T3","category":"unlabeled"},{"id":"T1","category":"unlabeled"},{"id":"T28","category":"unlabeled"},{"id":"T21","category":"Question"},{"id":"T20","category":"Question"},{"id":"T23","category":"Question"},{"id":"T22","category":"Question"},{"id":"T25","category":"Question"},{"id":"T24","category":"Question"},{"id":"T27","category":"unlabeled"},{"id":"T26","category":"unlabeled"}]
p791
asg29
Vresults
p792
sbatp793
Rp794
(dp795
g40
I01
sg41
Nsg42
Nsg43
(lp796
(g45
g22
tp797
asg47
Nsg48
Nsg49
I00
sg50
Nsg51
Nsg52
Nsg53
Nsg54
V\u000a
p798
sg56
Nsbasg57
V2016-06-08T02:52:34Z
p799
sg59
V3GV1I4SEO9QEHRTXV9LZY4QMYLGL69
p800
sg61
g62
sg63
VSubmitted
p801
sg65
V2016-06-08T02:52:56Z
p802
sbag6
(g7
g8
Ntp803
Rp804
(dp805
g12
V2016-07-08T04:40:56Z
p806
sg14
V3180JW2OT4DFQH3DD74IE3UES255JJ
p807
sg16
VA16EEWCUQK9LM2
p808
sg18
(lp809
g6
(g20
g1
(lp810
g6
(g22
g8
Ntp811
Rp812
(dp813
g26
(lp814
VDaily_Science_Grade_4_Evan_Moor_149.jpeg
p815
asg29
Vimage_id
p816
sbag6
(g22
g8
Ntp817
Rp818
(dp819
g26
(lp820
V[{"id":"T14","category":"unlabeled"},{"id":"T15","category":"Discussion"},{"id":"T16","category":"Discussion"},{"id":"T17","category":"Discussion"},{"id":"T10","category":"unlabeled"},{"id":"T11","category":"Definition"},{"id":"T12","category":"unlabeled"},{"id":"T13","category":"unlabeled"},{"id":"T18","category":"Discussion"},{"id":"T19","category":"Discussion"},{"id":"T8","category":"unlabeled"},{"id":"T9","category":"unlabeled"},{"id":"T6","category":"unlabeled"},{"id":"T7","category":"Answer"},{"id":"T4","category":"Question"},{"id":"T5","category":"unlabeled"},{"id":"T2","category":"unlabeled"},{"id":"T3","category":"unlabeled"},{"id":"T1","category":"unlabeled"},{"id":"T28","category":"unlabeled"},{"id":"T21","category":"Discussion"},{"id":"T20","category":"Discussion"},{"id":"T23","category":"Discussion"},{"id":"T22","category":"unlabeled"},{"id":"T25","category":"Discussion"},{"id":"T24","category":"Discussion"},{"id":"T27","category":"Discussion"},{"id":"T26","category":"Discussion"}]
p821
asg29
Vresults
p822
sbatp823
Rp824
(dp825
g40
I01
sg41
Nsg42
Nsg43
(lp826
(g45
g22
tp827
asg47
Nsg48
Nsg49
I00
sg50
Nsg51
Nsg52
Nsg53
Nsg54
V\u000a
p828
sg56
Nsbasg57
V2016-06-08T04:39:46Z
p829
sg59
V3GV1I4SEO9QEHRTXV9LZY4QMYLGL69
p830
sg61
g62
sg63
VSubmitted
p831
sg65
V2016-06-08T04:40:56Z
p832
sbag6
(g7
g8
Ntp833
Rp834
(dp835
g12
V2016-07-08T19:07:20Z
p836
sg14
V31IBVUNM9S0GJ9WW08VA33WLCJRFVY
p837
sg16
VA3TXJLD6JNR280
p838
sg18
(lp839
g6
(g20
g1
(lp840
g6
(g22
g8
Ntp841
Rp842
(dp843
g26
(lp844
VDaily_Science_Grade_4_Evan_Moor_149.jpeg
p845
asg29
Vimage_id
p846
sbag6
(g22
g8
Ntp847
Rp848
(dp849
g26
(lp850
V[{"id":"T14","category":"unlabeled"},{"id":"T15","category":"Question"},{"id":"T16","category":"Question"},{"id":"T17","category":"Question"},{"id":"T10","category":"Definition"},{"id":"T11","category":"Definition"},{"id":"T12","category":"unlabeled"},{"id":"T13","category":"unlabeled"},{"id":"T18","category":"Question"},{"id":"T19","category":"Question"},{"id":"T8","category":"unlabeled"},{"id":"T9","category":"unlabeled"},{"id":"T6","category":"unlabeled"},{"id":"T7","category":"Discussion"},{"id":"T4","category":"Header/Topic"},{"id":"T5","category":"unlabeled"},{"id":"T2","category":"unlabeled"},{"id":"T3","category":"unlabeled"},{"id":"T1","category":"unlabeled"},{"id":"T28","category":"unlabeled"},{"id":"T21","category":"Question"},{"id":"T20","category":"Question"},{"id":"T23","category":"Question"},{"id":"T22","category":"Question"},{"id":"T25","category":"Question"},{"id":"T24","category":"Question"},{"id":"T27","category":"unlabeled"},{"id":"T26","category":"unlabeled"}]
p851
asg29
Vresults
p852
sbatp853
Rp854
(dp855
g40
I01
sg41
Nsg42
Nsg43
(lp856
(g45
g22
tp857
asg47
Nsg48
Nsg49
I00
sg50
Nsg51
Nsg52
Nsg53
Nsg54
V\u000a
p858
sg56
Nsbasg57
V2016-06-08T04:53:22Z
p859
sg59
V3GV1I4SEO9QEHRTXV9LZY4QMYLGL69
p860
sg61
g62
sg63
VSubmitted
p861
sg65
V2016-06-08T19:07:20Z
p862
sbasV3SX4X51T80ANAE8XYEI36QW2P9BAO5
p863
(lp864
g6
(g7
g8
Ntp865
Rp866
(dp867
g12
V2016-07-08T04:39:42Z
p868
sg14
V3H7XDTSHKCSZCYSW126O7QFBK7TGW8
p869
sg16
VA3OKWRLKLYVH4F
p870
sg18
(lp871
g6
(g20
g1
(lp872
g6
(g22
g8
Ntp873
Rp874
(dp875
g26
(lp876
VDaily_Science_Grade_5_Evan_Moor_93.jpeg
p877
asg29
Vimage_id
p878
sbag6
(g22
g8
Ntp879
Rp880
(dp881
g26
(lp882
V[{"id":"T14","category":"Question"},{"id":"T15","category":"Question"},{"id":"T16","category":"Question"},{"id":"T17","category":"Question"},{"id":"T10","category":"Question"},{"id":"T11","category":"Question"},{"id":"T12","category":"Question"},{"id":"T13","category":"Question"},{"id":"T18","category":"Question"},{"id":"T19","category":"Question"},{"id":"T30","category":"unlabeled"},{"id":"T31","category":"unlabeled"},{"id":"T32","category":"unlabeled"},{"id":"T8","category":"unlabeled"},{"id":"T9","category":"Question"},{"id":"T6","category":"unlabeled"},{"id":"T7","category":"Question"},{"id":"T4","category":"Header/Topic"},{"id":"T5","category":"unlabeled"},{"id":"T2","category":"unlabeled"},{"id":"T3","category":"unlabeled"},{"id":"T1","category":"unlabeled"},{"id":"T29","category":"unlabeled"},{"id":"T28","category":"unlabeled"},{"id":"T21","category":"Question"},{"id":"T20","category":"Question"},{"id":"T23","category":"Question"},{"id":"T22","category":"Question"},{"id":"T25","category":"Question"},{"id":"T24","category":"Question"},{"id":"T27","category":"Question"},{"id":"T26","category":"Question"}]
p883
asg29
Vresults
p884
sbatp885
Rp886
(dp887
g40
I01
sg41
Nsg42
Nsg43
(lp888
(g45
g22
tp889
asg47
Nsg48
Nsg49
I00
sg50
Nsg51
Nsg52
Nsg53
Nsg54
V\u000a
p890
sg56
Nsbasg57
V2016-06-08T04:39:16Z
p891
sg59
V3SX4X51T80ANAE8XYEI36QW2P9BAO5
p892
sg61
g62
sg63
VSubmitted
p893
sg65
V2016-06-08T04:39:42Z
p894
sbag6
(g7
g8
Ntp895
Rp896
(dp897
g12
V2016-07-08T05:50:31Z
p898
sg14
V3EA3QWIZ4IWLG8UXWL1G5ILSVQ4ITD
p899
sg16
VA3I9WD8P9RBFHR
p900
sg18
(lp901
g6
(g20
g1
(lp902
g6
(g22
g8
Ntp903
Rp904
(dp905
g26
(lp906
VDaily_Science_Grade_5_Evan_Moor_93.jpeg
p907
asg29
Vimage_id
p908
sbag6
(g22
g8
Ntp909
Rp910
(dp911
g26
(lp912
V[{"id":"T14","category":"Answer"},{"id":"T15","category":"Question"},{"id":"T16","category":"Answer"},{"id":"T17","category":"Answer"},{"id":"T10","category":"Question"},{"id":"T11","category":"Answer"},{"id":"T12","category":"Answer"},{"id":"T13","category":"Question"},{"id":"T18","category":"Question"},{"id":"T19","category":"Answer"},{"id":"T30","category":"unlabeled"},{"id":"T31","category":"unlabeled"},{"id":"T32","category":"unlabeled"},{"id":"T8","category":"unlabeled"},{"id":"T9","category":"Answer"},{"id":"T6","category":"unlabeled"},{"id":"T7","category":"Question"},{"id":"T4","category":"Header/Topic"},{"id":"T5","category":"unlabeled"},{"id":"T2","category":"unlabeled"},{"id":"T3","category":"unlabeled"},{"id":"T1","category":"unlabeled"},{"id":"T29","category":"unlabeled"},{"id":"T28","category":"unlabeled"},{"id":"T21","category":"Answer"},{"id":"T20","category":"Answer"},{"id":"T23","category":"Answer"},{"id":"T22","category":"Question"},{"id":"T25","category":"Question"},{"id":"T24","category":"Answer"},{"id":"T27","category":"Answer"},{"id":"T26","category":"Answer"}]
p913
asg29
Vresults
p914
sbatp915
Rp916
(dp917
g40
I01
sg41
Nsg42
Nsg43
(lp918
(g45
g22
tp919
asg47
Nsg48
Nsg49
I00
sg50
Nsg51
Nsg52
Nsg53
Nsg54
V\u000a
p920
sg56
Nsbasg57
V2016-06-08T05:07:05Z
p921
sg59
V3SX4X51T80ANAE8XYEI36QW2P9BAO5
p922
sg61
g62
sg63
VSubmitted
p923
sg65
V2016-06-08T05:50:31Z
p924
sbag6
(g7
g8
Ntp925
Rp926
(dp927
g12
V2016-07-08T17:39:20Z
p928
sg14
V36V4Q8R5ZK1UKBSW0W5DS6HMTTPQMQ
p929
sg16
VA3KIE6ZNXVEIAY
p930
sg18
(lp931
g6
(g20
g1
(lp932
g6
(g22
g8
Ntp933
Rp934
(dp935
g26
(lp936
VDaily_Science_Grade_5_Evan_Moor_93.jpeg
p937
asg29
Vimage_id
p938
sbag6
(g22
g8
Ntp939
Rp940
(dp941
g26
(lp942
V[{"id":"T14","category":"Question"},{"id":"T15","category":"Question"},{"id":"T16","category":"Question"},{"id":"T17","category":"Question"},{"id":"T10","category":"Question"},{"id":"T11","category":"Question"},{"id":"T12","category":"Question"},{"id":"T13","category":"Question"},{"id":"T18","category":"Question"},{"id":"T19","category":"Question"},{"id":"T30","category":"unlabeled"},{"id":"T31","category":"unlabeled"},{"id":"T32","category":"unlabeled"},{"id":"T8","category":"unlabeled"},{"id":"T9","category":"Question"},{"id":"T6","category":"unlabeled"},{"id":"T7","category":"Question"},{"id":"T4","category":"Header/Topic"},{"id":"T5","category":"unlabeled"},{"id":"T2","category":"unlabeled"},{"id":"T3","category":"unlabeled"},{"id":"T1","category":"unlabeled"},{"id":"T29","category":"unlabeled"},{"id":"T28","category":"unlabeled"},{"id":"T21","category":"Question"},{"id":"T20","category":"Question"},{"id":"T23","category":"Question"},{"id":"T22","category":"Question"},{"id":"T25","category":"Question"},{"id":"T24","category":"Question"},{"id":"T27","category":"Question"},{"id":"T26","category":"Question"}]
p943
asg29
Vresults
p944
sbatp945
Rp946
(dp947
g40
I01
sg41
Nsg42
Nsg43
(lp948
(g45
g22
tp949
asg47
Nsg48
Nsg49
I00
sg50
Nsg51
Nsg52
Nsg53
Nsg54
V\u000a
p950
sg56
Nsbasg57
V2016-06-08T17:38:57Z
p951
sg59
V3SX4X51T80ANAE8XYEI36QW2P9BAO5
p952
sg61
g62
sg63
VSubmitted
p953
sg65
V2016-06-08T17:39:20Z
p954
sbasV3XBXDSS888KR06DTWWUPYH36VPFLX3
p955
(lp956
g6
(g7
g8
Ntp957
Rp958
(dp959
g12
V2016-07-08T05:48:20Z
p960
sg14
V3KB8R4ZV1E87OVUL6BASKC2QA6EBGQ
p961
sg16
VA230N919X9GWNN
p962
sg18
(lp963
g6
(g20
g1
(lp964
g6
(g22
g8
Ntp965
Rp966
(dp967
g26
(lp968
VDaily_Science_Grade_6_(Daily_Practice_Books)_Evan_Moor_148.jpeg
p969
asg29
Vimage_id
p970
sbag6
(g22
g8
Ntp971
Rp972
(dp973
g26
(lp974
V[{"id":"T14","category":"unlabeled"},{"id":"T15","category":"Figure Label"},{"id":"T16","category":"Figure Label"},{"id":"T17","category":"Question"},{"id":"T10","category":"Definition"},{"id":"T11","category":"unlabeled"},{"id":"T12","category":"unlabeled"},{"id":"T13","category":"Figure Label"},{"id":"T18","category":"Question"},{"id":"T19","category":"Question"},{"id":"T8","category":"unlabeled"},{"id":"T9","category":"Definition"},{"id":"T6","category":"Discussion"},{"id":"T7","category":"unlabeled"},{"id":"T4","category":"Header/Topic"},{"id":"T5","category":"unlabeled"},{"id":"T2","category":"unlabeled"},{"id":"T3","category":"unlabeled"},{"id":"T1","category":"unlabeled"},{"id":"T21","category":"unlabeled"},{"id":"T20","category":"Question"},{"id":"T23","category":"unlabeled"},{"id":"T22","category":"unlabeled"}]
p975
asg29
Vresults
p976
sbatp977
Rp978
(dp979
g40
I01
sg41
Nsg42
Nsg43
(lp980
(g45
g22
tp981
asg47
Nsg48
Nsg49
I00
sg50
Nsg51
Nsg52
Nsg53
Nsg54
V\u000a
p982
sg56
Nsbasg57
V2016-06-08T05:42:15Z
p983
sg59
V3XBXDSS888KR06DTWWUPYH36VPFLX3
p984
sg61
g62
sg63
VSubmitted
p985
sg65
V2016-06-08T05:48:20Z
p986
sbag6
(g7
g8
Ntp987
Rp988
(dp989
g12
V2016-07-08T05:56:13Z
p990
sg14
V32SCWG5HIH57VW6PD3J735UQXWS6P6
p991
sg16
VA2RSOGTSR83XKO
p992
sg18
(lp993
g6
(g20
g1
(lp994
g6
(g22
g8
Ntp995
Rp996
(dp997
g26
(lp998
VDaily_Science_Grade_6_(Daily_Practice_Books)_Evan_Moor_148.jpeg
p999
asg29
Vimage_id
p1000
sbag6
(g22
g8
Ntp1001
Rp1002
(dp1003
g26
(lp1004
V[{"id":"T14","category":"unlabeled"},{"id":"T15","category":"Figure Label"},{"id":"T16","category":"Figure Label"},{"id":"T17","category":"Question"},{"id":"T10","category":"Definition"},{"id":"T11","category":"unlabeled"},{"id":"T12","category":"unlabeled"},{"id":"T13","category":"Figure Label"},{"id":"T18","category":"Question"},{"id":"T19","category":"Question"},{"id":"T8","category":"unlabeled"},{"id":"T9","category":"Definition"},{"id":"T6","category":"Discussion"},{"id":"T7","category":"unlabeled"},{"id":"T4","category":"Header/Topic"},{"id":"T5","category":"unlabeled"},{"id":"T2","category":"unlabeled"},{"id":"T3","category":"unlabeled"},{"id":"T1","category":"unlabeled"},{"id":"T21","category":"unlabeled"},{"id":"T20","category":"Question"},{"id":"T23","category":"unlabeled"},{"id":"T22","category":"unlabeled"}]
p1005
asg29
Vresults
p1006
sbatp1007
Rp1008
(dp1009
g40
I01
sg41
Nsg42
Nsg43
(lp1010
(g45
g22
tp1011
asg47
Nsg48
Nsg49
I00
sg50
Nsg51
Nsg52
Nsg53
Nsg54
V\u000a
p1012
sg56
Nsbasg57
V2016-06-08T05:55:53Z
p1013
sg59
V3XBXDSS888KR06DTWWUPYH36VPFLX3
p1014
sg61
g62
sg63
VSubmitted
p1015
sg65
V2016-06-08T05:56:13Z
p1016
sbag6
(g7
g8
Ntp1017
Rp1018
(dp1019
g12
V2016-07-08T19:12:53Z
p1020
sg14
V3X08E93BHVJZLQOKY7KYX5392R166Z
p1021
sg16
VA3TXJLD6JNR280
p1022
sg18
(lp1023
g6
(g20
g1
(lp1024
g6
(g22
g8
Ntp1025
Rp1026
(dp1027
g26
(lp1028
VDaily_Science_Grade_6_(Daily_Practice_Books)_Evan_Moor_148.jpeg
p1029
asg29
Vimage_id
p1030
sbag6
(g22
g8
Ntp1031
Rp1032
(dp1033
g26
(lp1034
V[{"id":"T14","category":"unlabeled"},{"id":"T15","category":"Figure Label"},{"id":"T16","category":"Figure Label"},{"id":"T17","category":"Question"},{"id":"T10","category":"Definition"},{"id":"T11","category":"unlabeled"},{"id":"T12","category":"unlabeled"},{"id":"T13","category":"Figure Label"},{"id":"T18","category":"Question"},{"id":"T19","category":"Question"},{"id":"T8","category":"Definition"},{"id":"T9","category":"Definition"},{"id":"T6","category":"Discussion"},{"id":"T7","category":"unlabeled"},{"id":"T4","category":"Header/Topic"},{"id":"T5","category":"unlabeled"},{"id":"T2","category":"unlabeled"},{"id":"T3","category":"unlabeled"},{"id":"T1","category":"unlabeled"},{"id":"T21","category":"unlabeled"},{"id":"T20","category":"Question"},{"id":"T23","category":"unlabeled"},{"id":"T22","category":"unlabeled"}]
p1035
asg29
Vresults
p1036
sbatp1037
Rp1038
(dp1039
g40
I01
sg41
Nsg42
Nsg43
(lp1040
(g45
g22
tp1041
asg47
Nsg48
Nsg49
I00
sg50
Nsg51
Nsg52
Nsg53
Nsg54
V\u000a
p1042
sg56
Nsbasg57
V2016-06-08T05:37:56Z
p1043
sg59
V3XBXDSS888KR06DTWWUPYH36VPFLX3
p1044
sg61
g62
sg63
VSubmitted
p1045
sg65
V2016-06-08T19:12:53Z
p1046
sbasV302U8RURJZ2PKHBJ8U9MNOAAK97NV4
p1047
(lp1048
g6
(g7
g8
Ntp1049
Rp1050
(dp1051
g12
V2016-07-08T03:59:20Z
p1052
sg14
V3M23Y66PO2848OMH5KN1YAZ1KGRS60
p1053
sg16
VA2UUND717FJR7R
p1054
sg18
(lp1055
g6
(g20
g1
(lp1056
g6
(g22
g8
Ntp1057
Rp1058
(dp1059
g26
(lp1060
VDaily_Science_Grade_4_Evan_Moor_142.jpeg
p1061
asg29
Vimage_id
p1062
sbag6
(g22
g8
Ntp1063
Rp1064
(dp1065
g26
(lp1066
V[{"id":"T14","category":"Question"},{"id":"T15","category":"Question"},{"id":"T16","category":"Question"},{"id":"T17","category":"Question"},{"id":"T10","category":"Definition"},{"id":"T11","category":"Figure Label"},{"id":"T12","category":"Question"},{"id":"T13","category":"Question"},{"id":"T18","category":"Question"},{"id":"T19","category":"Question"},{"id":"T8","category":"Definition"},{"id":"T9","category":"Definition"},{"id":"T6","category":"Discussion"},{"id":"T7","category":"unlabeled"},{"id":"T4","category":"Header/Topic"},{"id":"T5","category":"unlabeled"},{"id":"T2","category":"unlabeled"},{"id":"T3","category":"unlabeled"},{"id":"T1","category":"unlabeled"},{"id":"T21","category":"Question"},{"id":"T20","category":"Question"},{"id":"T23","category":"unlabeled"},{"id":"T22","category":"unlabeled"},{"id":"T24","category":"unlabeled"}]
p1067
asg29
Vresults
p1068
sbatp1069
Rp1070
(dp1071
g40
I01
sg41
Nsg42
Nsg43
(lp1072
(g45
g22
tp1073
asg47
Nsg48
Nsg49
I00
sg50
Nsg51
Nsg52
Nsg53
Nsg54
V\u000a
p1074
sg56
Nsbasg57
V2016-06-08T03:58:42Z
p1075
sg59
V302U8RURJZ2PKHBJ8U9MNOAAK97NV4
p1076
sg61
g62
sg63
VSubmitted
p1077
sg65
V2016-06-08T03:59:20Z
p1078
sbag6
(g7
g8
Ntp1079
Rp1080
(dp1081
g12
V2016-07-08T04:44:12Z
p1082
sg14
V3NGI5ARFTT6COA5S7X7Q8939PL71PY
p1083
sg16
VA36PFUM96J0ES6
p1084
sg18
(lp1085
g6
(g20
g1
(lp1086
g6
(g22
g8
Ntp1087
Rp1088
(dp1089
g26
(lp1090
VDaily_Science_Grade_4_Evan_Moor_142.jpeg
p1091
asg29
Vimage_id
p1092
sbag6
(g22
g8
Ntp1093
Rp1094
(dp1095
g26
(lp1096
V[{"id":"T14","category":"Question"},{"id":"T15","category":"Question"},{"id":"T16","category":"Question"},{"id":"T17","category":"Question"},{"id":"T10","category":"Definition"},{"id":"T11","category":"Figure Label"},{"id":"T12","category":"Question"},{"id":"T13","category":"Question"},{"id":"T18","category":"Question"},{"id":"T19","category":"Question"},{"id":"T8","category":"unlabeled"},{"id":"T9","category":"Definition"},{"id":"T6","category":"Discussion"},{"id":"T7","category":"unlabeled"},{"id":"T4","category":"Header/Topic"},{"id":"T5","category":"unlabeled"},{"id":"T2","category":"unlabeled"},{"id":"T3","category":"unlabeled"},{"id":"T1","category":"unlabeled"},{"id":"T21","category":"Question"},{"id":"T20","category":"Question"},{"id":"T23","category":"unlabeled"},{"id":"T22","category":"unlabeled"},{"id":"T24","category":"unlabeled"}]
p1097
asg29
Vresults
p1098
sbatp1099
Rp1100
(dp1101
g40
I01
sg41
Nsg42
Nsg43
(lp1102
(g45
g22
tp1103
asg47
Nsg48
Nsg49
I00
sg50
Nsg51
Nsg52
Nsg53
Nsg54
V\u000a
p1104
sg56
Nsbasg57
V2016-06-08T04:43:51Z
p1105
sg59
V302U8RURJZ2PKHBJ8U9MNOAAK97NV4
p1106
sg61
g62
sg63
VSubmitted
p1107
sg65
V2016-06-08T04:44:12Z
p1108
sbag6
(g7
g8
Ntp1109
Rp1110
(dp1111
g12
V2016-07-08T19:10:40Z
p1112
sg14
V3VZLGYJEYLBESFSR1ZQZUG9O4ZWXZA
p1113
sg16
VA3TXJLD6JNR280
p1114
sg18
(lp1115
g6
(g20
g1
(lp1116
g6
(g22
g8
Ntp1117
Rp1118
(dp1119
g26
(lp1120
VDaily_Science_Grade_4_Evan_Moor_142.jpeg
p1121
asg29
Vimage_id
p1122
sbag6
(g22
g8
Ntp1123
Rp1124
(dp1125
g26
(lp1126
V[{"id":"T14","category":"Answer"},{"id":"T15","category":"Answer"},{"id":"T16","category":"Answer"},{"id":"T17","category":"Answer"},{"id":"T10","category":"Definition"},{"id":"T11","category":"Figure Label"},{"id":"T12","category":"Answer"},{"id":"T13","category":"Answer"},{"id":"T18","category":"Answer"},{"id":"T19","category":"Answer"},{"id":"T8","category":"Definition"},{"id":"T9","category":"Definition"},{"id":"T6","category":"Discussion"},{"id":"T7","category":"unlabeled"},{"id":"T4","category":"Header/Topic"},{"id":"T5","category":"unlabeled"},{"id":"T2","category":"unlabeled"},{"id":"T3","category":"unlabeled"},{"id":"T1","category":"unlabeled"},{"id":"T21","category":"Answer"},{"id":"T20","category":"Answer"},{"id":"T23","category":"unlabeled"},{"id":"T22","category":"unlabeled"},{"id":"T24","category":"unlabeled"}]
p1127
asg29
Vresults
p1128
sbatp1129
Rp1130
(dp1131
g40
I01
sg41
Nsg42
Nsg43
(lp1132
(g45
g22
tp1133
asg47
Nsg48
Nsg49
I00
sg50
Nsg51
Nsg52
Nsg53
Nsg54
V\u000a
p1134
sg56
Nsbasg57
V2016-06-08T05:37:43Z
p1135
sg59
V302U8RURJZ2PKHBJ8U9MNOAAK97NV4
p1136
sg61
g62
sg63
VSubmitted
p1137
sg65
V2016-06-08T19:10:40Z
p1138
sbasV3PGQRAZX02L34OYTL1DSTHOAPPHSYU
p1139
(lp1140
g6
(g7
g8
Ntp1141
Rp1142
(dp1143
g12
V2016-07-08T03:21:03Z
p1144
sg14
V32ZKVD547FO6UJIXBW381IDH611B3A
p1145
sg16
VA333VJ2K6O6R79
p1146
sg18
(lp1147
g6
(g20
g1
(lp1148
g6
(g22
g8
Ntp1149
Rp1150
(dp1151
g26
(lp1152
VDaily_Science_Grade_4_Evan_Moor_39.jpeg
p1153
asg29
Vimage_id
p1154
sbag6
(g22
g8
Ntp1155
Rp1156
(dp1157
g26
(lp1158
V[{"id":"T14","category":"unlabeled"},{"id":"T15","category":"Header/Topic"},{"id":"T16","category":"unlabeled"},{"id":"T17","category":"unlabeled"},{"id":"T10","category":"Header/Topic"},{"id":"T11","category":"unlabeled"},{"id":"T12","category":"Header/Topic"},{"id":"T13","category":"unlabeled"},{"id":"T18","category":"unlabeled"},{"id":"T19","category":"unlabeled"},{"id":"T30","category":"unlabeled"},{"id":"T8","category":"Discussion"},{"id":"T9","category":"unlabeled"},{"id":"T6","category":"Discussion"},{"id":"T7","category":"Discussion"},{"id":"T4","category":"Header/Topic"},{"id":"T5","category":"unlabeled"},{"id":"T2","category":"unlabeled"},{"id":"T3","category":"unlabeled"},{"id":"T1","category":"unlabeled"},{"id":"T29","category":"unlabeled"},{"id":"T28","category":"unlabeled"},{"id":"T21","category":"unlabeled"},{"id":"T20","category":"unlabeled"},{"id":"T23","category":"unlabeled"},{"id":"T22","category":"unlabeled"},{"id":"T25","category":"unlabeled"},{"id":"T24","category":"unlabeled"},{"id":"T27","category":"unlabeled"},{"id":"T26","category":"unlabeled"}]
p1159
asg29
Vresults
p1160
sbatp1161
Rp1162
(dp1163
g40
I01
sg41
Nsg42
Nsg43
(lp1164
(g45
g22
tp1165
asg47
Nsg48
Nsg49
I00
sg50
Nsg51
Nsg52
Nsg53
Nsg54
V\u000a
p1166
sg56
Nsbasg57
V2016-06-08T03:20:52Z
p1167
sg59
V3PGQRAZX02L34OYTL1DSTHOAPPHSYU
p1168
sg61
g62
sg63
VSubmitted
p1169
sg65
V2016-06-08T03:21:03Z
p1170
sbag6
(g7
g8
Ntp1171
Rp1172
(dp1173
g12
V2016-07-08T05:53:10Z
p1174
sg14
V3UOUJI6MTDFX6GYHVCRRDOU92HHUXI
p1175
sg16
VA3I9WD8P9RBFHR
p1176
sg18
(lp1177
g6
(g20
g1
(lp1178
g6
(g22
g8
Ntp1179
Rp1180
(dp1181
g26
(lp1182
VDaily_Science_Grade_4_Evan_Moor_39.jpeg
p1183
asg29
Vimage_id
p1184
sbag6
(g22
g8
Ntp1185
Rp1186
(dp1187
g26
(lp1188
V[{"id":"T14","category":"Answer"},{"id":"T15","category":"unlabeled"},{"id":"T16","category":"unlabeled"},{"id":"T17","category":"unlabeled"},{"id":"T10","category":"unlabeled"},{"id":"T11","category":"Answer"},{"id":"T12","category":"unlabeled"},{"id":"T13","category":"unlabeled"},{"id":"T18","category":"Answer"},{"id":"T19","category":"Answer"},{"id":"T30","category":"unlabeled"},{"id":"T8","category":"Discussion"},{"id":"T9","category":"Answer"},{"id":"T6","category":"Discussion"},{"id":"T7","category":"unlabeled"},{"id":"T4","category":"Header/Topic"},{"id":"T5","category":"unlabeled"},{"id":"T2","category":"unlabeled"},{"id":"T3","category":"unlabeled"},{"id":"T1","category":"unlabeled"},{"id":"T29","category":"unlabeled"},{"id":"T28","category":"unlabeled"},{"id":"T21","category":"unlabeled"},{"id":"T20","category":"Answer"},{"id":"T23","category":"Answer"},{"id":"T22","category":"Answer"},{"id":"T25","category":"Answer"},{"id":"T24","category":"unlabeled"},{"id":"T27","category":"unlabeled"},{"id":"T26","category":"unlabeled"}]
p1189
asg29
Vresults
p1190
sbatp1191
Rp1192
(dp1193
g40
I01
sg41
Nsg42
Nsg43
(lp1194
(g45
g22
tp1195
asg47
Nsg48
Nsg49
I00
sg50
Nsg51
Nsg52
Nsg53
Nsg54
V\u000a
p1196
sg56
Nsbasg57
V2016-06-08T05:52:38Z
p1197
sg59
V3PGQRAZX02L34OYTL1DSTHOAPPHSYU
p1198
sg61
g62
sg63
VSubmitted
p1199
sg65
V2016-06-08T05:53:10Z
p1200
sbag6
(g7
g8
Ntp1201
Rp1202
(dp1203
g12
V2016-07-08T19:12:26Z
p1204
sg14
V38SKSKU7R1YXXVMSNCZPJRBB1DKILC
p1205
sg16
VA3TXJLD6JNR280
p1206
sg18
(lp1207
g6
(g20
g1
(lp1208
g6
(g22
g8
Ntp1209
Rp1210
(dp1211
g26
(lp1212
VDaily_Science_Grade_4_Evan_Moor_39.jpeg
p1213
asg29
Vimage_id
p1214
sbag6
(g22
g8
Ntp1215
Rp1216
(dp1217
g26
(lp1218
V[{"id":"T14","category":"Discussion"},{"id":"T15","category":"unlabeled"},{"id":"T16","category":"unlabeled"},{"id":"T17","category":"unlabeled"},{"id":"T10","category":"unlabeled"},{"id":"T11","category":"Discussion"},{"id":"T12","category":"unlabeled"},{"id":"T13","category":"unlabeled"},{"id":"T18","category":"unlabeled"},{"id":"T19","category":"Discussion"},{"id":"T30","category":"unlabeled"},{"id":"T8","category":"Discussion"},{"id":"T9","category":"Discussion"},{"id":"T6","category":"Discussion"},{"id":"T7","category":"unlabeled"},{"id":"T4","category":"Header/Topic"},{"id":"T5","category":"unlabeled"},{"id":"T2","category":"unlabeled"},{"id":"T3","category":"unlabeled"},{"id":"T1","category":"unlabeled"},{"id":"T29","category":"unlabeled"},{"id":"T28","category":"unlabeled"},{"id":"T21","category":"unlabeled"},{"id":"T20","category":"Discussion"},{"id":"T23","category":"Discussion"},{"id":"T22","category":"unlabeled"},{"id":"T25","category":"Discussion"},{"id":"T24","category":"unlabeled"},{"id":"T27","category":"unlabeled"},{"id":"T26","category":"unlabeled"}]
p1219
asg29
Vresults
p1220
sbatp1221
Rp1222
(dp1223
g40
I01
sg41
Nsg42
Nsg43
(lp1224
(g45
g22
tp1225
asg47
Nsg48
Nsg49
I00
sg50
Nsg51
Nsg52
Nsg53
Nsg54
V\u000a
p1226
sg56
Nsbasg57
V2016-06-08T05:37:54Z
p1227
sg59
V3PGQRAZX02L34OYTL1DSTHOAPPHSYU
p1228
sg61
g62
sg63
VSubmitted
p1229
sg65
V2016-06-08T19:12:26Z
p1230
sbasV3LG268AV387TX4HP6B1TW4RYLBTREQ
p1231
(lp1232
g6
(g7
g8
Ntp1233
Rp1234
(dp1235
g12
V2016-07-08T03:28:12Z
p1236
sg14
V382M9COHEHGO0G70071ZPZ92MBYEUL
p1237
sg16
VA333VJ2K6O6R79
p1238
sg18
(lp1239
g6
(g20
g1
(lp1240
g6
(g22
g8
Ntp1241
Rp1242
(dp1243
g26
(lp1244
VDaily_Science_Grade_6_(Daily_Practice_Books)_Evan_Moor_112.jpeg
p1245
asg29
Vimage_id
p1246
sbag6
(g22
g8
Ntp1247
Rp1248
(dp1249
g26
(lp1250
V[{"id":"T14","category":"Question"},{"id":"T15","category":"Question"},{"id":"T16","category":"Question"},{"id":"T17","category":"Question"},{"id":"T10","category":"unlabeled"},{"id":"T11","category":"Figure Label"},{"id":"T12","category":"Figure Label"},{"id":"T13","category":"Figure Label"},{"id":"T18","category":"Question"},{"id":"T19","category":"Question"},{"id":"T8","category":"unlabeled"},{"id":"T9","category":"Definition"},{"id":"T6","category":"Discussion"},{"id":"T7","category":"unlabeled"},{"id":"T4","category":"Header/Topic"},{"id":"T5","category":"unlabeled"},{"id":"T2","category":"unlabeled"},{"id":"T3","category":"unlabeled"},{"id":"T1","category":"unlabeled"},{"id":"T21","category":"unlabeled"},{"id":"T20","category":"unlabeled"},{"id":"T22","category":"unlabeled"}]
p1251
asg29
Vresults
p1252
sbatp1253
Rp1254
(dp1255
g40
I01
sg41
Nsg42
Nsg43
(lp1256
(g45
g22
tp1257
asg47
Nsg48
Nsg49
I00
sg50
Nsg51
Nsg52
Nsg53
Nsg54
V\u000a
p1258
sg56
Nsbasg57
V2016-06-08T03:27:46Z
p1259
sg59
V3LG268AV387TX4HP6B1TW4RYLBTREQ
p1260
sg61
g62
sg63
VSubmitted
p1261
sg65
V2016-06-08T03:28:12Z
p1262
sbag6
(g7
g8
Ntp1263
Rp1264
(dp1265
g12
V2016-07-08T05:11:08Z
p1266
sg14
V33FBRBDW6O0B5LG91DUZ3JRA48Z8CC
p1267
sg16
VA2D3TM156X7Y61
p1268
sg18
(lp1269
g6
(g20
g1
(lp1270
g6
(g22
g8
Ntp1271
Rp1272
(dp1273
g26
(lp1274
VDaily_Science_Grade_6_(Daily_Practice_Books)_Evan_Moor_112.jpeg
p1275
asg29
Vimage_id
p1276
sbag6
(g22
g8
Ntp1277
Rp1278
(dp1279
g26
(lp1280
V[{"id":"T14","category":"Question"},{"id":"T15","category":"Question"},{"id":"T16","category":"Question"},{"id":"T17","category":"Question"},{"id":"T10","category":"unlabeled"},{"id":"T11","category":"Figure Label"},{"id":"T12","category":"Figure Label"},{"id":"T13","category":"Figure Label"},{"id":"T18","category":"Question"},{"id":"T19","category":"Question"},{"id":"T8","category":"Definition"},{"id":"T9","category":"Definition"},{"id":"T6","category":"Discussion"},{"id":"T7","category":"unlabeled"},{"id":"T4","category":"Header/Topic"},{"id":"T5","category":"unlabeled"},{"id":"T2","category":"unlabeled"},{"id":"T3","category":"unlabeled"},{"id":"T1","category":"unlabeled"},{"id":"T21","category":"unlabeled"},{"id":"T20","category":"unlabeled"},{"id":"T22","category":"unlabeled"}]
p1281
asg29
Vresults
p1282
sbatp1283
Rp1284
(dp1285
g40
I01
sg41
Nsg42
Nsg43
(lp1286
(g45
g22
tp1287
asg47
Nsg48
Nsg49
I00
sg50
Nsg51
Nsg52
Nsg53
Nsg54
V\u000a
p1288
sg56
Nsbasg57
V2016-06-08T05:10:37Z
p1289
sg59
V3LG268AV387TX4HP6B1TW4RYLBTREQ
p1290
sg61
g62
sg63
VSubmitted
p1291
sg65
V2016-06-08T05:11:08Z
p1292
sbag6
(g7
g8
Ntp1293
Rp1294
(dp1295
g12
V2016-07-08T19:09:00Z
p1296
sg14
V3ZGVPD4G6TI7BYJ7WPP25DOIR37ZTS
p1297
sg16
VA3TXJLD6JNR280
p1298
sg18
(lp1299
g6
(g20
g1
(lp1300
g6
(g22
g8
Ntp1301
Rp1302
(dp1303
g26
(lp1304
VDaily_Science_Grade_6_(Daily_Practice_Books)_Evan_Moor_112.jpeg
p1305
asg29
Vimage_id
p1306
sbag6
(g22
g8
Ntp1307
Rp1308
(dp1309
g26
(lp1310
V[{"id":"T14","category":"Question"},{"id":"T15","category":"Question"},{"id":"T16","category":"Question"},{"id":"T17","category":"Question"},{"id":"T10","category":"unlabeled"},{"id":"T11","category":"Figure Label"},{"id":"T12","category":"Figure Label"},{"id":"T13","category":"Figure Label"},{"id":"T18","category":"Question"},{"id":"T19","category":"Question"},{"id":"T8","category":"Definition"},{"id":"T9","category":"Definition"},{"id":"T6","category":"Discussion"},{"id":"T7","category":"unlabeled"},{"id":"T4","category":"Header/Topic"},{"id":"T5","category":"unlabeled"},{"id":"T2","category":"unlabeled"},{"id":"T3","category":"unlabeled"},{"id":"T1","category":"unlabeled"},{"id":"T21","category":"unlabeled"},{"id":"T20","category":"unlabeled"},{"id":"T22","category":"unlabeled"}]
p1311
asg29
Vresults
p1312
sbatp1313
Rp1314
(dp1315
g40
I01
sg41
Nsg42
Nsg43
(lp1316
(g45
g22
tp1317
asg47
Nsg48
Nsg49
I00
sg50
Nsg51
Nsg52
Nsg53
Nsg54
V\u000a
p1318
sg56
Nsbasg57
V2016-06-08T05:37:40Z
p1319
sg59
V3LG268AV387TX4HP6B1TW4RYLBTREQ
p1320
sg61
g62
sg63
VSubmitted
p1321
sg65
V2016-06-08T19:09:00Z
p1322
sbasV3ZG552ORAM5TVVMQMBB2V07C9EFV2K
p1323
(lp1324
g6
(g7
g8
Ntp1325
Rp1326
(dp1327
g12
V2016-07-08T05:04:49Z
p1328
sg14
V3X73LLYYQ1FNP0ETT7XJW7EL6V3NHO
p1329
sg16
VA3I9WD8P9RBFHR
p1330
sg18
(lp1331
g6
(g20
g1
(lp1332
g6
(g22
g8
Ntp1333
Rp1334
(dp1335
g26
(lp1336
VDaily_Science_Grade_4_Evan_Moor_118.jpeg
p1337
asg29
Vimage_id
p1338
sbag6
(g22
g8
Ntp1339
Rp1340
(dp1341
g26
(lp1342
V[{"id":"T8","category":"unlabeled"},{"id":"T9","category":"Definition"},{"id":"T6","category":"Discussion"},{"id":"T7","category":"unlabeled"},{"id":"T4","category":"Header/Topic"},{"id":"T5","category":"unlabeled"},{"id":"T2","category":"unlabeled"},{"id":"T3","category":"unlabeled"},{"id":"T1","category":"unlabeled"},{"id":"T14","category":"unlabeled"},{"id":"T15","category":"unlabeled"},{"id":"T16","category":"Question"},{"id":"T17","category":"Question"},{"id":"T10","category":"Definition"},{"id":"T11","category":"Figure Label"},{"id":"T12","category":"Question"},{"id":"T13","category":"unlabeled"},{"id":"T18","category":"unlabeled"},{"id":"T19","category":"unlabeled"}]
p1343
asg29
Vresults
p1344
sbatp1345
Rp1346
(dp1347
g40
I01
sg41
Nsg42
Nsg43
(lp1348
(g45
g22
tp1349
asg47
Nsg48
Nsg49
I00
sg50
Nsg51
Nsg52
Nsg53
Nsg54
V\u000a
p1350
sg56
Nsbasg57
V2016-06-08T05:04:08Z
p1351
sg59
V3ZG552ORAM5TVVMQMBB2V07C9EFV2K
p1352
sg61
g62
sg63
VSubmitted
p1353
sg65
V2016-06-08T05:04:49Z
p1354
sbag6
(g7
g8
Ntp1355
Rp1356
(dp1357
g12
V2016-07-08T05:42:52Z
p1358
sg14
V324G5B4FB39NBFGAFS99UITEKZY07Q
p1359
sg16
VA36PFUM96J0ES6
p1360
sg18
(lp1361
g6
(g20
g1
(lp1362
g6
(g22
g8
Ntp1363
Rp1364
(dp1365
g26
(lp1366
VDaily_Science_Grade_4_Evan_Moor_118.jpeg
p1367
asg29
Vimage_id
p1368
sbag6
(g22
g8
Ntp1369
Rp1370
(dp1371
g26
(lp1372
V[{"id":"T8","category":"unlabeled"},{"id":"T9","category":"Definition"},{"id":"T6","category":"Discussion"},{"id":"T7","category":"unlabeled"},{"id":"T4","category":"Header/Topic"},{"id":"T5","category":"unlabeled"},{"id":"T2","category":"unlabeled"},{"id":"T3","category":"unlabeled"},{"id":"T1","category":"unlabeled"},{"id":"T14","category":"unlabeled"},{"id":"T15","category":"unlabeled"},{"id":"T16","category":"Question"},{"id":"T17","category":"Question"},{"id":"T10","category":"Definition"},{"id":"T11","category":"Figure Label"},{"id":"T12","category":"Question"},{"id":"T13","category":"unlabeled"},{"id":"T18","category":"unlabeled"},{"id":"T19","category":"unlabeled"}]
p1373
asg29
Vresults
p1374
sbatp1375
Rp1376
(dp1377
g40
I01
sg41
Nsg42
Nsg43
(lp1378
(g45
g22
tp1379
asg47
Nsg48
Nsg49
I00
sg50
Nsg51
Nsg52
Nsg53
Nsg54
V\u000a
p1380
sg56
Nsbasg57
V2016-06-08T05:39:47Z
p1381
sg59
V3ZG552ORAM5TVVMQMBB2V07C9EFV2K
p1382
sg61
g62
sg63
VSubmitted
p1383
sg65
V2016-06-08T05:42:52Z
p1384
sbag6
(g7
g8
Ntp1385
Rp1386
(dp1387
g12
V2016-07-08T19:16:03Z
p1388
sg14
V33PPO7FECVGEZJY0AV110E36S4IDIR
p1389
sg16
VA3TXJLD6JNR280
p1390
sg18
(lp1391
g6
(g20
g1
(lp1392
g6
(g22
g8
Ntp1393
Rp1394
(dp1395
g26
(lp1396
VDaily_Science_Grade_4_Evan_Moor_118.jpeg
p1397
asg29
Vimage_id
p1398
sbag6
(g22
g8
Ntp1399
Rp1400
(dp1401
g26
(lp1402
V[{"id":"T8","category":"Definition"},{"id":"T9","category":"Definition"},{"id":"T6","category":"Discussion"},{"id":"T7","category":"unlabeled"},{"id":"T4","category":"Header/Topic"},{"id":"T5","category":"unlabeled"},{"id":"T2","category":"unlabeled"},{"id":"T3","category":"unlabeled"},{"id":"T1","category":"unlabeled"},{"id":"T14","category":"unlabeled"},{"id":"T15","category":"unlabeled"},{"id":"T16","category":"Question"},{"id":"T17","category":"Question"},{"id":"T10","category":"Definition"},{"id":"T11","category":"Figure Label"},{"id":"T12","category":"Question"},{"id":"T13","category":"unlabeled"},{"id":"T18","category":"unlabeled"},{"id":"T19","category":"unlabeled"}]
p1403
asg29
Vresults
p1404
sbatp1405
Rp1406
(dp1407
g40
I01
sg41
Nsg42
Nsg43
(lp1408
(g45
g22
tp1409
asg47
Nsg48
Nsg49
I00
sg50
Nsg51
Nsg52
Nsg53
Nsg54
V\u000a
p1410
sg56
Nsbasg57
V2016-06-08T05:38:24Z
p1411
sg59
V3ZG552ORAM5TVVMQMBB2V07C9EFV2K
p1412
sg61
g62
sg63
VSubmitted
p1413
sg65
V2016-06-08T19:16:03Z
p1414
sbasV3SNR5F7R92UG45E6GO7KICQ7YFAIED
p1415
(lp1416
g6
(g7
g8
Ntp1417
Rp1418
(dp1419
g12
V2016-07-08T03:12:40Z
p1420
sg14
V30JNVC0OR9L8SXRL9ZP0019QB6IQH6
p1421
sg16
VA3HSGURL7PBDIX
p1422
sg18
(lp1423
g6
(g20
g1
(lp1424
g6
(g22
g8
Ntp1425
Rp1426
(dp1427
g26
(lp1428
VDaily_Science_Grade_5_Evan_Moor_44.jpeg
p1429
asg29
Vimage_id
p1430
sbag6
(g22
g8
Ntp1431
Rp1432
(dp1433
g26
(lp1434
V[{"id":"T14","category":"Question"},{"id":"T15","category":"Question"},{"id":"T16","category":"Question"},{"id":"T17","category":"Question"},{"id":"T10","category":"Answer"},{"id":"T11","category":"Answer"},{"id":"T12","category":"Answer"},{"id":"T13","category":"Answer"},{"id":"T18","category":"Question"},{"id":"T19","category":"Question"},{"id":"T8","category":"Question"},{"id":"T9","category":"unlabeled"},{"id":"T6","category":"unlabeled"},{"id":"T7","category":"Header/Topic"},{"id":"T4","category":"Header/Topic"},{"id":"T5","category":"Header/Topic"},{"id":"T2","category":"Question"},{"id":"T3","category":"unlabeled"},{"id":"T1","category":"unlabeled"},{"id":"T28","category":"unlabeled"},{"id":"T21","category":"Question"},{"id":"T20","category":"Question"},{"id":"T23","category":"Question"},{"id":"T22","category":"Discussion"},{"id":"T25","category":"unlabeled"},{"id":"T24","category":"Question"},{"id":"T27","category":"unlabeled"},{"id":"T26","category":"unlabeled"}]
p1435
asg29
Vresults
p1436
sbatp1437
Rp1438
(dp1439
g40
I01
sg41
Nsg42
Nsg43
(lp1440
(g45
g22
tp1441
asg47
Nsg48
Nsg49
I00
sg50
Nsg51
Nsg52
Nsg53
Nsg54
V\u000a
p1442
sg56
Nsbasg57
V2016-06-08T03:11:26Z
p1443
sg59
V3SNR5F7R92UG45E6GO7KICQ7YFAIED
p1444
sg61
g62
sg63
VSubmitted
p1445
sg65
V2016-06-08T03:12:40Z
p1446
sbag6
(g7
g8
Ntp1447
Rp1448
(dp1449
g12
V2016-07-08T05:35:32Z
p1450
sg14
V3CTOC39K37RUDLHW10JFCN8AJ847J4
p1451
sg16
VA2RSOGTSR83XKO
p1452
sg18
(lp1453
g6
(g20
g1
(lp1454
g6
(g22
g8
Ntp1455
Rp1456
(dp1457
g26
(lp1458
VDaily_Science_Grade_5_Evan_Moor_44.jpeg
p1459
asg29
Vimage_id
p1460
sbag6
(g22
g8
Ntp1461
Rp1462
(dp1463
g26
(lp1464
V[{"id":"T14","category":"Question"},{"id":"T15","category":"Question"},{"id":"T16","category":"Question"},{"id":"T17","category":"Question"},{"id":"T10","category":"Question"},{"id":"T11","category":"Question"},{"id":"T12","category":"Question"},{"id":"T13","category":"Question"},{"id":"T18","category":"Question"},{"id":"T19","category":"Question"},{"id":"T8","category":"Question"},{"id":"T9","category":"unlabeled"},{"id":"T6","category":"unlabeled"},{"id":"T7","category":"Header/Topic"},{"id":"T4","category":"unlabeled"},{"id":"T5","category":"unlabeled"},{"id":"T2","category":"unlabeled"},{"id":"T3","category":"unlabeled"},{"id":"T1","category":"unlabeled"},{"id":"T28","category":"unlabeled"},{"id":"T21","category":"Question"},{"id":"T20","category":"Question"},{"id":"T23","category":"Question"},{"id":"T22","category":"Question"},{"id":"T25","category":"unlabeled"},{"id":"T24","category":"Question"},{"id":"T27","category":"unlabeled"},{"id":"T26","category":"unlabeled"}]
p1465
asg29
Vresults
p1466
sbatp1467
Rp1468
(dp1469
g40
I01
sg41
Nsg42
Nsg43
(lp1470
(g45
g22
tp1471
asg47
Nsg48
Nsg49
I00
sg50
Nsg51
Nsg52
Nsg53
Nsg54
V\u000a
p1472
sg56
Nsbasg57
V2016-06-08T05:35:09Z
p1473
sg59
V3SNR5F7R92UG45E6GO7KICQ7YFAIED
p1474
sg61
g62
sg63
VSubmitted
p1475
sg65
V2016-06-08T05:35:32Z
p1476
sbag6
(g7
g8
Ntp1477
Rp1478
(dp1479
g12
V2016-07-08T19:05:51Z
p1480
sg14
V351SEKWQS0I0V2ORVAZTS7AN9DZDM4
p1481
sg16
VA3TXJLD6JNR280
p1482
sg18
(lp1483
g6
(g20
g1
(lp1484
g6
(g22
g8
Ntp1485
Rp1486
(dp1487
g26
(lp1488
VDaily_Science_Grade_5_Evan_Moor_44.jpeg
p1489
asg29
Vimage_id
p1490
sbag6
(g22
g8
Ntp1491
Rp1492
(dp1493
g26
(lp1494
V[{"id":"T14","category":"Question"},{"id":"T15","category":"Question"},{"id":"T16","category":"Question"},{"id":"T17","category":"Question"},{"id":"T10","category":"Question"},{"id":"T11","category":"Question"},{"id":"T12","category":"Question"},{"id":"T13","category":"Question"},{"id":"T18","category":"Question"},{"id":"T19","category":"Question"},{"id":"T8","category":"Question"},{"id":"T9","category":"unlabeled"},{"id":"T6","category":"unlabeled"},{"id":"T7","category":"Header/Topic"},{"id":"T4","category":"unlabeled"},{"id":"T5","category":"unlabeled"},{"id":"T2","category":"unlabeled"},{"id":"T3","category":"unlabeled"},{"id":"T1","category":"unlabeled"},{"id":"T28","category":"unlabeled"},{"id":"T21","category":"Question"},{"id":"T20","category":"Question"},{"id":"T23","category":"Question"},{"id":"T22","category":"Question"},{"id":"T25","category":"unlabeled"},{"id":"T24","category":"Question"},{"id":"T27","category":"unlabeled"},{"id":"T26","category":"unlabeled"}]
p1495
asg29
Vresults
p1496
sbatp1497
Rp1498
(dp1499
g40
I01
sg41
Nsg42
Nsg43
(lp1500
(g45
g22
tp1501
asg47
Nsg48
Nsg49
I00
sg50
Nsg51
Nsg52
Nsg53
Nsg54
V\u000a
p1502
sg56
Nsbasg57
V2016-06-08T04:54:38Z
p1503
sg59
V3SNR5F7R92UG45E6GO7KICQ7YFAIED
p1504
sg61
g62
sg63
VSubmitted
p1505
sg65
V2016-06-08T19:05:51Z
p1506
sbasV3JMQI2OLFZ63Q0BXH99SH243K23DNV
p1507
(lp1508
g6
(g7
g8
Ntp1509
Rp1510
(dp1511
g12
V2016-07-08T03:18:44Z
p1512
sg14
V3K4J6M3CXEU25LPT0XAWP1IKSOKAGL
p1513
sg16
VA36PFUM96J0ES6
p1514
sg18
(lp1515
g6
(g20
g1
(lp1516
g6
(g22
g8
Ntp1517
Rp1518
(dp1519
g26
(lp1520
VDaily_Science_Grade_6_(Daily_Practice_Books)_Evan_Moor_42.jpeg
p1521
asg29
Vimage_id
p1522
sbag6
(g22
g8
Ntp1523
Rp1524
(dp1525
g26
(lp1526
V[{"id":"T8","category":"Definition"},{"id":"T9","category":"Question"},{"id":"T6","category":"Discussion"},{"id":"T7","category":"unlabeled"},{"id":"T4","category":"Header/Topic"},{"id":"T5","category":"unlabeled"},{"id":"T2","category":"unlabeled"},{"id":"T3","category":"unlabeled"},{"id":"T1","category":"unlabeled"},{"id":"T14","category":"Question"},{"id":"T15","category":"unlabeled"},{"id":"T16","category":"unlabeled"},{"id":"T17","category":"unlabeled"},{"id":"T10","category":"Question"},{"id":"T11","category":"Question"},{"id":"T12","category":"Question"},{"id":"T13","category":"Question"},{"id":"T18","category":"unlabeled"}]
p1527
asg29
Vresults
p1528
sbatp1529
Rp1530
(dp1531
g40
I01
sg41
Nsg42
Nsg43
(lp1532
(g45
g22
tp1533
asg47
Nsg48
Nsg49
I00
sg50
Nsg51
Nsg52
Nsg53
Nsg54
V\u000a
p1534
sg56
Nsbasg57
V2016-06-08T03:18:25Z
p1535
sg59
V3JMQI2OLFZ63Q0BXH99SH243K23DNV
p1536
sg61
g62
sg63
VSubmitted
p1537
sg65
V2016-06-08T03:18:44Z
p1538
sbag6
(g7
g8
Ntp1539
Rp1540
(dp1541
g12
V2016-07-08T04:49:19Z
p1542
sg14
V3C2NJ6JBKAIJAABBAMUC938JHCKN25
p1543
sg16
VAK0FB4XV3SBMB
p1544
sg18
(lp1545
g6
(g20
g1
(lp1546
g6
(g22
g8
Ntp1547
Rp1548
(dp1549
g26
(lp1550
VDaily_Science_Grade_6_(Daily_Practice_Books)_Evan_Moor_42.jpeg
p1551
asg29
Vimage_id
p1552
sbag6
(g22
g8
Ntp1553
Rp1554
(dp1555
g26
(lp1556
V[{"id":"T8","category":"Definition"},{"id":"T9","category":"Question"},{"id":"T6","category":"Discussion"},{"id":"T7","category":"unlabeled"},{"id":"T4","category":"Header/Topic"},{"id":"T5","category":"unlabeled"},{"id":"T2","category":"unlabeled"},{"id":"T3","category":"unlabeled"},{"id":"T1","category":"unlabeled"},{"id":"T14","category":"Question"},{"id":"T15","category":"unlabeled"},{"id":"T16","category":"unlabeled"},{"id":"T17","category":"unlabeled"},{"id":"T10","category":"Question"},{"id":"T11","category":"Question"},{"id":"T12","category":"Question"},{"id":"T13","category":"Question"},{"id":"T18","category":"unlabeled"}]
p1557
asg29
Vresults
p1558
sbatp1559
Rp1560
(dp1561
g40
I01
sg41
Nsg42
Nsg43
(lp1562
(g45
g22
tp1563
asg47
Nsg48
Nsg49
I00
sg50
Nsg51
Nsg52
Nsg53
Nsg54
V\u000a
p1564
sg56
Nsbasg57
V2016-06-08T04:48:51Z
p1565
sg59
V3JMQI2OLFZ63Q0BXH99SH243K23DNV
p1566
sg61
g62
sg63
VSubmitted
p1567
sg65
V2016-06-08T04:49:19Z
p1568
sbag6
(g7
g8
Ntp1569
Rp1570
(dp1571
g12
V2016-07-08T19:02:47Z
p1572
sg14
V3CCZ6YKWR7KQK5Q4RVD5P9GBWXV95U
p1573
sg16
VA3TXJLD6JNR280
p1574
sg18
(lp1575
g6
(g20
g1
(lp1576
g6
(g22
g8
Ntp1577
Rp1578
(dp1579
g26
(lp1580
VDaily_Science_Grade_6_(Daily_Practice_Books)_Evan_Moor_42.jpeg
p1581
asg29
Vimage_id
p1582
sbag6
(g22
g8
Ntp1583
Rp1584
(dp1585
g26
(lp1586
V[{"id":"T8","category":"Definition"},{"id":"T9","category":"Question"},{"id":"T6","category":"Discussion"},{"id":"T7","category":"unlabeled"},{"id":"T4","category":"Header/Topic"},{"id":"T5","category":"unlabeled"},{"id":"T2","category":"unlabeled"},{"id":"T3","category":"unlabeled"},{"id":"T1","category":"unlabeled"},{"id":"T14","category":"Question"},{"id":"T15","category":"unlabeled"},{"id":"T16","category":"unlabeled"},{"id":"T17","category":"unlabeled"},{"id":"T10","category":"unlabeled"},{"id":"T11","category":"unlabeled"},{"id":"T12","category":"Question"},{"id":"T13","category":"unlabeled"},{"id":"T18","category":"unlabeled"}]
p1587
asg29
Vresults
p1588
sbatp1589
Rp1590
(dp1591
g40
I01
sg41
Nsg42
Nsg43
(lp1592
(g45
g22
tp1593
asg47
Nsg48
Nsg49
I00
sg50
Nsg51
Nsg52
Nsg53
Nsg54
V\u000a
p1594
sg56
Nsbasg57
V2016-06-08T04:53:16Z
p1595
sg59
V3JMQI2OLFZ63Q0BXH99SH243K23DNV
p1596
sg61
g62
sg63
VSubmitted
p1597
sg65
V2016-06-08T19:02:47Z
p1598
sbasV33CLA8O0MICL3IHL1MLZEMCYXC8RF8
p1599
(lp1600
g6
(g7
g8
Ntp1601
Rp1602
(dp1603
g12
V2016-07-08T04:07:08Z
p1604
sg14
V36U2A8VAG1083PJF6U9RQFSK2W7YKP
p1605
sg16
VA3OKWRLKLYVH4F
p1606
sg18
(lp1607
g6
(g20
g1
(lp1608
g6
(g22
g8
Ntp1609
Rp1610
(dp1611
g26
(lp1612
VDaily_Science_Grade_6_(Daily_Practice_Books)_Evan_Moor_116.jpeg
p1613
asg29
Vimage_id
p1614
sbag6
(g22
g8
Ntp1615
Rp1616
(dp1617
g26
(lp1618
V[{"id":"T14","category":"Question"},{"id":"T15","category":"Question"},{"id":"T16","category":"Question"},{"id":"T17","category":"Question"},{"id":"T10","category":"Question"},{"id":"T11","category":"Question"},{"id":"T12","category":"Question"},{"id":"T13","category":"Question"},{"id":"T34","category":"unlabeled"},{"id":"T35","category":"unlabeled"},{"id":"T18","category":"Question"},{"id":"T19","category":"Question"},{"id":"T30","category":"Question"},{"id":"T31","category":"Question"},{"id":"T32","category":"Question"},{"id":"T33","category":"Question"},{"id":"T8","category":"Question"},{"id":"T9","category":"Question"},{"id":"T6","category":"Question"},{"id":"T7","category":"unlabeled"},{"id":"T4","category":"Header/Topic"},{"id":"T5","category":"unlabeled"},{"id":"T2","category":"unlabeled"},{"id":"T3","category":"unlabeled"},{"id":"T1","category":"unlabeled"},{"id":"T29","category":"Question"},{"id":"T28","category":"Question"},{"id":"T21","category":"Question"},{"id":"T20","category":"Question"},{"id":"T23","category":"Question"},{"id":"T22","category":"Question"},{"id":"T25","category":"Question"},{"id":"T24","category":"Question"},{"id":"T27","category":"Question"},{"id":"T26","category":"Question"}]
p1619
asg29
Vresults
p1620
sbatp1621
Rp1622
(dp1623
g40
I01
sg41
Nsg42
Nsg43
(lp1624
(g45
g22
tp1625
asg47
Nsg48
Nsg49
I00
sg50
Nsg51
Nsg52
Nsg53
Nsg54
V\u000a
p1626
sg56
Nsbasg57
V2016-06-08T04:06:38Z
p1627
sg59
V33CLA8O0MICL3IHL1MLZEMCYXC8RF8
p1628
sg61
g62
sg63
VSubmitted
p1629
sg65
V2016-06-08T04:07:08Z
p1630
sbag6
(g7
g8
Ntp1631
Rp1632
(dp1633
g12
V2016-07-08T06:02:19Z
p1634
sg14
V3ZAZR5XV01JQPHHWA3UCG3OE3H7CZM
p1635
sg16
VA3I9WD8P9RBFHR
p1636
sg18
(lp1637
g6
(g20
g1
(lp1638
g6
(g22
g8
Ntp1639
Rp1640
(dp1641
g26
(lp1642
VDaily_Science_Grade_6_(Daily_Practice_Books)_Evan_Moor_116.jpeg
p1643
asg29
Vimage_id
p1644
sbag6
(g22
g8
Ntp1645
Rp1646
(dp1647
g26
(lp1648
V[{"id":"T14","category":"Question"},{"id":"T15","category":"Question"},{"id":"T16","category":"Question"},{"id":"T17","category":"Question"},{"id":"T10","category":"Answer"},{"id":"T11","category":"Question"},{"id":"T12","category":"Question"},{"id":"T13","category":"Question"},{"id":"T34","category":"unlabeled"},{"id":"T35","category":"unlabeled"},{"id":"T18","category":"Question"},{"id":"T19","category":"Question"},{"id":"T30","category":"Question"},{"id":"T31","category":"Question"},{"id":"T32","category":"Question"},{"id":"T33","category":"Question"},{"id":"T8","category":"Answer"},{"id":"T9","category":"Answer"},{"id":"T6","category":"Question"},{"id":"T7","category":"unlabeled"},{"id":"T4","category":"Header/Topic"},{"id":"T5","category":"unlabeled"},{"id":"T2","category":"unlabeled"},{"id":"T3","category":"unlabeled"},{"id":"T1","category":"unlabeled"},{"id":"T29","category":"Question"},{"id":"T28","category":"Question"},{"id":"T21","category":"Question"},{"id":"T20","category":"Question"},{"id":"T23","category":"Question"},{"id":"T22","category":"Question"},{"id":"T25","category":"Question"},{"id":"T24","category":"Question"},{"id":"T27","category":"Question"},{"id":"T26","category":"Question"}]
p1649
asg29
Vresults
p1650
sbatp1651
Rp1652
(dp1653
g40
I01
sg41
Nsg42
Nsg43
(lp1654
(g45
g22
tp1655
asg47
Nsg48
Nsg49
I00
sg50
Nsg51
Nsg52
Nsg53
Nsg54
V\u000a
p1656
sg56
Nsbasg57
V2016-06-08T05:17:20Z
p1657
sg59
V33CLA8O0MICL3IHL1MLZEMCYXC8RF8
p1658
sg61
g62
sg63
VSubmitted
p1659
sg65
V2016-06-08T06:02:19Z
p1660
sbag6
(g7
g8
Ntp1661
Rp1662
(dp1663
g12
V2016-07-08T18:12:08Z
p1664
sg14
V39RP059MEHU7G5Q7HE8NXHMN7TQBM1
p1665
sg16
VA03922113RU44GENR8ATX
p1666
sg18
(lp1667
g6
(g20
g1
(lp1668
g6
(g22
g8
Ntp1669
Rp1670
(dp1671
g26
(lp1672
VDaily_Science_Grade_6_(Daily_Practice_Books)_Evan_Moor_116.jpeg
p1673
asg29
Vimage_id
p1674
sbag6
(g22
g8
Ntp1675
Rp1676
(dp1677
g26
(lp1678
V[{"id":"T14","category":"Question"},{"id":"T15","category":"Question"},{"id":"T16","category":"Question"},{"id":"T17","category":"Question"},{"id":"T10","category":"Question"},{"id":"T11","category":"Question"},{"id":"T12","category":"Question"},{"id":"T13","category":"Question"},{"id":"T34","category":"unlabeled"},{"id":"T35","category":"unlabeled"},{"id":"T18","category":"Question"},{"id":"T19","category":"Question"},{"id":"T30","category":"Question"},{"id":"T31","category":"Question"},{"id":"T32","category":"Question"},{"id":"T33","category":"Question"},{"id":"T8","category":"Question"},{"id":"T9","category":"Question"},{"id":"T6","category":"Question"},{"id":"T7","category":"unlabeled"},{"id":"T4","category":"Header/Topic"},{"id":"T5","category":"unlabeled"},{"id":"T2","category":"unlabeled"},{"id":"T3","category":"unlabeled"},{"id":"T1","category":"unlabeled"},{"id":"T29","category":"Question"},{"id":"T28","category":"Question"},{"id":"T21","category":"Question"},{"id":"T20","category":"Question"},{"id":"T23","category":"Question"},{"id":"T22","category":"Question"},{"id":"T25","category":"Question"},{"id":"T24","category":"Question"},{"id":"T27","category":"Question"},{"id":"T26","category":"Question"}]
p1679
asg29
Vresults
p1680
sbatp1681
Rp1682
(dp1683
g40
I01
sg41
Nsg42
Nsg43
(lp1684
(g45
g22
tp1685
asg47
Nsg48
Nsg49
I00
sg50
Nsg51
Nsg52
Nsg53
Nsg54
V\u000a
p1686
sg56
Nsbasg57
V2016-06-08T18:11:07Z
p1687
sg59
V33CLA8O0MICL3IHL1MLZEMCYXC8RF8
p1688
sg61
g62
sg63
VSubmitted
p1689
sg65
V2016-06-08T18:12:08Z
p1690
sbasV3AJA9FLWSCZ8AJE2BZRQ0UB7AGPIFV
p1691
(lp1692
g6
(g7
g8
Ntp1693
Rp1694
(dp1695
g12
V2016-07-08T02:31:20Z
p1696
sg14
V3TMSXRD2X6128J2TJJLL03B5II0W1E
p1697
sg16
VA3GNQDFPZALU92
p1698
sg18
(lp1699
g6
(g20
g1
(lp1700
g6
(g22
g8
Ntp1701
Rp1702
(dp1703
g26
(lp1704
VDaily_Science_Grade_5_Evan_Moor_53.jpeg
p1705
asg29
Vimage_id
p1706
sbag6
(g22
g8
Ntp1707
Rp1708
(dp1709
g26
(lp1710
V[{"id":"T14","category":"Figure Label"},{"id":"T15","category":"Figure Label"},{"id":"T16","category":"Figure Label"},{"id":"T17","category":"Question"},{"id":"T10","category":"Definition"},{"id":"T11","category":"unlabeled"},{"id":"T12","category":"Question"},{"id":"T13","category":"Definition"},{"id":"T18","category":"unlabeled"},{"id":"T19","category":"unlabeled"},{"id":"T8","category":"Definition"},{"id":"T9","category":"Discussion"},{"id":"T6","category":"Discussion"},{"id":"T7","category":"Header/Topic"},{"id":"T4","category":"Header/Topic"},{"id":"T5","category":"Header/Topic"},{"id":"T2","category":"unlabeled"},{"id":"T3","category":"Header/Topic"},{"id":"T1","category":"Header/Topic"},{"id":"T21","category":"unlabeled"},{"id":"T20","category":"unlabeled"},{"id":"T23","category":"Header/Topic"},{"id":"T22","category":"Header/Topic"},{"id":"T25","category":"Header/Topic"},{"id":"T24","category":"Header/Topic"},{"id":"T26","category":"Header/Topic"}]
p1711
asg29
Vresults
p1712
sbatp1713
Rp1714
(dp1715
g40
I01
sg41
Nsg42
Nsg43
(lp1716
(g45
g22
tp1717
asg47
Nsg48
Nsg49
I00
sg50
Nsg51
Nsg52
Nsg53
Nsg54
V\u000a
p1718
sg56
Nsbasg57
V2016-06-08T02:30:15Z
p1719
sg59
V3AJA9FLWSCZ8AJE2BZRQ0UB7AGPIFV
p1720
sg61
g62
sg63
VSubmitted
p1721
sg65
V2016-06-08T02:31:20Z
p1722
sbag6
(g7
g8
Ntp1723
Rp1724
(dp1725
g12
V2016-07-08T04:43:26Z
p1726
sg14
V3L4PIM1GQTHUQTWAWEIORREYXO4RYE
p1727
sg16
VA3OKWRLKLYVH4F
p1728
sg18
(lp1729
g6
(g20
g1
(lp1730
g6
(g22
g8
Ntp1731
Rp1732
(dp1733
g26
(lp1734
VDaily_Science_Grade_5_Evan_Moor_53.jpeg
p1735
asg29
Vimage_id
p1736
sbag6
(g22
g8
Ntp1737
Rp1738
(dp1739
g26
(lp1740
V[{"id":"T14","category":"Figure Label"},{"id":"T15","category":"Figure Label"},{"id":"T16","category":"Figure Label"},{"id":"T17","category":"Question"},{"id":"T10","category":"Definition"},{"id":"T11","category":"Definition"},{"id":"T12","category":"Question"},{"id":"T13","category":"Definition"},{"id":"T18","category":"Question"},{"id":"T19","category":"Question"},{"id":"T8","category":"unlabeled"},{"id":"T9","category":"Discussion"},{"id":"T6","category":"Discussion"},{"id":"T7","category":"unlabeled"},{"id":"T4","category":"Header/Topic"},{"id":"T5","category":"unlabeled"},{"id":"T2","category":"unlabeled"},{"id":"T3","category":"unlabeled"},{"id":"T1","category":"unlabeled"},{"id":"T21","category":"unlabeled"},{"id":"T20","category":"Question"},{"id":"T23","category":"unlabeled"},{"id":"T22","category":"unlabeled"},{"id":"T25","category":"unlabeled"},{"id":"T24","category":"unlabeled"},{"id":"T26","category":"unlabeled"}]
p1741
asg29
Vresults
p1742
sbatp1743
Rp1744
(dp1745
g40
I01
sg41
Nsg42
Nsg43
(lp1746
(g45
g22
tp1747
asg47
Nsg48
Nsg49
I00
sg50
Nsg51
Nsg52
Nsg53
Nsg54
V\u000a
p1748
sg56
Nsbasg57
V2016-06-08T04:42:53Z
p1749
sg59
V3AJA9FLWSCZ8AJE2BZRQ0UB7AGPIFV
p1750
sg61
g62
sg63
VSubmitted
p1751
sg65
V2016-06-08T04:43:26Z
p1752
sbag6
(g7
g8
Ntp1753
Rp1754
(dp1755
g12
V2016-07-08T19:06:24Z
p1756
sg14
V3AWETUDC92TH2K3W2DQYR6M9GMPIZS
p1757
sg16
VA3TXJLD6JNR280
p1758
sg18
(lp1759
g6
(g20
g1
(lp1760
g6
(g22
g8
Ntp1761
Rp1762
(dp1763
g26
(lp1764
VDaily_Science_Grade_5_Evan_Moor_53.jpeg
p1765
asg29
Vimage_id
p1766
sbag6
(g22
g8
Ntp1767
Rp1768
(dp1769
g26
(lp1770
V[{"id":"T14","category":"Figure Label"},{"id":"T15","category":"Figure Label"},{"id":"T16","category":"Figure Label"},{"id":"T17","category":"Question"},{"id":"T10","category":"Definition"},{"id":"T11","category":"unlabeled"},{"id":"T12","category":"Question"},{"id":"T13","category":"Definition"},{"id":"T18","category":"unlabeled"},{"id":"T19","category":"unlabeled"},{"id":"T8","category":"Definition"},{"id":"T9","category":"Discussion"},{"id":"T6","category":"Discussion"},{"id":"T7","category":"unlabeled"},{"id":"T4","category":"Header/Topic"},{"id":"T5","category":"unlabeled"},{"id":"T2","category":"unlabeled"},{"id":"T3","category":"unlabeled"},{"id":"T1","category":"unlabeled"},{"id":"T21","category":"unlabeled"},{"id":"T20","category":"unlabeled"},{"id":"T23","category":"unlabeled"},{"id":"T22","category":"unlabeled"},{"id":"T25","category":"unlabeled"},{"id":"T24","category":"unlabeled"},{"id":"T26","category":"unlabeled"}]
p1771
asg29
Vresults
p1772
sbatp1773
Rp1774
(dp1775
g40
I01
sg41
Nsg42
Nsg43
(lp1776
(g45
g22
tp1777
asg47
Nsg48
Nsg49
I00
sg50
Nsg51
Nsg52
Nsg53
Nsg54
V\u000a
p1778
sg56
Nsbasg57
V2016-06-08T04:54:56Z
p1779
sg59
V3AJA9FLWSCZ8AJE2BZRQ0UB7AGPIFV
p1780
sg61
g62
sg63
VSubmitted
p1781
sg65
V2016-06-08T19:06:24Z
p1782
sbasV33TGB4G0LPIFJJLY55WGK8DNP20XTH
p1783
(lp1784
g6
(g7
g8
Ntp1785
Rp1786
(dp1787
g12
V2016-07-08T02:54:23Z
p1788
sg14
V3SEPORI8WN02W2KYQPYLA8YQ3EDAZ9
p1789
sg16
VA3GNQDFPZALU92
p1790
sg18
(lp1791
g6
(g20
g1
(lp1792
g6
(g22
g8
Ntp1793
Rp1794
(dp1795
g26
(lp1796
VDaily_Science_Grade_5_Evan_Moor_97.jpeg
p1797
asg29
Vimage_id
p1798
sbag6
(g22
g8
Ntp1799
Rp1800
(dp1801
g26
(lp1802
V[{"id":"T8","category":"Definition"},{"id":"T9","category":"Discussion"},{"id":"T6","category":"Discussion"},{"id":"T7","category":"Discussion"},{"id":"T4","category":"Discussion"},{"id":"T5","category":"Header/Topic"},{"id":"T2","category":"unlabeled"},{"id":"T3","category":"Discussion"},{"id":"T1","category":"Header/Topic"},{"id":"T14","category":"unlabeled"},{"id":"T15","category":"unlabeled"},{"id":"T16","category":"unlabeled"},{"id":"T17","category":"unlabeled"},{"id":"T10","category":"Definition"},{"id":"T11","category":"Definition"},{"id":"T12","category":"unlabeled"},{"id":"T13","category":"Definition"},{"id":"T18","category":"unlabeled"}]
p1803
asg29
Vresults
p1804
sbatp1805
Rp1806
(dp1807
g40
I01
sg41
Nsg42
Nsg43
(lp1808
(g45
g22
tp1809
asg47
Nsg48
Nsg49
I00
sg50
Nsg51
Nsg52
Nsg53
Nsg54
V\u000a
p1810
sg56
Nsbasg57
V2016-06-08T02:53:31Z
p1811
sg59
V33TGB4G0LPIFJJLY55WGK8DNP20XTH
p1812
sg61
g62
sg63
VSubmitted
p1813
sg65
V2016-06-08T02:54:23Z
p1814
sbag6
(g7
g8
Ntp1815
Rp1816
(dp1817
g12
V2016-07-08T06:06:28Z
p1818
sg14
V3NXNZ5RS1AY5794NFOS2NTU7N3S97B
p1819
sg16
VA3I9WD8P9RBFHR
p1820
sg18
(lp1821
g6
(g20
g1
(lp1822
g6
(g22
g8
Ntp1823
Rp1824
(dp1825
g26
(lp1826
VDaily_Science_Grade_5_Evan_Moor_97.jpeg
p1827
asg29
Vimage_id
p1828
sbag6
(g22
g8
Ntp1829
Rp1830
(dp1831
g26
(lp1832
V[{"id":"T8","category":"Question"},{"id":"T9","category":"Answer"},{"id":"T6","category":"Discussion"},{"id":"T7","category":"Discussion"},{"id":"T4","category":"Discussion"},{"id":"T5","category":"Header/Topic"},{"id":"T2","category":"unlabeled"},{"id":"T3","category":"Discussion"},{"id":"T1","category":"Header/Topic"},{"id":"T14","category":"unlabeled"},{"id":"T15","category":"unlabeled"},{"id":"T16","category":"unlabeled"},{"id":"T17","category":"unlabeled"},{"id":"T10","category":"Question"},{"id":"T11","category":"Question"},{"id":"T12","category":"Answer"},{"id":"T13","category":"Question"},{"id":"T18","category":"unlabeled"}]
p1833
asg29
Vresults
p1834
sbatp1835
Rp1836
(dp1837
g40
I01
sg41
Nsg42
Nsg43
(lp1838
(g45
g22
tp1839
asg47
Nsg48
Nsg49
I00
sg50
Nsg51
Nsg52
Nsg53
Nsg54
V\u000a
p1840
sg56
Nsbasg57
V2016-06-08T05:26:06Z
p1841
sg59
V33TGB4G0LPIFJJLY55WGK8DNP20XTH
p1842
sg61
g62
sg63
VSubmitted
p1843
sg65
V2016-06-08T06:06:28Z
p1844
sbag6
(g7
g8
Ntp1845
Rp1846
(dp1847
g12
V2016-07-08T19:11:14Z
p1848
sg14
V35H6S234SA132MO6TOAT5ZP96WQ65J
p1849
sg16
VA3TXJLD6JNR280
p1850
sg18
(lp1851
g6
(g20
g1
(lp1852
g6
(g22
g8
Ntp1853
Rp1854
(dp1855
g26
(lp1856
VDaily_Science_Grade_5_Evan_Moor_97.jpeg
p1857
asg29
Vimage_id
p1858
sbag6
(g22
g8
Ntp1859
Rp1860
(dp1861
g26
(lp1862
V[{"id":"T8","category":"Discussion"},{"id":"T9","category":"Discussion"},{"id":"T6","category":"Discussion"},{"id":"T7","category":"Discussion"},{"id":"T4","category":"unlabeled"},{"id":"T5","category":"Header/Topic"},{"id":"T2","category":"unlabeled"},{"id":"T3","category":"unlabeled"},{"id":"T1","category":"unlabeled"},{"id":"T14","category":"unlabeled"},{"id":"T15","category":"unlabeled"},{"id":"T16","category":"unlabeled"},{"id":"T17","category":"unlabeled"},{"id":"T10","category":"Discussion"},{"id":"T11","category":"Discussion"},{"id":"T12","category":"unlabeled"},{"id":"T13","category":"Discussion"},{"id":"T18","category":"unlabeled"}]
p1863
asg29
Vresults
p1864
sbatp1865
Rp1866
(dp1867
g40
I01
sg41
Nsg42
Nsg43
(lp1868
(g45
g22
tp1869
asg47
Nsg48
Nsg49
I00
sg50
Nsg51
Nsg52
Nsg53
Nsg54
V\u000a
p1870
sg56
Nsbasg57
V2016-06-08T05:37:45Z
p1871
sg59
V33TGB4G0LPIFJJLY55WGK8DNP20XTH
p1872
sg61
g62
sg63
VSubmitted
p1873
sg65
V2016-06-08T19:11:14Z
p1874
sbasV37MQ8Z1JQEXAZPHVRMYM2ZB6RVI2Y1
p1875
(lp1876
g6
(g7
g8
Ntp1877
Rp1878
(dp1879
g12
V2016-07-08T03:28:30Z
p1880
sg14
V3R3YRB5GRF4LA3QOK2ZDTGJB1W0UA6
p1881
sg16
VA2RSOGTSR83XKO
p1882
sg18
(lp1883
g6
(g20
g1
(lp1884
g6
(g22
g8
Ntp1885
Rp1886
(dp1887
g26
(lp1888
VDaily_Science_Grade_4_Evan_Moor_90.jpeg
p1889
asg29
Vimage_id
p1890
sbag6
(g22
g8
Ntp1891
Rp1892
(dp1893
g26
(lp1894
V[{"id":"T8","category":"unlabeled"},{"id":"T9","category":"Question"},{"id":"T6","category":"unlabeled"},{"id":"T7","category":"Discussion"},{"id":"T4","category":"Header/Topic"},{"id":"T5","category":"unlabeled"},{"id":"T2","category":"unlabeled"},{"id":"T3","category":"unlabeled"},{"id":"T1","category":"unlabeled"},{"id":"T14","category":"Question"},{"id":"T15","category":"Question"},{"id":"T16","category":"Question"},{"id":"T17","category":"unlabeled"},{"id":"T10","category":"unlabeled"},{"id":"T11","category":"unlabeled"},{"id":"T12","category":"Question"},{"id":"T13","category":"Question"},{"id":"T20","category":"unlabeled"},{"id":"T18","category":"unlabeled"},{"id":"T19","category":"unlabeled"}]
p1895
asg29
Vresults
p1896
sbatp1897
Rp1898
(dp1899
g40
I01
sg41
Nsg42
Nsg43
(lp1900
(g45
g22
tp1901
asg47
Nsg48
Nsg49
I00
sg50
Nsg51
Nsg52
Nsg53
Nsg54
V\u000a
p1902
sg56
Nsbasg57
V2016-06-08T03:27:42Z
p1903
sg59
V37MQ8Z1JQEXAZPHVRMYM2ZB6RVI2Y1
p1904
sg61
g62
sg63
VSubmitted
p1905
sg65
V2016-06-08T03:28:30Z
p1906
sbag6
(g7
g8
Ntp1907
Rp1908
(dp1909
g12
V2016-07-08T04:43:34Z
p1910
sg14
V32M8BPYGATNHB38RCL296Z635WUGI0
p1911
sg16
VA36PFUM96J0ES6
p1912
sg18
(lp1913
g6
(g20
g1
(lp1914
g6
(g22
g8
Ntp1915
Rp1916
(dp1917
g26
(lp1918
VDaily_Science_Grade_4_Evan_Moor_90.jpeg
p1919
asg29
Vimage_id
p1920
sbag6
(g22
g8
Ntp1921
Rp1922
(dp1923
g26
(lp1924
V[{"id":"T8","category":"unlabeled"},{"id":"T9","category":"Question"},{"id":"T6","category":"unlabeled"},{"id":"T7","category":"Discussion"},{"id":"T4","category":"Header/Topic"},{"id":"T5","category":"unlabeled"},{"id":"T2","category":"unlabeled"},{"id":"T3","category":"unlabeled"},{"id":"T1","category":"unlabeled"},{"id":"T14","category":"Question"},{"id":"T15","category":"Question"},{"id":"T16","category":"Question"},{"id":"T17","category":"unlabeled"},{"id":"T10","category":"unlabeled"},{"id":"T11","category":"unlabeled"},{"id":"T12","category":"Question"},{"id":"T13","category":"Question"},{"id":"T20","category":"unlabeled"},{"id":"T18","category":"unlabeled"},{"id":"T19","category":"unlabeled"}]
p1925
asg29
Vresults
p1926
sbatp1927
Rp1928
(dp1929
g40
I01
sg41
Nsg42
Nsg43
(lp1930
(g45
g22
tp1931
asg47
Nsg48
Nsg49
I00
sg50
Nsg51
Nsg52
Nsg53
Nsg54
V\u000a
p1932
sg56
Nsbasg57
V2016-06-08T04:43:22Z
p1933
sg59
V37MQ8Z1JQEXAZPHVRMYM2ZB6RVI2Y1
p1934
sg61
g62
sg63
VSubmitted
p1935
sg65
V2016-06-08T04:43:34Z
p1936
sbag6
(g7
g8
Ntp1937
Rp1938
(dp1939
g12
V2016-07-08T19:08:30Z
p1940
sg14
V3RXPCZQMQPC6BXCT4EH3E0PHOUMG1B
p1941
sg16
VA3TXJLD6JNR280
p1942
sg18
(lp1943
g6
(g20
g1
(lp1944
g6
(g22
g8
Ntp1945
Rp1946
(dp1947
g26
(lp1948
VDaily_Science_Grade_4_Evan_Moor_90.jpeg
p1949
asg29
Vimage_id
p1950
sbag6
(g22
g8
Ntp1951
Rp1952
(dp1953
g26
(lp1954
V[{"id":"T8","category":"unlabeled"},{"id":"T9","category":"Question"},{"id":"T6","category":"unlabeled"},{"id":"T7","category":"Discussion"},{"id":"T4","category":"Header/Topic"},{"id":"T5","category":"unlabeled"},{"id":"T2","category":"unlabeled"},{"id":"T3","category":"unlabeled"},{"id":"T1","category":"unlabeled"},{"id":"T14","category":"Question"},{"id":"T15","category":"Question"},{"id":"T16","category":"Question"},{"id":"T17","category":"unlabeled"},{"id":"T10","category":"unlabeled"},{"id":"T11","category":"unlabeled"},{"id":"T12","category":"Question"},{"id":"T13","category":"Question"},{"id":"T20","category":"unlabeled"},{"id":"T18","category":"unlabeled"},{"id":"T19","category":"unlabeled"}]
p1955
asg29
Vresults
p1956
sbatp1957
Rp1958
(dp1959
g40
I01
sg41
Nsg42
Nsg43
(lp1960
(g45
g22
tp1961
asg47
Nsg48
Nsg49
I00
sg50
Nsg51
Nsg52
Nsg53
Nsg54
V\u000a
p1962
sg56
Nsbasg57
V2016-06-08T05:20:01Z
p1963
sg59
V37MQ8Z1JQEXAZPHVRMYM2ZB6RVI2Y1
p1964
sg61
g62
sg63
VSubmitted
p1965
sg65
V2016-06-08T19:08:30Z
p1966
sbasV36AZSFEYZ41NJ8MM544DWTAG3KSBV2
p1967
(lp1968
g6
(g7
g8
Ntp1969
Rp1970
(dp1971
g12
V2016-07-08T05:29:11Z
p1972
sg14
V31LVTDXBL7BAQUPBDZTYXJC2O92LRI
p1973
sg16
VA3I9WD8P9RBFHR
p1974
sg18
(lp1975
g6
(g20
g1
(lp1976
g6
(g22
g8
Ntp1977
Rp1978
(dp1979
g26
(lp1980
VDaily_Science_Grade_4_Evan_Moor_19.jpeg
p1981
asg29
Vimage_id
p1982
sbag6
(g22
g8
Ntp1983
Rp1984
(dp1985
g26
(lp1986
V[{"id":"T14","category":"Figure Label"},{"id":"T15","category":"Figure Label"},{"id":"T16","category":"Question"},{"id":"T17","category":"Question"},{"id":"T10","category":"unlabeled"},{"id":"T11","category":"Discussion"},{"id":"T12","category":"unlabeled"},{"id":"T13","category":"Definition"},{"id":"T18","category":"Question"},{"id":"T19","category":"Question"},{"id":"T8","category":"unlabeled"},{"id":"T9","category":"Definition"},{"id":"T6","category":"Discussion"},{"id":"T7","category":"unlabeled"},{"id":"T4","category":"Header/Topic"},{"id":"T5","category":"unlabeled"},{"id":"T2","category":"unlabeled"},{"id":"T3","category":"unlabeled"},{"id":"T1","category":"unlabeled"},{"id":"T28","category":"unlabeled"},{"id":"T21","category":"Question"},{"id":"T20","category":"Question"},{"id":"T23","category":"Question"},{"id":"T22","category":"Question"},{"id":"T25","category":"unlabeled"},{"id":"T24","category":"Question"},{"id":"T27","category":"unlabeled"},{"id":"T26","category":"unlabeled"}]
p1987
asg29
Vresults
p1988
sbatp1989
Rp1990
(dp1991
g40
I01
sg41
Nsg42
Nsg43
(lp1992
(g45
g22
tp1993
asg47
Nsg48
Nsg49
I00
sg50
Nsg51
Nsg52
Nsg53
Nsg54
V\u000a
p1994
sg56
Nsbasg57
V2016-06-08T05:26:44Z
p1995
sg59
V36AZSFEYZ41NJ8MM544DWTAG3KSBV2
p1996
sg61
g62
sg63
VSubmitted
p1997
sg65
V2016-06-08T05:29:11Z
p1998
sbag6
(g7
g8
Ntp1999
Rp2000
(dp2001
g12
V2016-07-08T05:55:44Z
p2002
sg14
V38YMOXR4MU0XF53QPPX2VZ2MQTUW6Q
p2003
sg16
VA36PFUM96J0ES6
p2004
sg18
(lp2005
g6
(g20
g1
(lp2006
g6
(g22
g8
Ntp2007
Rp2008
(dp2009
g26
(lp2010
VDaily_Science_Grade_4_Evan_Moor_19.jpeg
p2011
asg29
Vimage_id
p2012
sbag6
(g22
g8
Ntp2013
Rp2014
(dp2015
g26
(lp2016
V[{"id":"T14","category":"Figure Label"},{"id":"T15","category":"Figure Label"},{"id":"T16","category":"Question"},{"id":"T17","category":"Question"},{"id":"T10","category":"unlabeled"},{"id":"T11","category":"Discussion"},{"id":"T12","category":"unlabeled"},{"id":"T13","category":"Definition"},{"id":"T18","category":"Question"},{"id":"T19","category":"Question"},{"id":"T8","category":"unlabeled"},{"id":"T9","category":"Definition"},{"id":"T6","category":"Discussion"},{"id":"T7","category":"unlabeled"},{"id":"T4","category":"Header/Topic"},{"id":"T5","category":"unlabeled"},{"id":"T2","category":"unlabeled"},{"id":"T3","category":"unlabeled"},{"id":"T1","category":"unlabeled"},{"id":"T28","category":"unlabeled"},{"id":"T21","category":"Question"},{"id":"T20","category":"Question"},{"id":"T23","category":"unlabeled"},{"id":"T22","category":"Question"},{"id":"T25","category":"unlabeled"},{"id":"T24","category":"unlabeled"},{"id":"T27","category":"unlabeled"},{"id":"T26","category":"unlabeled"}]
p2017
asg29
Vresults
p2018
sbatp2019
Rp2020
(dp2021
g40
I01
sg41
Nsg42
Nsg43
(lp2022
(g45
g22
tp2023
asg47
Nsg48
Nsg49
I00
sg50
Nsg51
Nsg52
Nsg53
Nsg54
V\u000a
p2024
sg56
Nsbasg57
V2016-06-08T05:55:20Z
p2025
sg59
V36AZSFEYZ41NJ8MM544DWTAG3KSBV2
p2026
sg61
g62
sg63
VSubmitted
p2027
sg65
V2016-06-08T05:55:44Z
p2028
sbag6
(g7
g8
Ntp2029
Rp2030
(dp2031
g12
V2016-07-08T18:57:00Z
p2032
sg14
V3ZR9AIQJUBAQSSYRDUB2R694TX4406
p2033
sg16
VAPLQSM4J9E6LR
p2034
sg18
(lp2035
g6
(g20
g1
(lp2036
g6
(g22
g8
Ntp2037
Rp2038
(dp2039
g26
(lp2040
VDaily_Science_Grade_4_Evan_Moor_19.jpeg
p2041
asg29
Vimage_id
p2042
sbag6
(g22
g8
Ntp2043
Rp2044
(dp2045
g26
(lp2046
V[{"id":"T14","category":"Figure Label"},{"id":"T15","category":"Figure Label"},{"id":"T16","category":"Question"},{"id":"T17","category":"Question"},{"id":"T10","category":"unlabeled"},{"id":"T11","category":"Discussion"},{"id":"T12","category":"unlabeled"},{"id":"T13","category":"Definition"},{"id":"T18","category":"Question"},{"id":"T19","category":"Question"},{"id":"T8","category":"Definition"},{"id":"T9","category":"Definition"},{"id":"T6","category":"Discussion"},{"id":"T7","category":"unlabeled"},{"id":"T4","category":"Header/Topic"},{"id":"T5","category":"unlabeled"},{"id":"T2","category":"unlabeled"},{"id":"T3","category":"unlabeled"},{"id":"T1","category":"unlabeled"},{"id":"T28","category":"unlabeled"},{"id":"T21","category":"Question"},{"id":"T20","category":"Question"},{"id":"T23","category":"unlabeled"},{"id":"T22","category":"Question"},{"id":"T25","category":"unlabeled"},{"id":"T24","category":"unlabeled"},{"id":"T27","category":"unlabeled"},{"id":"T26","category":"unlabeled"}]
p2047
asg29
Vresults
p2048
sbatp2049
Rp2050
(dp2051
g40
I01
sg41
Nsg42
Nsg43
(lp2052
(g45
g22
tp2053
asg47
Nsg48
Nsg49
I00
sg50
Nsg51
Nsg52
Nsg53
Nsg54
V\u000a
p2054
sg56
Nsbasg57
V2016-06-08T04:24:33Z
p2055
sg59
V36AZSFEYZ41NJ8MM544DWTAG3KSBV2
p2056
sg61
g62
sg63
VSubmitted
p2057
sg65
V2016-06-08T18:57:00Z
p2058
sbasV30Z7M1Q8UYLKPMLHRXT79462A47A82
p2059
(lp2060
g6
(g7
g8
Ntp2061
Rp2062
(dp2063
g12
V2016-07-08T03:41:00Z
p2064
sg14
V39ASUFLU6X8GHK1V5CCM9686GTGEXE
p2065
sg16
VA2RSOGTSR83XKO
p2066
sg18
(lp2067
g6
(g20
g1
(lp2068
g6
(g22
g8
Ntp2069
Rp2070
(dp2071
g26
(lp2072
VDaily_Science_Grade_3_(Daily_Practice_Books)_Evan_Moore_174.jpeg
p2073
asg29
Vimage_id
p2074
sbag6
(g22
g8
Ntp2075
Rp2076
(dp2077
g26
(lp2078
V[{"id":"T8","category":"unlabeled"},{"id":"T9","category":"Discussion"},{"id":"T6","category":"unlabeled"},{"id":"T7","category":"Discussion"},{"id":"T4","category":"unlabeled"},{"id":"T5","category":"Header/Topic"},{"id":"T2","category":"unlabeled"},{"id":"T3","category":"unlabeled"},{"id":"T1","category":"unlabeled"},{"id":"T14","category":"Question"},{"id":"T15","category":"Question"},{"id":"T16","category":"Question"},{"id":"T17","category":"unlabeled"},{"id":"T10","category":"Definition"},{"id":"T11","category":"Definition"},{"id":"T12","category":"Discussion"},{"id":"T13","category":"Question"},{"id":"T18","category":"unlabeled"},{"id":"T19","category":"unlabeled"}]
p2079
asg29
Vresults
p2080
sbatp2081
Rp2082
(dp2083
g40
I01
sg41
Nsg42
Nsg43
(lp2084
(g45
g22
tp2085
asg47
Nsg48
Nsg49
I00
sg50
Nsg51
Nsg52
Nsg53
Nsg54
V\u000a
p2086
sg56
Nsbasg57
V2016-06-08T03:40:16Z
p2087
sg59
V30Z7M1Q8UYLKPMLHRXT79462A47A82
p2088
sg61
g62
sg63
VSubmitted
p2089
sg65
V2016-06-08T03:41:00Z
p2090
sbag6
(g7
g8
Ntp2091
Rp2092
(dp2093
g12
V2016-07-08T09:29:53Z
p2094
sg14
V31QNSG6A5RU5T4LDAWMONXZW3X787I
p2095
sg16
VA3TXJLD6JNR280
p2096
sg18
(lp2097
g6
(g20
g1
(lp2098
g6
(g22
g8
Ntp2099
Rp2100
(dp2101
g26
(lp2102
VDaily_Science_Grade_3_(Daily_Practice_Books)_Evan_Moore_174.jpeg
p2103
asg29
Vimage_id
p2104
sbag6
(g22
g8
Ntp2105
Rp2106
(dp2107
g26
(lp2108
V[{"id":"T8","category":"unlabeled"},{"id":"T9","category":"Discussion"},{"id":"T6","category":"unlabeled"},{"id":"T7","category":"Discussion"},{"id":"T4","category":"unlabeled"},{"id":"T5","category":"Header/Topic"},{"id":"T2","category":"unlabeled"},{"id":"T3","category":"unlabeled"},{"id":"T1","category":"unlabeled"},{"id":"T14","category":"Question"},{"id":"T15","category":"Question"},{"id":"T16","category":"Question"},{"id":"T17","category":"unlabeled"},{"id":"T10","category":"unlabeled"},{"id":"T11","category":"Definition"},{"id":"T12","category":"Discussion"},{"id":"T13","category":"Question"},{"id":"T18","category":"unlabeled"},{"id":"T19","category":"unlabeled"}]
p2109
asg29
Vresults
p2110
sbatp2111
Rp2112
(dp2113
g40
I01
sg41
Nsg42
Nsg43
(lp2114
(g45
g22
tp2115
asg47
Nsg48
Nsg49
I00
sg50
Nsg51
Nsg52
Nsg53
Nsg54
V\u000a
p2116
sg56
Nsbasg57
V2016-06-08T04:53:10Z
p2117
sg59
V30Z7M1Q8UYLKPMLHRXT79462A47A82
p2118
sg61
g62
sg63
VSubmitted
p2119
sg65
V2016-06-08T09:29:53Z
p2120
sbag6
(g7
g8
Ntp2121
Rp2122
(dp2123
g12
V2016-07-08T20:49:37Z
p2124
sg14
V3JNQLM5FT4NTMA8QY9EXWB4UDIZL2J
p2125
sg16
VA3KIE6ZNXVEIAY
p2126
sg18
(lp2127
g6
(g20
g1
(lp2128
g6
(g22
g8
Ntp2129
Rp2130
(dp2131
g26
(lp2132
VDaily_Science_Grade_3_(Daily_Practice_Books)_Evan_Moore_174.jpeg
p2133
asg29
Vimage_id
p2134
sbag6
(g22
g8
Ntp2135
Rp2136
(dp2137
g26
(lp2138
V[{"id":"T8","category":"unlabeled"},{"id":"T9","category":"Discussion"},{"id":"T6","category":"unlabeled"},{"id":"T7","category":"Discussion"},{"id":"T4","category":"unlabeled"},{"id":"T5","category":"Header/Topic"},{"id":"T2","category":"unlabeled"},{"id":"T3","category":"unlabeled"},{"id":"T1","category":"unlabeled"},{"id":"T14","category":"Question"},{"id":"T15","category":"Question"},{"id":"T16","category":"Question"},{"id":"T17","category":"unlabeled"},{"id":"T10","category":"unlabeled"},{"id":"T11","category":"Definition"},{"id":"T12","category":"Discussion"},{"id":"T13","category":"Question"},{"id":"T18","category":"unlabeled"},{"id":"T19","category":"unlabeled"}]
p2139
asg29
Vresults
p2140
sbatp2141
Rp2142
(dp2143
g40
I01
sg41
Nsg42
Nsg43
(lp2144
(g45
g22
tp2145
asg47
Nsg48
Nsg49
I00
sg50
Nsg51
Nsg52
Nsg53
Nsg54
V\u000a
p2146
sg56
Nsbasg57
V2016-06-08T20:48:42Z
p2147
sg59
V30Z7M1Q8UYLKPMLHRXT79462A47A82
p2148
sg61
g62
sg63
VSubmitted
p2149
sg65
V2016-06-08T20:49:37Z
p2150
sbasV3D17ECOUOEW2U12BJX5I7M5OQO931F
p2151
(lp2152
g6
(g7
g8
Ntp2153
Rp2154
(dp2155
g12
V2016-07-08T03:01:22Z
p2156
sg14
V3YW4XOSQKQMPGFDOOJ6KIFQ8X2S1UN
p2157
sg16
VA333VJ2K6O6R79
p2158
sg18
(lp2159
g6
(g20
g1
(lp2160
g6
(g22
g8
Ntp2161
Rp2162
(dp2163
g26
(lp2164
VDaily_Science_Grade_4_Evan_Moor_126.jpeg
p2165
asg29
Vimage_id
p2166
sbag6
(g22
g8
Ntp2167
Rp2168
(dp2169
g26
(lp2170
V[{"id":"T14","category":"unlabeled"},{"id":"T15","category":"unlabeled"},{"id":"T16","category":"unlabeled"},{"id":"T17","category":"Question"},{"id":"T10","category":"unlabeled"},{"id":"T11","category":"unlabeled"},{"id":"T12","category":"unlabeled"},{"id":"T13","category":"unlabeled"},{"id":"T18","category":"Question"},{"id":"T19","category":"Question"},{"id":"T8","category":"unlabeled"},{"id":"T9","category":"unlabeled"},{"id":"T6","category":"unlabeled"},{"id":"T7","category":"Discussion"},{"id":"T4","category":"unlabeled"},{"id":"T5","category":"Header/Topic"},{"id":"T2","category":"unlabeled"},{"id":"T3","category":"unlabeled"},{"id":"T1","category":"unlabeled"},{"id":"T21","category":"unlabeled"},{"id":"T20","category":"unlabeled"},{"id":"T23","category":"unlabeled"},{"id":"T22","category":"unlabeled"}]
p2171
asg29
Vresults
p2172
sbatp2173
Rp2174
(dp2175
g40
I01
sg41
Nsg42
Nsg43
(lp2176
(g45
g22
tp2177
asg47
Nsg48
Nsg49
I00
sg50
Nsg51
Nsg52
Nsg53
Nsg54
V\u000a
p2178
sg56
Nsbasg57
V2016-06-08T03:00:27Z
p2179
sg59
V3D17ECOUOEW2U12BJX5I7M5OQO931F
p2180
sg61
g62
sg63
VSubmitted
p2181
sg65
V2016-06-08T03:01:22Z
p2182
sbag6
(g7
g8
Ntp2183
Rp2184
(dp2185
g12
V2016-07-08T04:50:57Z
p2186
sg14
V3STRJBFXOWSCM3KLWOMSIY05NUSKTP
p2187
sg16
VAK0FB4XV3SBMB
p2188
sg18
(lp2189
g6
(g20
g1
(lp2190
g6
(g22
g8
Ntp2191
Rp2192
(dp2193
g26
(lp2194
VDaily_Science_Grade_4_Evan_Moor_126.jpeg
p2195
asg29
Vimage_id
p2196
sbag6
(g22
g8
Ntp2197
Rp2198
(dp2199
g26
(lp2200
V[{"id":"T14","category":"Question"},{"id":"T15","category":"Question"},{"id":"T16","category":"unlabeled"},{"id":"T17","category":"Question"},{"id":"T10","category":"Question"},{"id":"T11","category":"Question"},{"id":"T12","category":"Question"},{"id":"T13","category":"Question"},{"id":"T18","category":"Question"},{"id":"T19","category":"Question"},{"id":"T8","category":"unlabeled"},{"id":"T9","category":"Question"},{"id":"T6","category":"unlabeled"},{"id":"T7","category":"Question"},{"id":"T4","category":"unlabeled"},{"id":"T5","category":"Header/Topic"},{"id":"T2","category":"unlabeled"},{"id":"T3","category":"unlabeled"},{"id":"T1","category":"unlabeled"},{"id":"T21","category":"unlabeled"},{"id":"T20","category":"unlabeled"},{"id":"T23","category":"unlabeled"},{"id":"T22","category":"unlabeled"}]
p2201
asg29
Vresults
p2202
sbatp2203
Rp2204
(dp2205
g40
I01
sg41
Nsg42
Nsg43
(lp2206
(g45
g22
tp2207
asg47
Nsg48
Nsg49
I00
sg50
Nsg51
Nsg52
Nsg53
Nsg54
V\u000a
p2208
sg56
Nsbasg57
V2016-06-08T04:50:10Z
p2209
sg59
V3D17ECOUOEW2U12BJX5I7M5OQO931F
p2210
sg61
g62
sg63
VSubmitted
p2211
sg65
V2016-06-08T04:50:57Z
p2212
sbag6
(g7
g8
Ntp2213
Rp2214
(dp2215
g12
V2016-07-08T18:55:59Z
p2216
sg14
V3GU1KF0O4I2D18NK9U0FELGIBXXBPQ
p2217
sg16
VAPLQSM4J9E6LR
p2218
sg18
(lp2219
g6
(g20
g1
(lp2220
g6
(g22
g8
Ntp2221
Rp2222
(dp2223
g26
(lp2224
VDaily_Science_Grade_4_Evan_Moor_126.jpeg
p2225
asg29
Vimage_id
p2226
sbag6
(g22
g8
Ntp2227
Rp2228
(dp2229
g26
(lp2230
V[{"id":"T14","category":"Discussion"},{"id":"T15","category":"unlabeled"},{"id":"T16","category":"Question"},{"id":"T17","category":"Question"},{"id":"T10","category":"Discussion"},{"id":"T11","category":"Discussion"},{"id":"T12","category":"Discussion"},{"id":"T13","category":"Discussion"},{"id":"T18","category":"Question"},{"id":"T19","category":"Question"},{"id":"T8","category":"unlabeled"},{"id":"T9","category":"Discussion"},{"id":"T6","category":"unlabeled"},{"id":"T7","category":"Discussion"},{"id":"T4","category":"unlabeled"},{"id":"T5","category":"Header/Topic"},{"id":"T2","category":"unlabeled"},{"id":"T3","category":"unlabeled"},{"id":"T1","category":"unlabeled"},{"id":"T21","category":"unlabeled"},{"id":"T20","category":"unlabeled"},{"id":"T23","category":"unlabeled"},{"id":"T22","category":"unlabeled"}]
p2231
asg29
Vresults
p2232
sbatp2233
Rp2234
(dp2235
g40
I01
sg41
Nsg42
Nsg43
(lp2236
(g45
g22
tp2237
asg47
Nsg48
Nsg49
I00
sg50
Nsg51
Nsg52
Nsg53
Nsg54
V\u000a
p2238
sg56
Nsbasg57
V2016-06-08T04:22:44Z
p2239
sg59
V3D17ECOUOEW2U12BJX5I7M5OQO931F
p2240
sg61
g62
sg63
VSubmitted
p2241
sg65
V2016-06-08T18:55:59Z
p2242
sbasV3PCPFX4U40RLRH2LO7WZ9W2T1Q6FQV
p2243
(lp2244
g6
(g7
g8
Ntp2245
Rp2246
(dp2247
g12
V2016-07-08T03:41:36Z
p2248
sg14
V3SNVL38CI4TV0MIAA2R2TO01Z8OKC2
p2249
sg16
VA36PFUM96J0ES6
p2250
sg18
(lp2251
g6
(g20
g1
(lp2252
g6
(g22
g8
Ntp2253
Rp2254
(dp2255
g26
(lp2256
VDaily_Science_Grade_4_Evan_Moor_132.jpeg
p2257
asg29
Vimage_id
p2258
sbag6
(g22
g8
Ntp2259
Rp2260
(dp2261
g26
(lp2262
V[{"id":"T14","category":"Question"},{"id":"T15","category":"Question"},{"id":"T16","category":"Question"},{"id":"T17","category":"Question"},{"id":"T10","category":"Definition"},{"id":"T11","category":"Definition"},{"id":"T12","category":"Question"},{"id":"T13","category":"Question"},{"id":"T18","category":"unlabeled"},{"id":"T19","category":"unlabeled"},{"id":"T8","category":"unlabeled"},{"id":"T9","category":"unlabeled"},{"id":"T6","category":"unlabeled"},{"id":"T7","category":"Discussion"},{"id":"T4","category":"Header/Topic"},{"id":"T5","category":"unlabeled"},{"id":"T2","category":"unlabeled"},{"id":"T3","category":"unlabeled"},{"id":"T1","category":"unlabeled"},{"id":"T21","category":"unlabeled"},{"id":"T20","category":"unlabeled"},{"id":"T23","category":"unlabeled"},{"id":"T22","category":"unlabeled"}]
p2263
asg29
Vresults
p2264
sbatp2265
Rp2266
(dp2267
g40
I01
sg41
Nsg42
Nsg43
(lp2268
(g45
g22
tp2269
asg47
Nsg48
Nsg49
I00
sg50
Nsg51
Nsg52
Nsg53
Nsg54
V\u000a
p2270
sg56
Nsbasg57
V2016-06-08T03:41:21Z
p2271
sg59
V3PCPFX4U40RLRH2LO7WZ9W2T1Q6FQV
p2272
sg61
g62
sg63
VSubmitted
p2273
sg65
V2016-06-08T03:41:36Z
p2274
sbag6
(g7
g8
Ntp2275
Rp2276
(dp2277
g12
V2016-07-08T06:11:04Z
p2278
sg14
V3ON104KXQKXJ0IZC614NY1I8U2OW45
p2279
sg16
VA03922113RU44GENR8ATX
p2280
sg18
(lp2281
g6
(g20
g1
(lp2282
g6
(g22
g8
Ntp2283
Rp2284
(dp2285
g26
(lp2286
VDaily_Science_Grade_4_Evan_Moor_132.jpeg
p2287
asg29
Vimage_id
p2288
sbag6
(g22
g8
Ntp2289
Rp2290
(dp2291
g26
(lp2292
V[{"id":"T14","category":"Question"},{"id":"T15","category":"Question"},{"id":"T16","category":"Question"},{"id":"T17","category":"Question"},{"id":"T10","category":"Definition"},{"id":"T11","category":"Definition"},{"id":"T12","category":"Question"},{"id":"T13","category":"Question"},{"id":"T18","category":"Question"},{"id":"T19","category":"Question"},{"id":"T8","category":"unlabeled"},{"id":"T9","category":"unlabeled"},{"id":"T6","category":"unlabeled"},{"id":"T7","category":"Discussion"},{"id":"T4","category":"Header/Topic"},{"id":"T5","category":"unlabeled"},{"id":"T2","category":"unlabeled"},{"id":"T3","category":"unlabeled"},{"id":"T1","category":"unlabeled"},{"id":"T21","category":"unlabeled"},{"id":"T20","category":"unlabeled"},{"id":"T23","category":"unlabeled"},{"id":"T22","category":"unlabeled"}]
p2293
asg29
Vresults
p2294
sbatp2295
Rp2296
(dp2297
g40
I01
sg41
Nsg42
Nsg43
(lp2298
(g45
g22
tp2299
asg47
Nsg48
Nsg49
I00
sg50
Nsg51
Nsg52
Nsg53
Nsg54
V\u000a
p2300
sg56
Nsbasg57
V2016-06-08T05:54:56Z
p2301
sg59
V3PCPFX4U40RLRH2LO7WZ9W2T1Q6FQV
p2302
sg61
g62
sg63
VSubmitted
p2303
sg65
V2016-06-08T06:11:04Z
p2304
sbag6
(g7
g8
Ntp2305
Rp2306
(dp2307
g12
V2016-07-08T18:57:26Z
p2308
sg14
V3L4D84MILZTR6AN8E95R30X4XBWHJC
p2309
sg16
VAPLQSM4J9E6LR
p2310
sg18
(lp2311
g6
(g20
g1
(lp2312
g6
(g22
g8
Ntp2313
Rp2314
(dp2315
g26
(lp2316
VDaily_Science_Grade_4_Evan_Moor_132.jpeg
p2317
asg29
Vimage_id
p2318
sbag6
(g22
g8
Ntp2319
Rp2320
(dp2321
g26
(lp2322
V[{"id":"T14","category":"Question"},{"id":"T15","category":"Question"},{"id":"T16","category":"Question"},{"id":"T17","category":"Question"},{"id":"T10","category":"Definition"},{"id":"T11","category":"Definition"},{"id":"T12","category":"Question"},{"id":"T13","category":"Question"},{"id":"T18","category":"unlabeled"},{"id":"T19","category":"unlabeled"},{"id":"T8","category":"unlabeled"},{"id":"T9","category":"Definition"},{"id":"T6","category":"unlabeled"},{"id":"T7","category":"Discussion"},{"id":"T4","category":"Header/Topic"},{"id":"T5","category":"unlabeled"},{"id":"T2","category":"unlabeled"},{"id":"T3","category":"unlabeled"},{"id":"T1","category":"unlabeled"},{"id":"T21","category":"unlabeled"},{"id":"T20","category":"unlabeled"},{"id":"T23","category":"unlabeled"},{"id":"T22","category":"unlabeled"}]
p2323
asg29
Vresults
p2324
sbatp2325
Rp2326
(dp2327
g40
I01
sg41
Nsg42
Nsg43
(lp2328
(g45
g22
tp2329
asg47
Nsg48
Nsg49
I00
sg50
Nsg51
Nsg52
Nsg53
Nsg54
V\u000a
p2330
sg56
Nsbasg57
V2016-06-08T04:24:35Z
p2331
sg59
V3PCPFX4U40RLRH2LO7WZ9W2T1Q6FQV
p2332
sg61
g62
sg63
VSubmitted
p2333
sg65
V2016-06-08T18:57:26Z
p2334
sbasV3LXX8KJXPWA95VYS6843AVLIJRTO94
p2335
(lp2336
g6
(g7
g8
Ntp2337
Rp2338
(dp2339
g12
V2016-07-08T05:03:24Z
p2340
sg14
V3FPRZHYEPY8L3XG3GDU82U7O9TNV36
p2341
sg16
VA3GNQDFPZALU92
p2342
sg18
(lp2343
g6
(g20
g1
(lp2344
g6
(g22
g8
Ntp2345
Rp2346
(dp2347
g26
(lp2348
VDaily_Science_Grade_5_Evan_Moor_156.jpeg
p2349
asg29
Vimage_id
p2350
sbag6
(g22
g8
Ntp2351
Rp2352
(dp2353
g26
(lp2354
V[{"id":"T14","category":"Discussion"},{"id":"T15","category":"Discussion"},{"id":"T16","category":"Discussion"},{"id":"T17","category":"Question"},{"id":"T10","category":"Discussion"},{"id":"T11","category":"Discussion"},{"id":"T12","category":"Discussion"},{"id":"T13","category":"Discussion"},{"id":"T18","category":"Question"},{"id":"T19","category":"Question"},{"id":"T8","category":"unlabeled"},{"id":"T9","category":"Discussion"},{"id":"T6","category":"unlabeled"},{"id":"T7","category":"Discussion"},{"id":"T4","category":"Header/Topic"},{"id":"T5","category":"Header/Topic"},{"id":"T2","category":"unlabeled"},{"id":"T3","category":"unlabeled"},{"id":"T1","category":"unlabeled"},{"id":"T21","category":"Question"},{"id":"T20","category":"Question"},{"id":"T23","category":"unlabeled"},{"id":"T22","category":"unlabeled"},{"id":"T24","category":"unlabeled"}]
p2355
asg29
Vresults
p2356
sbatp2357
Rp2358
(dp2359
g40
I01
sg41
Nsg42
Nsg43
(lp2360
(g45
g22
tp2361
asg47
Nsg48
Nsg49
I00
sg50
Nsg51
Nsg52
Nsg53
Nsg54
V\u000a
p2362
sg56
Nsbasg57
V2016-06-08T05:02:55Z
p2363
sg59
V3LXX8KJXPWA95VYS6843AVLIJRTO94
p2364
sg61
g62
sg63
VSubmitted
p2365
sg65
V2016-06-08T05:03:24Z
p2366
sbag6
(g7
g8
Ntp2367
Rp2368
(dp2369
g12
V2016-07-08T05:34:16Z
p2370
sg14
V33LK57MYLT66WY6S7PKCV8SWPKUSZX
p2371
sg16
VA3I9WD8P9RBFHR
p2372
sg18
(lp2373
g6
(g20
g1
(lp2374
g6
(g22
g8
Ntp2375
Rp2376
(dp2377
g26
(lp2378
VDaily_Science_Grade_5_Evan_Moor_156.jpeg
p2379
asg29
Vimage_id
p2380
sbag6
(g22
g8
Ntp2381
Rp2382
(dp2383
g26
(lp2384
V[{"id":"T14","category":"Discussion"},{"id":"T15","category":"Discussion"},{"id":"T16","category":"Discussion"},{"id":"T17","category":"Question"},{"id":"T10","category":"Discussion"},{"id":"T11","category":"Discussion"},{"id":"T12","category":"Discussion"},{"id":"T13","category":"Discussion"},{"id":"T18","category":"Question"},{"id":"T19","category":"Question"},{"id":"T8","category":"unlabeled"},{"id":"T9","category":"unlabeled"},{"id":"T6","category":"unlabeled"},{"id":"T7","category":"Discussion"},{"id":"T4","category":"unlabeled"},{"id":"T5","category":"Header/Topic"},{"id":"T2","category":"unlabeled"},{"id":"T3","category":"unlabeled"},{"id":"T1","category":"unlabeled"},{"id":"T21","category":"Question"},{"id":"T20","category":"Question"},{"id":"T23","category":"unlabeled"},{"id":"T22","category":"unlabeled"},{"id":"T24","category":"unlabeled"}]
p2385
asg29
Vresults
p2386
sbatp2387
Rp2388
(dp2389
g40
I01
sg41
Nsg42
Nsg43
(lp2390
(g45
g22
tp2391
asg47
Nsg48
Nsg49
I00
sg50
Nsg51
Nsg52
Nsg53
Nsg54
V\u000a
p2392
sg56
Nsbasg57
V2016-06-08T05:33:43Z
p2393
sg59
V3LXX8KJXPWA95VYS6843AVLIJRTO94
p2394
sg61
g62
sg63
VSubmitted
p2395
sg65
V2016-06-08T05:34:16Z
p2396
sbag6
(g7
g8
Ntp2397
Rp2398
(dp2399
g12
V2016-07-08T19:06:54Z
p2400
sg14
V31LM9EDVOLTJG69JH7048KU0JN8NJU
p2401
sg16
VA3TXJLD6JNR280
p2402
sg18
(lp2403
g6
(g20
g1
(lp2404
g6
(g22
g8
Ntp2405
Rp2406
(dp2407
g26
(lp2408
VDaily_Science_Grade_5_Evan_Moor_156.jpeg
p2409
asg29
Vimage_id
p2410
sbag6
(g22
g8
Ntp2411
Rp2412
(dp2413
g26
(lp2414
V[{"id":"T14","category":"unlabeled"},{"id":"T15","category":"unlabeled"},{"id":"T16","category":"Discussion"},{"id":"T17","category":"unlabeled"},{"id":"T10","category":"Question"},{"id":"T11","category":"Discussion"},{"id":"T12","category":"Question"},{"id":"T13","category":"Question"},{"id":"T18","category":"Question"},{"id":"T19","category":"Question"},{"id":"T8","category":"unlabeled"},{"id":"T9","category":"Discussion"},{"id":"T6","category":"unlabeled"},{"id":"T7","category":"Discussion"},{"id":"T4","category":"unlabeled"},{"id":"T5","category":"Header/Topic"},{"id":"T2","category":"unlabeled"},{"id":"T3","category":"unlabeled"},{"id":"T1","category":"unlabeled"},{"id":"T21","category":"Question"},{"id":"T20","category":"Question"},{"id":"T23","category":"unlabeled"},{"id":"T22","category":"unlabeled"},{"id":"T24","category":"unlabeled"}]
p2415
asg29
Vresults
p2416
sbatp2417
Rp2418
(dp2419
g40
I01
sg41
Nsg42
Nsg43
(lp2420
(g45
g22
tp2421
asg47
Nsg48
Nsg49
I00
sg50
Nsg51
Nsg52
Nsg53
Nsg54
V\u000a
p2422
sg56
Nsbasg57
V2016-06-08T05:19:42Z
p2423
sg59
V3LXX8KJXPWA95VYS6843AVLIJRTO94
p2424
sg61
g62
sg63
VSubmitted
p2425
sg65
V2016-06-08T19:06:54Z
p2426
sbasV3OID399FXG8R28YGJLQF9XVUIBHDFO
p2427
(lp2428
g6
(g7
g8
Ntp2429
Rp2430
(dp2431
g12
V2016-07-08T04:08:08Z
p2432
sg14
V3WYP994K17S14AYQ4QFQGWN211O6YT
p2433
sg16
VA36PFUM96J0ES6
p2434
sg18
(lp2435
g6
(g20
g1
(lp2436
g6
(g22
g8
Ntp2437
Rp2438
(dp2439
g26
(lp2440
VDaily_Science_Grade_5_Evan_Moor_30.jpeg
p2441
asg29
Vimage_id
p2442
sbag6
(g22
g8
Ntp2443
Rp2444
(dp2445
g26
(lp2446
V[{"id":"T14","category":"Question"},{"id":"T15","category":"Question"},{"id":"T16","category":"Question"},{"id":"T17","category":"Question"},{"id":"T10","category":"Definition"},{"id":"T11","category":"Figure Label"},{"id":"T12","category":"Figure Label"},{"id":"T13","category":"Question"},{"id":"T18","category":"Question"},{"id":"T19","category":"Question"},{"id":"T8","category":"Definition"},{"id":"T9","category":"unlabeled"},{"id":"T6","category":"Discussion"},{"id":"T7","category":"unlabeled"},{"id":"T4","category":"Header/Topic"},{"id":"T5","category":"unlabeled"},{"id":"T2","category":"unlabeled"},{"id":"T3","category":"unlabeled"},{"id":"T1","category":"unlabeled"},{"id":"T21","category":"Question"},{"id":"T20","category":"Question"},{"id":"T23","category":"unlabeled"},{"id":"T22","category":"Question"},{"id":"T25","category":"unlabeled"},{"id":"T24","category":"unlabeled"},{"id":"T26","category":"unlabeled"}]
p2447
asg29
Vresults
p2448
sbatp2449
Rp2450
(dp2451
g40
I01
sg41
Nsg42
Nsg43
(lp2452
(g45
g22
tp2453
asg47
Nsg48
Nsg49
I00
sg50
Nsg51
Nsg52
Nsg53
Nsg54
V\u000a
p2454
sg56
Nsbasg57
V2016-06-08T04:07:42Z
p2455
sg59
V3OID399FXG8R28YGJLQF9XVUIBHDFO
p2456
sg61
g62
sg63
VSubmitted
p2457
sg65
V2016-06-08T04:08:08Z
p2458
sbag6
(g7
g8
Ntp2459
Rp2460
(dp2461
g12
V2016-07-08T05:01:28Z
p2462
sg14
V3AAPLD8UCCILKDJDQ3JV56KDVDPHTJ
p2463
sg16
VA2D3TM156X7Y61
p2464
sg18
(lp2465
g6
(g20
g1
(lp2466
g6
(g22
g8
Ntp2467
Rp2468
(dp2469
g26
(lp2470
VDaily_Science_Grade_5_Evan_Moor_30.jpeg
p2471
asg29
Vimage_id
p2472
sbag6
(g22
g8
Ntp2473
Rp2474
(dp2475
g26
(lp2476
V[{"id":"T14","category":"Question"},{"id":"T15","category":"Question"},{"id":"T16","category":"Question"},{"id":"T17","category":"Question"},{"id":"T10","category":"Definition"},{"id":"T11","category":"Figure Label"},{"id":"T12","category":"Figure Label"},{"id":"T13","category":"Question"},{"id":"T18","category":"Question"},{"id":"T19","category":"Question"},{"id":"T8","category":"Definition"},{"id":"T9","category":"unlabeled"},{"id":"T6","category":"Discussion"},{"id":"T7","category":"unlabeled"},{"id":"T4","category":"Header/Topic"},{"id":"T5","category":"unlabeled"},{"id":"T2","category":"unlabeled"},{"id":"T3","category":"unlabeled"},{"id":"T1","category":"unlabeled"},{"id":"T21","category":"Question"},{"id":"T20","category":"Question"},{"id":"T23","category":"unlabeled"},{"id":"T22","category":"Question"},{"id":"T25","category":"unlabeled"},{"id":"T24","category":"unlabeled"},{"id":"T26","category":"unlabeled"}]
p2477
asg29
Vresults
p2478
sbatp2479
Rp2480
(dp2481
g40
I01
sg41
Nsg42
Nsg43
(lp2482
(g45
g22
tp2483
asg47
Nsg48
Nsg49
I00
sg50
Nsg51
Nsg52
Nsg53
Nsg54
V\u000a
p2484
sg56
Nsbasg57
V2016-06-08T05:00:27Z
p2485
sg59
V3OID399FXG8R28YGJLQF9XVUIBHDFO
p2486
sg61
g62
sg63
VSubmitted
p2487
sg65
V2016-06-08T05:01:28Z
p2488
sbag6
(g7
g8
Ntp2489
Rp2490
(dp2491
g12
V2016-07-08T20:50:00Z
p2492
sg14
V3JJVG1YBEBY98Y51PFR1GFB1LYC5BH
p2493
sg16
VA3KIE6ZNXVEIAY
p2494
sg18
(lp2495
g6
(g20
g1
(lp2496
g6
(g22
g8
Ntp2497
Rp2498
(dp2499
g26
(lp2500
VDaily_Science_Grade_5_Evan_Moor_30.jpeg
p2501
asg29
Vimage_id
p2502
sbag6
(g22
g8
Ntp2503
Rp2504
(dp2505
g26
(lp2506
V[{"id":"T14","category":"Question"},{"id":"T15","category":"Question"},{"id":"T16","category":"Question"},{"id":"T17","category":"Question"},{"id":"T10","category":"Definition"},{"id":"T11","category":"Figure Label"},{"id":"T12","category":"Figure Label"},{"id":"T13","category":"Question"},{"id":"T18","category":"Question"},{"id":"T19","category":"Question"},{"id":"T8","category":"Definition"},{"id":"T9","category":"unlabeled"},{"id":"T6","category":"Discussion"},{"id":"T7","category":"unlabeled"},{"id":"T4","category":"Header/Topic"},{"id":"T5","category":"unlabeled"},{"id":"T2","category":"unlabeled"},{"id":"T3","category":"unlabeled"},{"id":"T1","category":"unlabeled"},{"id":"T21","category":"Question"},{"id":"T20","category":"Question"},{"id":"T23","category":"unlabeled"},{"id":"T22","category":"Question"},{"id":"T25","category":"unlabeled"},{"id":"T24","category":"unlabeled"},{"id":"T26","category":"unlabeled"}]
p2507
asg29
Vresults
p2508
sbatp2509
Rp2510
(dp2511
g40
I01
sg41
Nsg42
Nsg43
(lp2512
(g45
g22
tp2513
asg47
Nsg48
Nsg49
I00
sg50
Nsg51
Nsg52
Nsg53
Nsg54
V\u000a
p2514
sg56
Nsbasg57
V2016-06-08T20:49:03Z
p2515
sg59
V3OID399FXG8R28YGJLQF9XVUIBHDFO
p2516
sg61
g62
sg63
VSubmitted
p2517
sg65
V2016-06-08T20:50:00Z
p2518
sbasV3Y3CZJSZ9KUT1LOWVA8QSALL8IUR5P
p2519
(lp2520
g6
(g7
g8
Ntp2521
Rp2522
(dp2523
g12
V2016-07-08T04:25:45Z
p2524
sg14
V33OOO72IVHMU358X4B5UUFNXILHTCJ
p2525
sg16
VA2RSOGTSR83XKO
p2526
sg18
(lp2527
g6
(g20
g1
(lp2528
g6
(g22
g8
Ntp2529
Rp2530
(dp2531
g26
(lp2532
VDaily_Science_Grade_5_Evan_Moor_172.jpeg
p2533
asg29
Vimage_id
p2534
sbag6
(g22
g8
Ntp2535
Rp2536
(dp2537
g26
(lp2538
V[{"id":"T14","category":"Figure Label"},{"id":"T15","category":"Figure Label"},{"id":"T16","category":"Figure Label"},{"id":"T17","category":"Figure Label"},{"id":"T10","category":"unlabeled"},{"id":"T11","category":"Definition"},{"id":"T12","category":"unlabeled"},{"id":"T13","category":"Figure Label"},{"id":"T18","category":"Question"},{"id":"T19","category":"Question"},{"id":"T8","category":"Discussion"},{"id":"T9","category":"unlabeled"},{"id":"T6","category":"unlabeled"},{"id":"T7","category":"Header/Topic"},{"id":"T4","category":"unlabeled"},{"id":"T5","category":"unlabeled"},{"id":"T2","category":"unlabeled"},{"id":"T3","category":"unlabeled"},{"id":"T1","category":"unlabeled"},{"id":"T28","category":"unlabeled"},{"id":"T21","category":"Question"},{"id":"T20","category":"Question"},{"id":"T23","category":"Question"},{"id":"T22","category":"Question"},{"id":"T25","category":"Question"},{"id":"T24","category":"Question"},{"id":"T27","category":"unlabeled"},{"id":"T26","category":"unlabeled"}]
p2539
asg29
Vresults
p2540
sbatp2541
Rp2542
(dp2543
g40
I01
sg41
Nsg42
Nsg43
(lp2544
(g45
g22
tp2545
asg47
Nsg48
Nsg49
I00
sg50
Nsg51
Nsg52
Nsg53
Nsg54
V\u000a
p2546
sg56
Nsbasg57
V2016-06-08T04:25:12Z
p2547
sg59
V3Y3CZJSZ9KUT1LOWVA8QSALL8IUR5P
p2548
sg61
g62
sg63
VSubmitted
p2549
sg65
V2016-06-08T04:25:45Z
p2550
sbag6
(g7
g8
Ntp2551
Rp2552
(dp2553
g12
V2016-07-08T05:48:43Z
p2554
sg14
V3QY7M81QH7NPO5NEJLJRD28NYX4K7G
p2555
sg16
VA03922113RU44GENR8ATX
p2556
sg18
(lp2557
g6
(g20
g1
(lp2558
g6
(g22
g8
Ntp2559
Rp2560
(dp2561
g26
(lp2562
VDaily_Science_Grade_5_Evan_Moor_172.jpeg
p2563
asg29
Vimage_id
p2564
sbag6
(g22
g8
Ntp2565
Rp2566
(dp2567
g26
(lp2568
V[{"id":"T14","category":"Figure Label"},{"id":"T15","category":"Figure Label"},{"id":"T16","category":"Figure Label"},{"id":"T17","category":"Figure Label"},{"id":"T10","category":"unlabeled"},{"id":"T11","category":"Definition"},{"id":"T12","category":"unlabeled"},{"id":"T13","category":"Figure Label"},{"id":"T18","category":"Question"},{"id":"T19","category":"Question"},{"id":"T8","category":"Discussion"},{"id":"T9","category":"unlabeled"},{"id":"T6","category":"unlabeled"},{"id":"T7","category":"Header/Topic"},{"id":"T4","category":"unlabeled"},{"id":"T5","category":"unlabeled"},{"id":"T2","category":"unlabeled"},{"id":"T3","category":"unlabeled"},{"id":"T1","category":"unlabeled"},{"id":"T28","category":"unlabeled"},{"id":"T21","category":"Question"},{"id":"T20","category":"Question"},{"id":"T23","category":"Question"},{"id":"T22","category":"Question"},{"id":"T25","category":"Question"},{"id":"T24","category":"Question"},{"id":"T27","category":"unlabeled"},{"id":"T26","category":"unlabeled"}]
p2569
asg29
Vresults
p2570
sbatp2571
Rp2572
(dp2573
g40
I01
sg41
Nsg42
Nsg43
(lp2574
(g45
g22
tp2575
asg47
Nsg48
Nsg49
I00
sg50
Nsg51
Nsg52
Nsg53
Nsg54
V\u000a
p2576
sg56
Nsbasg57
V2016-06-08T05:30:04Z
p2577
sg59
V3Y3CZJSZ9KUT1LOWVA8QSALL8IUR5P
p2578
sg61
g62
sg63
VSubmitted
p2579
sg65
V2016-06-08T05:48:43Z
p2580
sbag6
(g7
g8
Ntp2581
Rp2582
(dp2583
g12
V2016-07-08T19:12:06Z
p2584
sg14
V3CFVK00FWLMH4BRRLBQ0MOL6SMPL6L
p2585
sg16
VA3TXJLD6JNR280
p2586
sg18
(lp2587
g6
(g20
g1
(lp2588
g6
(g22
g8
Ntp2589
Rp2590
(dp2591
g26
(lp2592
VDaily_Science_Grade_5_Evan_Moor_172.jpeg
p2593
asg29
Vimage_id
p2594
sbag6
(g22
g8
Ntp2595
Rp2596
(dp2597
g26
(lp2598
V[{"id":"T14","category":"Figure Label"},{"id":"T15","category":"Figure Label"},{"id":"T16","category":"Figure Label"},{"id":"T17","category":"Figure Label"},{"id":"T10","category":"Definition"},{"id":"T11","category":"Definition"},{"id":"T12","category":"unlabeled"},{"id":"T13","category":"Figure Label"},{"id":"T18","category":"Question"},{"id":"T19","category":"Question"},{"id":"T8","category":"Discussion"},{"id":"T9","category":"unlabeled"},{"id":"T6","category":"unlabeled"},{"id":"T7","category":"Header/Topic"},{"id":"T4","category":"unlabeled"},{"id":"T5","category":"unlabeled"},{"id":"T2","category":"unlabeled"},{"id":"T3","category":"unlabeled"},{"id":"T1","category":"unlabeled"},{"id":"T28","category":"unlabeled"},{"id":"T21","category":"Question"},{"id":"T20","category":"Question"},{"id":"T23","category":"unlabeled"},{"id":"T22","category":"Question"},{"id":"T25","category":"unlabeled"},{"id":"T24","category":"unlabeled"},{"id":"T27","category":"unlabeled"},{"id":"T26","category":"unlabeled"}]
p2599
asg29
Vresults
p2600
sbatp2601
Rp2602
(dp2603
g40
I01
sg41
Nsg42
Nsg43
(lp2604
(g45
g22
tp2605
asg47
Nsg48
Nsg49
I00
sg50
Nsg51
Nsg52
Nsg53
Nsg54
V\u000a
p2606
sg56
Nsbasg57
V2016-06-08T05:37:51Z
p2607
sg59
V3Y3CZJSZ9KUT1LOWVA8QSALL8IUR5P
p2608
sg61
g62
sg63
VSubmitted
p2609
sg65
V2016-06-08T19:12:06Z
p2610
sbasV3UUSLRKAUL4ENFJA12S3L5IDKNYD7K
p2611
(lp2612
g6
(g7
g8
Ntp2613
Rp2614
(dp2615
g12
V2016-07-08T03:39:13Z
p2616
sg14
V3EO896NRAWWHBJE3E3MGHJ0S85OJTL
p2617
sg16
VARMGNUJBUW582
p2618
sg18
(lp2619
g6
(g20
g1
(lp2620
g6
(g22
g8
Ntp2621
Rp2622
(dp2623
g26
(lp2624
VDaily_Science_Grade_3_(Daily_Practice_Books)_Evan_Moore_182.jpeg
p2625
asg29
Vimage_id
p2626
sbag6
(g22
g8
Ntp2627
Rp2628
(dp2629
g26
(lp2630
V[{"id":"T14","category":"Question"},{"id":"T15","category":"Question"},{"id":"T16","category":"Question"},{"id":"T17","category":"Question"},{"id":"T10","category":"Question"},{"id":"T11","category":"Question"},{"id":"T12","category":"Question"},{"id":"T13","category":"Question"},{"id":"T18","category":"Question"},{"id":"T19","category":"Question"},{"id":"T8","category":"Answer"},{"id":"T9","category":"Question"},{"id":"T6","category":"Question"},{"id":"T7","category":"unlabeled"},{"id":"T4","category":"Header/Topic"},{"id":"T5","category":"unlabeled"},{"id":"T2","category":"unlabeled"},{"id":"T3","category":"unlabeled"},{"id":"T1","category":"unlabeled"},{"id":"T21","category":"unlabeled"},{"id":"T20","category":"Question"},{"id":"T22","category":"unlabeled"}]
p2631
asg29
Vresults
p2632
sbatp2633
Rp2634
(dp2635
g40
I01
sg41
Nsg42
Nsg43
(lp2636
(g45
g22
tp2637
asg47
Nsg48
Nsg49
I00
sg50
Nsg51
Nsg52
Nsg53
Nsg54
V\u000a
p2638
sg56
Nsbasg57
V2016-06-08T03:38:10Z
p2639
sg59
V3UUSLRKAUL4ENFJA12S3L5IDKNYD7K
p2640
sg61
g62
sg63
VSubmitted
p2641
sg65
V2016-06-08T03:39:13Z
p2642
sbag6
(g7
g8
Ntp2643
Rp2644
(dp2645
g12
V2016-07-08T04:05:57Z
p2646
sg14
V3E47SOBEYQX4URSMAZ6QG8LO740ICQ
p2647
sg16
VAGBA9QNP2BKR1
p2648
sg18
(lp2649
g6
(g20
g1
(lp2650
g6
(g22
g8
Ntp2651
Rp2652
(dp2653
g26
(lp2654
VDaily_Science_Grade_3_(Daily_Practice_Books)_Evan_Moore_182.jpeg
p2655
asg29
Vimage_id
p2656
sbag6
(g22
g8
Ntp2657
Rp2658
(dp2659
g26
(lp2660
V[{"id":"T14","category":"Question"},{"id":"T15","category":"Question"},{"id":"T16","category":"Question"},{"id":"T17","category":"Question"},{"id":"T10","category":"Question"},{"id":"T11","category":"Question"},{"id":"T12","category":"Question"},{"id":"T13","category":"Question"},{"id":"T18","category":"Question"},{"id":"T19","category":"Question"},{"id":"T8","category":"Question"},{"id":"T9","category":"Question"},{"id":"T6","category":"Question"},{"id":"T7","category":"unlabeled"},{"id":"T4","category":"Header/Topic"},{"id":"T5","category":"unlabeled"},{"id":"T2","category":"unlabeled"},{"id":"T3","category":"unlabeled"},{"id":"T1","category":"unlabeled"},{"id":"T21","category":"unlabeled"},{"id":"T20","category":"Question"},{"id":"T22","category":"unlabeled"}]
p2661
asg29
Vresults
p2662
sbatp2663
Rp2664
(dp2665
g40
I01
sg41
Nsg42
Nsg43
(lp2666
(g45
g22
tp2667
asg47
Nsg48
Nsg49
I00
sg50
Nsg51
Nsg52
Nsg53
Nsg54
V\u000a
p2668
sg56
Nsbasg57
V2016-06-08T04:05:18Z
p2669
sg59
V3UUSLRKAUL4ENFJA12S3L5IDKNYD7K
p2670
sg61
g62
sg63
VSubmitted
p2671
sg65
V2016-06-08T04:05:57Z
p2672
sbag6
(g7
g8
Ntp2673
Rp2674
(dp2675
g12
V2016-07-08T20:49:21Z
p2676
sg14
V3JC6VJ2SABK4PO09J1R5L4RV3GR5AM
p2677
sg16
VA3KIE6ZNXVEIAY
p2678
sg18
(lp2679
g6
(g20
g1
(lp2680
g6
(g22
g8
Ntp2681
Rp2682
(dp2683
g26
(lp2684
VDaily_Science_Grade_3_(Daily_Practice_Books)_Evan_Moore_182.jpeg
p2685
asg29
Vimage_id
p2686
sbag6
(g22
g8
Ntp2687
Rp2688
(dp2689
g26
(lp2690
V[{"id":"T14","category":"Question"},{"id":"T15","category":"Question"},{"id":"T16","category":"Question"},{"id":"T17","category":"Question"},{"id":"T10","category":"Question"},{"id":"T11","category":"Question"},{"id":"T12","category":"Question"},{"id":"T13","category":"Question"},{"id":"T18","category":"Question"},{"id":"T19","category":"Question"},{"id":"T8","category":"Question"},{"id":"T9","category":"Question"},{"id":"T6","category":"Question"},{"id":"T7","category":"unlabeled"},{"id":"T4","category":"Header/Topic"},{"id":"T5","category":"unlabeled"},{"id":"T2","category":"unlabeled"},{"id":"T3","category":"unlabeled"},{"id":"T1","category":"unlabeled"},{"id":"T21","category":"unlabeled"},{"id":"T20","category":"Question"},{"id":"T22","category":"unlabeled"}]
p2691
asg29
Vresults
p2692
sbatp2693
Rp2694
(dp2695
g40
I01
sg41
Nsg42
Nsg43
(lp2696
(g45
g22
tp2697
asg47
Nsg48
Nsg49
I00
sg50
Nsg51
Nsg52
Nsg53
Nsg54
V\u000a
p2698
sg56
Nsbasg57
V2016-06-08T20:48:53Z
p2699
sg59
V3UUSLRKAUL4ENFJA12S3L5IDKNYD7K
p2700
sg61
g62
sg63
VSubmitted
p2701
sg65
V2016-06-08T20:49:21Z
p2702
sbas.