(lp0
ccopy_reg
_reconstructor
p1
(cboto.mturk.connection
HIT
p2
c__builtin__
object
p3
Ntp4
Rp5
(dp6
S'HIT'
p7
S''
p8
sS'HITId'
p9
V3BS6ERDL938VJF55ISNBFRIHPCED6L
p10
sbag1
(g2
g3
Ntp11
Rp12
(dp13
g7
g8
sg9
V30Z7M1Q8UYLKPMLHRXT79462A47A82
p14
sbag1
(g2
g3
Ntp15
Rp16
(dp17
g7
g8
sg9
V3UUSLRKAUL4ENFJA12S3L5IDKNYD7K
p18
sbag1
(g2
g3
Ntp19
Rp20
(dp21
g7
g8
sg9
V36AZSFEYZ41NJ8MM544DWTAG3KSBV2
p22
sbag1
(g2
g3
Ntp23
Rp24
(dp25
g7
g8
sg9
V3TLFH2L6Y9PEI3I1HGBNUIJRCT02TC
p26
sbag1
(g2
g3
Ntp27
Rp28
(dp29
g7
g8
sg9
V3PGQRAZX02L34OYTL1DSTHOAPPHSYU
p30
sbag1
(g2
g3
Ntp31
Rp32
(dp33
g7
g8
sg9
V3EFNPKWBMSP2NCHTNE1ITHMELW3039
p34
sbag1
(g2
g3
Ntp35
Rp36
(dp37
g7
g8
sg9
V37MQ8Z1JQEXAZPHVRMYM2ZB6RVI2Y1
p38
sbag1
(g2
g3
Ntp39
Rp40
(dp41
g7
g8
sg9
V3ZG552ORAM5TVVMQMBB2V07C9EFV2K
p42
sbag1
(g2
g3
Ntp43
Rp44
(dp45
g7
g8
sg9
V3D17ECOUOEW2U12BJX5I7M5OQO931F
p46
sbag1
(g2
g3
Ntp47
Rp48
(dp49
g7
g8
sg9
V3PCPFX4U40RLRH2LO7WZ9W2T1Q6FQV
p50
sbag1
(g2
g3
Ntp51
Rp52
(dp53
g7
g8
sg9
V302U8RURJZ2PKHBJ8U9MNOAAK97NV4
p54
sbag1
(g2
g3
Ntp55
Rp56
(dp57
g7
g8
sg9
V3GV1I4SEO9QEHRTXV9LZY4QMYLGL69
p58
sbag1
(g2
g3
Ntp59
Rp60
(dp61
g7
g8
sg9
V3XUSYT70IT2054JQG37U6Q8QC9S0D7
p62
sbag1
(g2
g3
Ntp63
Rp64
(dp65
g7
g8
sg9
V3OID399FXG8R28YGJLQF9XVUIBHDFO
p66
sbag1
(g2
g3
Ntp67
Rp68
(dp69
g7
g8
sg9
V3D1UCPY6GGAK51MWIIEXMWSW4UF38Z
p70
sbag1
(g2
g3
Ntp71
Rp72
(dp73
g7
g8
sg9
V3SNR5F7R92UG45E6GO7KICQ7YFAIED
p74
sbag1
(g2
g3
Ntp75
Rp76
(dp77
g7
g8
sg9
V3AJA9FLWSCZ8AJE2BZRQ0UB7AGPIFV
p78
sbag1
(g2
g3
Ntp79
Rp80
(dp81
g7
g8
sg9
V3L7SUC0TTUV39YP3TW6XPGVKLNK0MP
p82
sbag1
(g2
g3
Ntp83
Rp84
(dp85
g7
g8
sg9
V3SX4X51T80ANAE8XYEI36QW2P9BAO5
p86
sbag1
(g2
g3
Ntp87
Rp88
(dp89
g7
g8
sg9
V33TGB4G0LPIFJJLY55WGK8DNP20XTH
p90
sbag1
(g2
g3
Ntp91
Rp92
(dp93
g7
g8
sg9
V3LXX8KJXPWA95VYS6843AVLIJRTO94
p94
sbag1
(g2
g3
Ntp95
Rp96
(dp97
g7
g8
sg9
V3Y3CZJSZ9KUT1LOWVA8QSALL8IUR5P
p98
sbag1
(g2
g3
Ntp99
Rp100
(dp101
g7
g8
sg9
V3JMQI2OLFZ63Q0BXH99SH243K23DNV
p102
sbag1
(g2
g3
Ntp103
Rp104
(dp105
g7
g8
sg9
V3RBI0I35XE4ZK7DEVMCRL9GYX9HY37
p106
sbag1
(g2
g3
Ntp107
Rp108
(dp109
g7
g8
sg9
V3V0TR1NRVA3J6LYFFU3USSQX8IC4AQ
p110
sbag1
(g2
g3
Ntp111
Rp112
(dp113
g7
g8
sg9
V3LG268AV387TX4HP6B1TW4RYLBTREQ
p114
sbag1
(g2
g3
Ntp115
Rp116
(dp117
g7
g8
sg9
V33CLA8O0MICL3IHL1MLZEMCYXC8RF8
p118
sbag1
(g2
g3
Ntp119
Rp120
(dp121
g7
g8
sg9
V3XBXDSS888KR06DTWWUPYH36VPFLX3
p122
sba.