ccollections
defaultdict
p0
(c__builtin__
list
p1
tp2
Rp3
V3L7SUC0TTUV39YP3TW6XPGVKLNK0MP
p4
(lp5
(dp6
V36AHBNMV1RD0PJD5EDN4M2XUIN3YD5
p7
(dp8
VDaily_Science_Grade_5_Evan_Moor_95.jpeg
p9
(lp10
(dp11
Vcategory
p12
Vunlabeled
p13
sS'worker_id'
p14
VA333VJ2K6O6R79
p15
sVid
p16
VT8
p17
sa(dp18
Vcategory
p19
VQuestion
p20
sg14
g15
sVid
p21
VT9
p22
sa(dp23
Vcategory
p24
Vunlabeled
p25
sg14
g15
sVid
p26
VT6
p27
sa(dp28
Vcategory
p29
VQuestion
p30
sg14
g15
sVid
p31
VT7
p32
sa(dp33
Vcategory
p34
VHeader/Topic
p35
sg14
g15
sVid
p36
VT4
p37
sa(dp38
Vcategory
p39
Vunlabeled
p40
sg14
g15
sVid
p41
VT5
p42
sa(dp43
Vcategory
p44
Vunlabeled
p45
sg14
g15
sVid
p46
VT2
p47
sa(dp48
Vcategory
p49
Vunlabeled
p50
sg14
g15
sVid
p51
VT3
p52
sa(dp53
Vcategory
p54
Vunlabeled
p55
sg14
g15
sVid
p56
VT1
p57
sa(dp58
Vcategory
p59
VFigure Label
p60
sg14
g15
sVid
p61
VT14
p62
sa(dp63
Vcategory
p64
Vunlabeled
p65
sg14
g15
sVid
p66
VT15
p67
sa(dp68
Vcategory
p69
Vunlabeled
p70
sg14
g15
sVid
p71
VT16
p72
sa(dp73
Vcategory
p74
Vunlabeled
p75
sg14
g15
sVid
p76
VT17
p77
sa(dp78
Vcategory
p79
VFigure Label
p80
sg14
g15
sVid
p81
VT10
p82
sa(dp83
Vcategory
p84
VFigure Label
p85
sg14
g15
sVid
p86
VT11
p87
sa(dp88
Vcategory
p89
VFigure Label
p90
sg14
g15
sVid
p91
VT12
p92
sa(dp93
Vcategory
p94
VFigure Label
p95
sg14
g15
sVid
p96
VT13
p97
sa(dp98
Vcategory
p99
Vunlabeled
p100
sg14
g15
sVid
p101
VT18
p102
sassa(dp103
V3OF2M9AATGP88FTK2GBA4M1M8QFZKL
p104
(dp105
VDaily_Science_Grade_5_Evan_Moor_95.jpeg
p106
(lp107
(dp108
Vcategory
p109
Vunlabeled
p110
sg14
VA2RSOGTSR83XKO
p111
sVid
p112
VT8
p113
sa(dp114
Vcategory
p115
VQuestion
p116
sg14
g111
sVid
p117
VT9
p118
sa(dp119
Vcategory
p120
Vunlabeled
p121
sg14
g111
sVid
p122
VT6
p123
sa(dp124
Vcategory
p125
VQuestion
p126
sg14
g111
sVid
p127
VT7
p128
sa(dp129
Vcategory
p130
VHeader/Topic
p131
sg14
g111
sVid
p132
VT4
p133
sa(dp134
Vcategory
p135
Vunlabeled
p136
sg14
g111
sVid
p137
VT5
p138
sa(dp139
Vcategory
p140
Vunlabeled
p141
sg14
g111
sVid
p142
VT2
p143
sa(dp144
Vcategory
p145
Vunlabeled
p146
sg14
g111
sVid
p147
VT3
p148
sa(dp149
Vcategory
p150
Vunlabeled
p151
sg14
g111
sVid
p152
VT1
p153
sa(dp154
Vcategory
p155
VQuestion
p156
sg14
g111
sVid
p157
VT14
p158
sa(dp159
Vcategory
p160
Vunlabeled
p161
sg14
g111
sVid
p162
VT15
p163
sa(dp164
Vcategory
p165
Vunlabeled
p166
sg14
g111
sVid
p167
VT16
p168
sa(dp169
Vcategory
p170
Vunlabeled
p171
sg14
g111
sVid
p172
VT17
p173
sa(dp174
Vcategory
p175
VQuestion
p176
sg14
g111
sVid
p177
VT10
p178
sa(dp179
Vcategory
p180
VQuestion
p181
sg14
g111
sVid
p182
VT11
p183
sa(dp184
Vcategory
p185
VQuestion
p186
sg14
g111
sVid
p187
VT12
p188
sa(dp189
Vcategory
p190
VQuestion
p191
sg14
g111
sVid
p192
VT13
p193
sa(dp194
Vcategory
p195
Vunlabeled
p196
sg14
g111
sVid
p197
VT18
p198
sassa(dp199
V3I33IC7ZWF3CQRHM1IP7NXOJI5LA28
p200
(dp201
VDaily_Science_Grade_5_Evan_Moor_95.jpeg
p202
(lp203
(dp204
Vcategory
p205
Vunlabeled
p206
sg14
VA3TXJLD6JNR280
p207
sVid
p208
VT8
p209
sa(dp210
Vcategory
p211
VDiscussion
p212
sg14
g207
sVid
p213
VT9
p214
sa(dp215
Vcategory
p216
Vunlabeled
p217
sg14
g207
sVid
p218
VT6
p219
sa(dp220
Vcategory
p221
VDiscussion
p222
sg14
g207
sVid
p223
VT7
p224
sa(dp225
Vcategory
p226
VHeader/Topic
p227
sg14
g207
sVid
p228
VT4
p229
sa(dp230
Vcategory
p231
Vunlabeled
p232
sg14
g207
sVid
p233
VT5
p234
sa(dp235
Vcategory
p236
Vunlabeled
p237
sg14
g207
sVid
p238
VT2
p239
sa(dp240
Vcategory
p241
Vunlabeled
p242
sg14
g207
sVid
p243
VT3
p244
sa(dp245
Vcategory
p246
Vunlabeled
p247
sg14
g207
sVid
p248
VT1
p249
sa(dp250
Vcategory
p251
Vunlabeled
p252
sg14
g207
sVid
p253
VT14
p254
sa(dp255
Vcategory
p256
Vunlabeled
p257
sg14
g207
sVid
p258
VT15
p259
sa(dp260
Vcategory
p261
Vunlabeled
p262
sg14
g207
sVid
p263
VT16
p264
sa(dp265
Vcategory
p266
Vunlabeled
p267
sg14
g207
sVid
p268
VT17
p269
sa(dp270
Vcategory
p271
Vunlabeled
p272
sg14
g207
sVid
p273
VT10
p274
sa(dp275
Vcategory
p276
Vunlabeled
p277
sg14
g207
sVid
p278
VT11
p279
sa(dp280
Vcategory
p281
Vunlabeled
p282
sg14
g207
sVid
p283
VT12
p284
sa(dp285
Vcategory
p286
Vunlabeled
p287
sg14
g207
sVid
p288
VT13
p289
sa(dp290
Vcategory
p291
Vunlabeled
p292
sg14
g207
sVid
p293
VT18
p294
sassasV3D1UCPY6GGAK51MWIIEXMWSW4UF38Z
p295
(lp296
(dp297
V3GA6AFUKOOPGLWLJBOD4NTGF1EBH31
p298
(dp299
VDaily_Science_Grade_5_Evan_Moor_41.jpeg
p300
(lp301
(dp302
Vcategory
p303
Vunlabeled
p304
sg14
VA03922113RU44GENR8ATX
p305
sVid
p306
VT14
p307
sa(dp308
Vcategory
p309
Vunlabeled
p310
sg14
g305
sVid
p311
VT15
p312
sa(dp313
Vcategory
p314
VFigure Label
p315
sg14
g305
sVid
p316
VT16
p317
sa(dp318
Vcategory
p319
VDefinition
p320
sg14
g305
sVid
p321
VT17
p322
sa(dp323
Vcategory
p324
Vunlabeled
p325
sg14
g305
sVid
p326
VT10
p327
sa(dp328
Vcategory
p329
Vunlabeled
p330
sg14
g305
sVid
p331
VT11
p332
sa(dp333
Vcategory
p334
VDiscussion
p335
sg14
g305
sVid
p336
VT12
p337
sa(dp338
Vcategory
p339
VDefinition
p340
sg14
g305
sVid
p341
VT13
p342
sa(dp343
Vcategory
p344
VFigure Label
p345
sg14
g305
sVid
p346
VT18
p347
sa(dp348
Vcategory
p349
Vunlabeled
p350
sg14
g305
sVid
p351
VT19
p352
sa(dp353
Vcategory
p354
Vunlabeled
p355
sg14
g305
sVid
p356
VT30
p357
sa(dp358
Vcategory
p359
Vunlabeled
p360
sg14
g305
sVid
p361
VT31
p362
sa(dp363
Vcategory
p364
Vunlabeled
p365
sg14
g305
sVid
p366
VT32
p367
sa(dp368
Vcategory
p369
VDiscussion
p370
sg14
g305
sVid
p371
VT8
p372
sa(dp373
Vcategory
p374
Vunlabeled
p375
sg14
g305
sVid
p376
VT9
p377
sa(dp378
Vcategory
p379
Vunlabeled
p380
sg14
g305
sVid
p381
VT6
p382
sa(dp383
Vcategory
p384
VHeader/Topic
p385
sg14
g305
sVid
p386
VT7
p387
sa(dp388
Vcategory
p389
Vunlabeled
p390
sg14
g305
sVid
p391
VT4
p392
sa(dp393
Vcategory
p394
Vunlabeled
p395
sg14
g305
sVid
p396
VT5
p397
sa(dp398
Vcategory
p399
Vunlabeled
p400
sg14
g305
sVid
p401
VT2
p402
sa(dp403
Vcategory
p404
Vunlabeled
p405
sg14
g305
sVid
p406
VT3
p407
sa(dp408
Vcategory
p409
Vunlabeled
p410
sg14
g305
sVid
p411
VT1
p412
sa(dp413
Vcategory
p414
Vunlabeled
p415
sg14
g305
sVid
p416
VT29
p417
sa(dp418
Vcategory
p419
VQuestion
p420
sg14
g305
sVid
p421
VT28
p422
sa(dp423
Vcategory
p424
VFigure Label
p425
sg14
g305
sVid
p426
VT21
p427
sa(dp428
Vcategory
p429
VDefinition
p430
sg14
g305
sVid
p431
VT20
p432
sa(dp433
Vcategory
p434
VFigure Label
p435
sg14
g305
sVid
p436
VT23
p437
sa(dp438
Vcategory
p439
VFigure Label
p440
sg14
g305
sVid
p441
VT22
p442
sa(dp443
Vcategory
p444
VQuestion
p445
sg14
g305
sVid
p446
VT25
p447
sa(dp448
Vcategory
p449
VQuestion
p450
sg14
g305
sVid
p451
VT24
p452
sa(dp453
Vcategory
p454
VQuestion
p455
sg14
g305
sVid
p456
VT27
p457
sa(dp458
Vcategory
p459
VQuestion
p460
sg14
g305
sVid
p461
VT26
p462
sassa(dp463
V3DEL4X4EL6MENPIM5DOGG90MY5SYXK
p464
(dp465
VDaily_Science_Grade_5_Evan_Moor_41.jpeg
p466
(lp467
(dp468
Vcategory
p469
Vunlabeled
p470
sg14
VA2RSOGTSR83XKO
p471
sVid
p472
VT14
p473
sa(dp474
Vcategory
p475
Vunlabeled
p476
sg14
g471
sVid
p477
VT15
p478
sa(dp479
Vcategory
p480
VFigure Label
p481
sg14
g471
sVid
p482
VT16
p483
sa(dp484
Vcategory
p485
VDefinition
p486
sg14
g471
sVid
p487
VT17
p488
sa(dp489
Vcategory
p490
Vunlabeled
p491
sg14
g471
sVid
p492
VT10
p493
sa(dp494
Vcategory
p495
Vunlabeled
p496
sg14
g471
sVid
p497
VT11
p498
sa(dp499
Vcategory
p500
VDiscussion
p501
sg14
g471
sVid
p502
VT12
p503
sa(dp504
Vcategory
p505
VDefinition
p506
sg14
g471
sVid
p507
VT13
p508
sa(dp509
Vcategory
p510
VFigure Label
p511
sg14
g471
sVid
p512
VT18
p513
sa(dp514
Vcategory
p515
Vunlabeled
p516
sg14
g471
sVid
p517
VT19
p518
sa(dp519
Vcategory
p520
Vunlabeled
p521
sg14
g471
sVid
p522
VT30
p523
sa(dp524
Vcategory
p525
Vunlabeled
p526
sg14
g471
sVid
p527
VT31
p528
sa(dp529
Vcategory
p530
Vunlabeled
p531
sg14
g471
sVid
p532
VT32
p533
sa(dp534
Vcategory
p535
VDiscussion
p536
sg14
g471
sVid
p537
VT8
p538
sa(dp539
Vcategory
p540
Vunlabeled
p541
sg14
g471
sVid
p542
VT9
p543
sa(dp544
Vcategory
p545
Vunlabeled
p546
sg14
g471
sVid
p547
VT6
p548
sa(dp549
Vcategory
p550
VHeader/Topic
p551
sg14
g471
sVid
p552
VT7
p553
sa(dp554
Vcategory
p555
Vunlabeled
p556
sg14
g471
sVid
p557
VT4
p558
sa(dp559
Vcategory
p560
Vunlabeled
p561
sg14
g471
sVid
p562
VT5
p563
sa(dp564
Vcategory
p565
Vunlabeled
p566
sg14
g471
sVid
p567
VT2
p568
sa(dp569
Vcategory
p570
Vunlabeled
p571
sg14
g471
sVid
p572
VT3
p573
sa(dp574
Vcategory
p575
Vunlabeled
p576
sg14
g471
sVid
p577
VT1
p578
sa(dp579
Vcategory
p580
Vunlabeled
p581
sg14
g471
sVid
p582
VT29
p583
sa(dp584
Vcategory
p585
VQuestion
p586
sg14
g471
sVid
p587
VT28
p588
sa(dp589
Vcategory
p590
VFigure Label
p591
sg14
g471
sVid
p592
VT21
p593
sa(dp594
Vcategory
p595
VDefinition
p596
sg14
g471
sVid
p597
VT20
p598
sa(dp599
Vcategory
p600
VFigure Label
p601
sg14
g471
sVid
p602
VT23
p603
sa(dp604
Vcategory
p605
VFigure Label
p606
sg14
g471
sVid
p607
VT22
p608
sa(dp609
Vcategory
p610
VQuestion
p611
sg14
g471
sVid
p612
VT25
p613
sa(dp614
Vcategory
p615
VQuestion
p616
sg14
g471
sVid
p617
VT24
p618
sa(dp619
Vcategory
p620
VQuestion
p621
sg14
g471
sVid
p622
VT27
p623
sa(dp624
Vcategory
p625
VQuestion
p626
sg14
g471
sVid
p627
VT26
p628
sassa(dp629
V3JJVG1YBEBY98Y51PFR1GFB1KX05B2
p630
(dp631
VDaily_Science_Grade_5_Evan_Moor_41.jpeg
p632
(lp633
(dp634
Vcategory
p635
Vunlabeled
p636
sg14
VA3TXJLD6JNR280
p637
sVid
p638
VT14
p639
sa(dp640
Vcategory
p641
Vunlabeled
p642
sg14
g637
sVid
p643
VT15
p644
sa(dp645
Vcategory
p646
VFigure Label
p647
sg14
g637
sVid
p648
VT16
p649
sa(dp650
Vcategory
p651
VDefinition
p652
sg14
g637
sVid
p653
VT17
p654
sa(dp655
Vcategory
p656
VDiscussion
p657
sg14
g637
sVid
p658
VT10
p659
sa(dp660
Vcategory
p661
VDefinition
p662
sg14
g637
sVid
p663
VT11
p664
sa(dp665
Vcategory
p666
VDiscussion
p667
sg14
g637
sVid
p668
VT12
p669
sa(dp670
Vcategory
p671
VDefinition
p672
sg14
g637
sVid
p673
VT13
p674
sa(dp675
Vcategory
p676
VFigure Label
p677
sg14
g637
sVid
p678
VT18
p679
sa(dp680
Vcategory
p681
Vunlabeled
p682
sg14
g637
sVid
p683
VT19
p684
sa(dp685
Vcategory
p686
Vunlabeled
p687
sg14
g637
sVid
p688
VT30
p689
sa(dp690
Vcategory
p691
Vunlabeled
p692
sg14
g637
sVid
p693
VT31
p694
sa(dp695
Vcategory
p696
Vunlabeled
p697
sg14
g637
sVid
p698
VT32
p699
sa(dp700
Vcategory
p701
VDiscussion
p702
sg14
g637
sVid
p703
VT8
p704
sa(dp705
Vcategory
p706
Vunlabeled
p707
sg14
g637
sVid
p708
VT9
p709
sa(dp710
Vcategory
p711
Vunlabeled
p712
sg14
g637
sVid
p713
VT6
p714
sa(dp715
Vcategory
p716
VHeader/Topic
p717
sg14
g637
sVid
p718
VT7
p719
sa(dp720
Vcategory
p721
Vunlabeled
p722
sg14
g637
sVid
p723
VT4
p724
sa(dp725
Vcategory
p726
Vunlabeled
p727
sg14
g637
sVid
p728
VT5
p729
sa(dp730
Vcategory
p731
Vunlabeled
p732
sg14
g637
sVid
p733
VT2
p734
sa(dp735
Vcategory
p736
Vunlabeled
p737
sg14
g637
sVid
p738
VT3
p739
sa(dp740
Vcategory
p741
Vunlabeled
p742
sg14
g637
sVid
p743
VT1
p744
sa(dp745
Vcategory
p746
Vunlabeled
p747
sg14
g637
sVid
p748
VT29
p749
sa(dp750
Vcategory
p751
VQuestion
p752
sg14
g637
sVid
p753
VT28
p754
sa(dp755
Vcategory
p756
VFigure Label
p757
sg14
g637
sVid
p758
VT21
p759
sa(dp760
Vcategory
p761
VDefinition
p762
sg14
g637
sVid
p763
VT20
p764
sa(dp765
Vcategory
p766
VFigure Label
p767
sg14
g637
sVid
p768
VT23
p769
sa(dp770
Vcategory
p771
VFigure Label
p772
sg14
g637
sVid
p773
VT22
p774
sa(dp775
Vcategory
p776
Vunlabeled
p777
sg14
g637
sVid
p778
VT25
p779
sa(dp780
Vcategory
p781
VQuestion
p782
sg14
g637
sVid
p783
VT24
p784
sa(dp785
Vcategory
p786
Vunlabeled
p787
sg14
g637
sVid
p788
VT27
p789
sa(dp790
Vcategory
p791
Vunlabeled
p792
sg14
g637
sVid
p793
VT26
p794
sassasV3LG268AV387TX4HP6B1TW4RYLBTREQ
p795
(lp796
(dp797
V382M9COHEHGO0G70071ZPZ92MBYEUL
p798
(dp799
VDaily_Science_Grade_6_(Daily_Practice_Books)_Evan_Moor_112.jpeg
p800
(lp801
(dp802
Vcategory
p803
VQuestion
p804
sg14
VA333VJ2K6O6R79
p805
sVid
p806
VT14
p807
sa(dp808
Vcategory
p809
VQuestion
p810
sg14
g805
sVid
p811
VT15
p812
sa(dp813
Vcategory
p814
VQuestion
p815
sg14
g805
sVid
p816
VT16
p817
sa(dp818
Vcategory
p819
VQuestion
p820
sg14
g805
sVid
p821
VT17
p822
sa(dp823
Vcategory
p824
Vunlabeled
p825
sg14
g805
sVid
p826
VT10
p827
sa(dp828
Vcategory
p829
VFigure Label
p830
sg14
g805
sVid
p831
VT11
p832
sa(dp833
Vcategory
p834
VFigure Label
p835
sg14
g805
sVid
p836
VT12
p837
sa(dp838
Vcategory
p839
VFigure Label
p840
sg14
g805
sVid
p841
VT13
p842
sa(dp843
Vcategory
p844
VQuestion
p845
sg14
g805
sVid
p846
VT18
p847
sa(dp848
Vcategory
p849
VQuestion
p850
sg14
g805
sVid
p851
VT19
p852
sa(dp853
Vcategory
p854
Vunlabeled
p855
sg14
g805
sVid
p856
VT8
p857
sa(dp858
Vcategory
p859
VDefinition
p860
sg14
g805
sVid
p861
VT9
p862
sa(dp863
Vcategory
p864
VDiscussion
p865
sg14
g805
sVid
p866
VT6
p867
sa(dp868
Vcategory
p869
Vunlabeled
p870
sg14
g805
sVid
p871
VT7
p872
sa(dp873
Vcategory
p874
VHeader/Topic
p875
sg14
g805
sVid
p876
VT4
p877
sa(dp878
Vcategory
p879
Vunlabeled
p880
sg14
g805
sVid
p881
VT5
p882
sa(dp883
Vcategory
p884
Vunlabeled
p885
sg14
g805
sVid
p886
VT2
p887
sa(dp888
Vcategory
p889
Vunlabeled
p890
sg14
g805
sVid
p891
VT3
p892
sa(dp893
Vcategory
p894
Vunlabeled
p895
sg14
g805
sVid
p896
VT1
p897
sa(dp898
Vcategory
p899
Vunlabeled
p900
sg14
g805
sVid
p901
VT21
p902
sa(dp903
Vcategory
p904
Vunlabeled
p905
sg14
g805
sVid
p906
VT20
p907
sa(dp908
Vcategory
p909
Vunlabeled
p910
sg14
g805
sVid
p911
VT22
p912
sassa(dp913
V33FBRBDW6O0B5LG91DUZ3JRA48Z8CC
p914
(dp915
VDaily_Science_Grade_6_(Daily_Practice_Books)_Evan_Moor_112.jpeg
p916
(lp917
(dp918
Vcategory
p919
VQuestion
p920
sg14
VA2D3TM156X7Y61
p921
sVid
p922
VT14
p923
sa(dp924
Vcategory
p925
VQuestion
p926
sg14
g921
sVid
p927
VT15
p928
sa(dp929
Vcategory
p930
VQuestion
p931
sg14
g921
sVid
p932
VT16
p933
sa(dp934
Vcategory
p935
VQuestion
p936
sg14
g921
sVid
p937
VT17
p938
sa(dp939
Vcategory
p940
Vunlabeled
p941
sg14
g921
sVid
p942
VT10
p943
sa(dp944
Vcategory
p945
VFigure Label
p946
sg14
g921
sVid
p947
VT11
p948
sa(dp949
Vcategory
p950
VFigure Label
p951
sg14
g921
sVid
p952
VT12
p953
sa(dp954
Vcategory
p955
VFigure Label
p956
sg14
g921
sVid
p957
VT13
p958
sa(dp959
Vcategory
p960
VQuestion
p961
sg14
g921
sVid
p962
VT18
p963
sa(dp964
Vcategory
p965
VQuestion
p966
sg14
g921
sVid
p967
VT19
p968
sa(dp969
Vcategory
p970
VDefinition
p971
sg14
g921
sVid
p972
VT8
p973
sa(dp974
Vcategory
p975
VDefinition
p976
sg14
g921
sVid
p977
VT9
p978
sa(dp979
Vcategory
p980
VDiscussion
p981
sg14
g921
sVid
p982
VT6
p983
sa(dp984
Vcategory
p985
Vunlabeled
p986
sg14
g921
sVid
p987
VT7
p988
sa(dp989
Vcategory
p990
VHeader/Topic
p991
sg14
g921
sVid
p992
VT4
p993
sa(dp994
Vcategory
p995
Vunlabeled
p996
sg14
g921
sVid
p997
VT5
p998
sa(dp999
Vcategory
p1000
Vunlabeled
p1001
sg14
g921
sVid
p1002
VT2
p1003
sa(dp1004
Vcategory
p1005
Vunlabeled
p1006
sg14
g921
sVid
p1007
VT3
p1008
sa(dp1009
Vcategory
p1010
Vunlabeled
p1011
sg14
g921
sVid
p1012
VT1
p1013
sa(dp1014
Vcategory
p1015
Vunlabeled
p1016
sg14
g921
sVid
p1017
VT21
p1018
sa(dp1019
Vcategory
p1020
Vunlabeled
p1021
sg14
g921
sVid
p1022
VT20
p1023
sa(dp1024
Vcategory
p1025
Vunlabeled
p1026
sg14
g921
sVid
p1027
VT22
p1028
sassa(dp1029
V3ZGVPD4G6TI7BYJ7WPP25DOIR37ZTS
p1030
(dp1031
VDaily_Science_Grade_6_(Daily_Practice_Books)_Evan_Moor_112.jpeg
p1032
(lp1033
(dp1034
Vcategory
p1035
VQuestion
p1036
sg14
VA3TXJLD6JNR280
p1037
sVid
p1038
VT14
p1039
sa(dp1040
Vcategory
p1041
VQuestion
p1042
sg14
g1037
sVid
p1043
VT15
p1044
sa(dp1045
Vcategory
p1046
VQuestion
p1047
sg14
g1037
sVid
p1048
VT16
p1049
sa(dp1050
Vcategory
p1051
VQuestion
p1052
sg14
g1037
sVid
p1053
VT17
p1054
sa(dp1055
Vcategory
p1056
Vunlabeled
p1057
sg14
g1037
sVid
p1058
VT10
p1059
sa(dp1060
Vcategory
p1061
VFigure Label
p1062
sg14
g1037
sVid
p1063
VT11
p1064
sa(dp1065
Vcategory
p1066
VFigure Label
p1067
sg14
g1037
sVid
p1068
VT12
p1069
sa(dp1070
Vcategory
p1071
VFigure Label
p1072
sg14
g1037
sVid
p1073
VT13
p1074
sa(dp1075
Vcategory
p1076
VQuestion
p1077
sg14
g1037
sVid
p1078
VT18
p1079
sa(dp1080
Vcategory
p1081
VQuestion
p1082
sg14
g1037
sVid
p1083
VT19
p1084
sa(dp1085
Vcategory
p1086
VDefinition
p1087
sg14
g1037
sVid
p1088
VT8
p1089
sa(dp1090
Vcategory
p1091
VDefinition
p1092
sg14
g1037
sVid
p1093
VT9
p1094
sa(dp1095
Vcategory
p1096
VDiscussion
p1097
sg14
g1037
sVid
p1098
VT6
p1099
sa(dp1100
Vcategory
p1101
Vunlabeled
p1102
sg14
g1037
sVid
p1103
VT7
p1104
sa(dp1105
Vcategory
p1106
VHeader/Topic
p1107
sg14
g1037
sVid
p1108
VT4
p1109
sa(dp1110
Vcategory
p1111
Vunlabeled
p1112
sg14
g1037
sVid
p1113
VT5
p1114
sa(dp1115
Vcategory
p1116
Vunlabeled
p1117
sg14
g1037
sVid
p1118
VT2
p1119
sa(dp1120
Vcategory
p1121
Vunlabeled
p1122
sg14
g1037
sVid
p1123
VT3
p1124
sa(dp1125
Vcategory
p1126
Vunlabeled
p1127
sg14
g1037
sVid
p1128
VT1
p1129
sa(dp1130
Vcategory
p1131
Vunlabeled
p1132
sg14
g1037
sVid
p1133
VT21
p1134
sa(dp1135
Vcategory
p1136
Vunlabeled
p1137
sg14
g1037
sVid
p1138
VT20
p1139
sa(dp1140
Vcategory
p1141
Vunlabeled
p1142
sg14
g1037
sVid
p1143
VT22
p1144
sassasV302U8RURJZ2PKHBJ8U9MNOAAK97NV4
p1145
(lp1146
(dp1147
V3M23Y66PO2848OMH5KN1YAZ1KGRS60
p1148
(dp1149
VDaily_Science_Grade_4_Evan_Moor_142.jpeg
p1150
(lp1151
(dp1152
Vcategory
p1153
VQuestion
p1154
sg14
VA2UUND717FJR7R
p1155
sVid
p1156
VT14
p1157
sa(dp1158
Vcategory
p1159
VQuestion
p1160
sg14
g1155
sVid
p1161
VT15
p1162
sa(dp1163
Vcategory
p1164
VQuestion
p1165
sg14
g1155
sVid
p1166
VT16
p1167
sa(dp1168
Vcategory
p1169
VQuestion
p1170
sg14
g1155
sVid
p1171
VT17
p1172
sa(dp1173
Vcategory
p1174
VDefinition
p1175
sg14
g1155
sVid
p1176
VT10
p1177
sa(dp1178
Vcategory
p1179
VFigure Label
p1180
sg14
g1155
sVid
p1181
VT11
p1182
sa(dp1183
Vcategory
p1184
VQuestion
p1185
sg14
g1155
sVid
p1186
VT12
p1187
sa(dp1188
Vcategory
p1189
VQuestion
p1190
sg14
g1155
sVid
p1191
VT13
p1192
sa(dp1193
Vcategory
p1194
VQuestion
p1195
sg14
g1155
sVid
p1196
VT18
p1197
sa(dp1198
Vcategory
p1199
VQuestion
p1200
sg14
g1155
sVid
p1201
VT19
p1202
sa(dp1203
Vcategory
p1204
VDefinition
p1205
sg14
g1155
sVid
p1206
VT8
p1207
sa(dp1208
Vcategory
p1209
VDefinition
p1210
sg14
g1155
sVid
p1211
VT9
p1212
sa(dp1213
Vcategory
p1214
VDiscussion
p1215
sg14
g1155
sVid
p1216
VT6
p1217
sa(dp1218
Vcategory
p1219
Vunlabeled
p1220
sg14
g1155
sVid
p1221
VT7
p1222
sa(dp1223
Vcategory
p1224
VHeader/Topic
p1225
sg14
g1155
sVid
p1226
VT4
p1227
sa(dp1228
Vcategory
p1229
Vunlabeled
p1230
sg14
g1155
sVid
p1231
VT5
p1232
sa(dp1233
Vcategory
p1234
Vunlabeled
p1235
sg14
g1155
sVid
p1236
VT2
p1237
sa(dp1238
Vcategory
p1239
Vunlabeled
p1240
sg14
g1155
sVid
p1241
VT3
p1242
sa(dp1243
Vcategory
p1244
Vunlabeled
p1245
sg14
g1155
sVid
p1246
VT1
p1247
sa(dp1248
Vcategory
p1249
VQuestion
p1250
sg14
g1155
sVid
p1251
VT21
p1252
sa(dp1253
Vcategory
p1254
VQuestion
p1255
sg14
g1155
sVid
p1256
VT20
p1257
sa(dp1258
Vcategory
p1259
Vunlabeled
p1260
sg14
g1155
sVid
p1261
VT23
p1262
sa(dp1263
Vcategory
p1264
Vunlabeled
p1265
sg14
g1155
sVid
p1266
VT22
p1267
sa(dp1268
Vcategory
p1269
Vunlabeled
p1270
sg14
g1155
sVid
p1271
VT24
p1272
sassa(dp1273
V3NGI5ARFTT6COA5S7X7Q8939PL71PY
p1274
(dp1275
VDaily_Science_Grade_4_Evan_Moor_142.jpeg
p1276
(lp1277
(dp1278
Vcategory
p1279
VQuestion
p1280
sg14
VA36PFUM96J0ES6
p1281
sVid
p1282
VT14
p1283
sa(dp1284
Vcategory
p1285
VQuestion
p1286
sg14
g1281
sVid
p1287
VT15
p1288
sa(dp1289
Vcategory
p1290
VQuestion
p1291
sg14
g1281
sVid
p1292
VT16
p1293
sa(dp1294
Vcategory
p1295
VQuestion
p1296
sg14
g1281
sVid
p1297
VT17
p1298
sa(dp1299
Vcategory
p1300
VDefinition
p1301
sg14
g1281
sVid
p1302
VT10
p1303
sa(dp1304
Vcategory
p1305
VFigure Label
p1306
sg14
g1281
sVid
p1307
VT11
p1308
sa(dp1309
Vcategory
p1310
VQuestion
p1311
sg14
g1281
sVid
p1312
VT12
p1313
sa(dp1314
Vcategory
p1315
VQuestion
p1316
sg14
g1281
sVid
p1317
VT13
p1318
sa(dp1319
Vcategory
p1320
VQuestion
p1321
sg14
g1281
sVid
p1322
VT18
p1323
sa(dp1324
Vcategory
p1325
VQuestion
p1326
sg14
g1281
sVid
p1327
VT19
p1328
sa(dp1329
Vcategory
p1330
Vunlabeled
p1331
sg14
g1281
sVid
p1332
VT8
p1333
sa(dp1334
Vcategory
p1335
VDefinition
p1336
sg14
g1281
sVid
p1337
VT9
p1338
sa(dp1339
Vcategory
p1340
VDiscussion
p1341
sg14
g1281
sVid
p1342
VT6
p1343
sa(dp1344
Vcategory
p1345
Vunlabeled
p1346
sg14
g1281
sVid
p1347
VT7
p1348
sa(dp1349
Vcategory
p1350
VHeader/Topic
p1351
sg14
g1281
sVid
p1352
VT4
p1353
sa(dp1354
Vcategory
p1355
Vunlabeled
p1356
sg14
g1281
sVid
p1357
VT5
p1358
sa(dp1359
Vcategory
p1360
Vunlabeled
p1361
sg14
g1281
sVid
p1362
VT2
p1363
sa(dp1364
Vcategory
p1365
Vunlabeled
p1366
sg14
g1281
sVid
p1367
VT3
p1368
sa(dp1369
Vcategory
p1370
Vunlabeled
p1371
sg14
g1281
sVid
p1372
VT1
p1373
sa(dp1374
Vcategory
p1375
VQuestion
p1376
sg14
g1281
sVid
p1377
VT21
p1378
sa(dp1379
Vcategory
p1380
VQuestion
p1381
sg14
g1281
sVid
p1382
VT20
p1383
sa(dp1384
Vcategory
p1385
Vunlabeled
p1386
sg14
g1281
sVid
p1387
VT23
p1388
sa(dp1389
Vcategory
p1390
Vunlabeled
p1391
sg14
g1281
sVid
p1392
VT22
p1393
sa(dp1394
Vcategory
p1395
Vunlabeled
p1396
sg14
g1281
sVid
p1397
VT24
p1398
sassa(dp1399
V3VZLGYJEYLBESFSR1ZQZUG9O4ZWXZA
p1400
(dp1401
VDaily_Science_Grade_4_Evan_Moor_142.jpeg
p1402
(lp1403
(dp1404
Vcategory
p1405
VAnswer
p1406
sg14
VA3TXJLD6JNR280
p1407
sVid
p1408
VT14
p1409
sa(dp1410
Vcategory
p1411
VAnswer
p1412
sg14
g1407
sVid
p1413
VT15
p1414
sa(dp1415
Vcategory
p1416
VAnswer
p1417
sg14
g1407
sVid
p1418
VT16
p1419
sa(dp1420
Vcategory
p1421
VAnswer
p1422
sg14
g1407
sVid
p1423
VT17
p1424
sa(dp1425
Vcategory
p1426
VDefinition
p1427
sg14
g1407
sVid
p1428
VT10
p1429
sa(dp1430
Vcategory
p1431
VFigure Label
p1432
sg14
g1407
sVid
p1433
VT11
p1434
sa(dp1435
Vcategory
p1436
VAnswer
p1437
sg14
g1407
sVid
p1438
VT12
p1439
sa(dp1440
Vcategory
p1441
VAnswer
p1442
sg14
g1407
sVid
p1443
VT13
p1444
sa(dp1445
Vcategory
p1446
VAnswer
p1447
sg14
g1407
sVid
p1448
VT18
p1449
sa(dp1450
Vcategory
p1451
VAnswer
p1452
sg14
g1407
sVid
p1453
VT19
p1454
sa(dp1455
Vcategory
p1456
VDefinition
p1457
sg14
g1407
sVid
p1458
VT8
p1459
sa(dp1460
Vcategory
p1461
VDefinition
p1462
sg14
g1407
sVid
p1463
VT9
p1464
sa(dp1465
Vcategory
p1466
VDiscussion
p1467
sg14
g1407
sVid
p1468
VT6
p1469
sa(dp1470
Vcategory
p1471
Vunlabeled
p1472
sg14
g1407
sVid
p1473
VT7
p1474
sa(dp1475
Vcategory
p1476
VHeader/Topic
p1477
sg14
g1407
sVid
p1478
VT4
p1479
sa(dp1480
Vcategory
p1481
Vunlabeled
p1482
sg14
g1407
sVid
p1483
VT5
p1484
sa(dp1485
Vcategory
p1486
Vunlabeled
p1487
sg14
g1407
sVid
p1488
VT2
p1489
sa(dp1490
Vcategory
p1491
Vunlabeled
p1492
sg14
g1407
sVid
p1493
VT3
p1494
sa(dp1495
Vcategory
p1496
Vunlabeled
p1497
sg14
g1407
sVid
p1498
VT1
p1499
sa(dp1500
Vcategory
p1501
VAnswer
p1502
sg14
g1407
sVid
p1503
VT21
p1504
sa(dp1505
Vcategory
p1506
VAnswer
p1507
sg14
g1407
sVid
p1508
VT20
p1509
sa(dp1510
Vcategory
p1511
Vunlabeled
p1512
sg14
g1407
sVid
p1513
VT23
p1514
sa(dp1515
Vcategory
p1516
Vunlabeled
p1517
sg14
g1407
sVid
p1518
VT22
p1519
sa(dp1520
Vcategory
p1521
Vunlabeled
p1522
sg14
g1407
sVid
p1523
VT24
p1524
sassasV3TLFH2L6Y9PEI3I1HGBNUIJRCT02TC
p1525
(lp1526
(dp1527
V37TD41K0AHATO5VIFB04KARBG24SCU
p1528
(dp1529
VDaily_Science_Grade_4_Evan_Moor_25.jpeg
p1530
(lp1531
(dp1532
Vcategory
p1533
VQuestion
p1534
sg14
VA36PFUM96J0ES6
p1535
sVid
p1536
VT14
p1537
sa(dp1538
Vcategory
p1539
VQuestion
p1540
sg14
g1535
sVid
p1541
VT15
p1542
sa(dp1543
Vcategory
p1544
Vunlabeled
p1545
sg14
g1535
sVid
p1546
VT16
p1547
sa(dp1548
Vcategory
p1549
VQuestion
p1550
sg14
g1535
sVid
p1551
VT17
p1552
sa(dp1553
Vcategory
p1554
VFigure Label
p1555
sg14
g1535
sVid
p1556
VT10
p1557
sa(dp1558
Vcategory
p1559
Vunlabeled
p1560
sg14
g1535
sVid
p1561
VT11
p1562
sa(dp1563
Vcategory
p1564
VQuestion
p1565
sg14
g1535
sVid
p1566
VT12
p1567
sa(dp1568
Vcategory
p1569
VQuestion
p1570
sg14
g1535
sVid
p1571
VT13
p1572
sa(dp1573
Vcategory
p1574
Vunlabeled
p1575
sg14
g1535
sVid
p1576
VT18
p1577
sa(dp1578
Vcategory
p1579
Vunlabeled
p1580
sg14
g1535
sVid
p1581
VT19
p1582
sa(dp1583
Vcategory
p1584
Vunlabeled
p1585
sg14
g1535
sVid
p1586
VT8
p1587
sa(dp1588
Vcategory
p1589
VQuestion
p1590
sg14
g1535
sVid
p1591
VT9
p1592
sa(dp1593
Vcategory
p1594
Vunlabeled
p1595
sg14
g1535
sVid
p1596
VT6
p1597
sa(dp1598
Vcategory
p1599
VDiscussion
p1600
sg14
g1535
sVid
p1601
VT7
p1602
sa(dp1603
Vcategory
p1604
Vunlabeled
p1605
sg14
g1535
sVid
p1606
VT4
p1607
sa(dp1608
Vcategory
p1609
VHeader/Topic
p1610
sg14
g1535
sVid
p1611
VT5
p1612
sa(dp1613
Vcategory
p1614
Vunlabeled
p1615
sg14
g1535
sVid
p1616
VT2
p1617
sa(dp1618
Vcategory
p1619
Vunlabeled
p1620
sg14
g1535
sVid
p1621
VT3
p1622
sa(dp1623
Vcategory
p1624
Vunlabeled
p1625
sg14
g1535
sVid
p1626
VT1
p1627
sa(dp1628
Vcategory
p1629
Vunlabeled
p1630
sg14
g1535
sVid
p1631
VT21
p1632
sa(dp1633
Vcategory
p1634
Vunlabeled
p1635
sg14
g1535
sVid
p1636
VT20
p1637
sa(dp1638
Vcategory
p1639
Vunlabeled
p1640
sg14
g1535
sVid
p1641
VT22
p1642
sassa(dp1643
V336KAV9KYQTDM9FPHO3NQJ6QLWP2YB
p1644
(dp1645
VDaily_Science_Grade_4_Evan_Moor_25.jpeg
p1646
(lp1647
(dp1648
Vcategory
p1649
VQuestion
p1650
sg14
VA3I9WD8P9RBFHR
p1651
sVid
p1652
VT14
p1653
sa(dp1654
Vcategory
p1655
VQuestion
p1656
sg14
g1651
sVid
p1657
VT15
p1658
sa(dp1659
Vcategory
p1660
Vunlabeled
p1661
sg14
g1651
sVid
p1662
VT16
p1663
sa(dp1664
Vcategory
p1665
VQuestion
p1666
sg14
g1651
sVid
p1667
VT17
p1668
sa(dp1669
Vcategory
p1670
VFigure Label
p1671
sg14
g1651
sVid
p1672
VT10
p1673
sa(dp1674
Vcategory
p1675
Vunlabeled
p1676
sg14
g1651
sVid
p1677
VT11
p1678
sa(dp1679
Vcategory
p1680
VQuestion
p1681
sg14
g1651
sVid
p1682
VT12
p1683
sa(dp1684
Vcategory
p1685
VQuestion
p1686
sg14
g1651
sVid
p1687
VT13
p1688
sa(dp1689
Vcategory
p1690
Vunlabeled
p1691
sg14
g1651
sVid
p1692
VT18
p1693
sa(dp1694
Vcategory
p1695
Vunlabeled
p1696
sg14
g1651
sVid
p1697
VT19
p1698
sa(dp1699
Vcategory
p1700
Vunlabeled
p1701
sg14
g1651
sVid
p1702
VT8
p1703
sa(dp1704
Vcategory
p1705
VQuestion
p1706
sg14
g1651
sVid
p1707
VT9
p1708
sa(dp1709
Vcategory
p1710
Vunlabeled
p1711
sg14
g1651
sVid
p1712
VT6
p1713
sa(dp1714
Vcategory
p1715
VDiscussion
p1716
sg14
g1651
sVid
p1717
VT7
p1718
sa(dp1719
Vcategory
p1720
Vunlabeled
p1721
sg14
g1651
sVid
p1722
VT4
p1723
sa(dp1724
Vcategory
p1725
VHeader/Topic
p1726
sg14
g1651
sVid
p1727
VT5
p1728
sa(dp1729
Vcategory
p1730
Vunlabeled
p1731
sg14
g1651
sVid
p1732
VT2
p1733
sa(dp1734
Vcategory
p1735
Vunlabeled
p1736
sg14
g1651
sVid
p1737
VT3
p1738
sa(dp1739
Vcategory
p1740
Vunlabeled
p1741
sg14
g1651
sVid
p1742
VT1
p1743
sa(dp1744
Vcategory
p1745
Vunlabeled
p1746
sg14
g1651
sVid
p1747
VT21
p1748
sa(dp1749
Vcategory
p1750
Vunlabeled
p1751
sg14
g1651
sVid
p1752
VT20
p1753
sa(dp1754
Vcategory
p1755
Vunlabeled
p1756
sg14
g1651
sVid
p1757
VT22
p1758
sassa(dp1759
V3F0BG9B9MPOK8ACVN0KIMANYWCCY7O
p1760
(dp1761
VDaily_Science_Grade_4_Evan_Moor_25.jpeg
p1762
(lp1763
(dp1764
Vcategory
p1765
VDiscussion
p1766
sg14
VA3TXJLD6JNR280
p1767
sVid
p1768
VT14
p1769
sa(dp1770
Vcategory
p1771
VDiscussion
p1772
sg14
g1767
sVid
p1773
VT15
p1774
sa(dp1775
Vcategory
p1776
Vunlabeled
p1777
sg14
g1767
sVid
p1778
VT16
p1779
sa(dp1780
Vcategory
p1781
Vunlabeled
p1782
sg14
g1767
sVid
p1783
VT17
p1784
sa(dp1785
Vcategory
p1786
VFigure Label
p1787
sg14
g1767
sVid
p1788
VT10
p1789
sa(dp1790
Vcategory
p1791
Vunlabeled
p1792
sg14
g1767
sVid
p1793
VT11
p1794
sa(dp1795
Vcategory
p1796
VDiscussion
p1797
sg14
g1767
sVid
p1798
VT12
p1799
sa(dp1800
Vcategory
p1801
VDiscussion
p1802
sg14
g1767
sVid
p1803
VT13
p1804
sa(dp1805
Vcategory
p1806
Vunlabeled
p1807
sg14
g1767
sVid
p1808
VT18
p1809
sa(dp1810
Vcategory
p1811
Vunlabeled
p1812
sg14
g1767
sVid
p1813
VT19
p1814
sa(dp1815
Vcategory
p1816
Vunlabeled
p1817
sg14
g1767
sVid
p1818
VT8
p1819
sa(dp1820
Vcategory
p1821
VDiscussion
p1822
sg14
g1767
sVid
p1823
VT9
p1824
sa(dp1825
Vcategory
p1826
Vunlabeled
p1827
sg14
g1767
sVid
p1828
VT6
p1829
sa(dp1830
Vcategory
p1831
VDiscussion
p1832
sg14
g1767
sVid
p1833
VT7
p1834
sa(dp1835
Vcategory
p1836
Vunlabeled
p1837
sg14
g1767
sVid
p1838
VT4
p1839
sa(dp1840
Vcategory
p1841
VHeader/Topic
p1842
sg14
g1767
sVid
p1843
VT5
p1844
sa(dp1845
Vcategory
p1846
Vunlabeled
p1847
sg14
g1767
sVid
p1848
VT2
p1849
sa(dp1850
Vcategory
p1851
Vunlabeled
p1852
sg14
g1767
sVid
p1853
VT3
p1854
sa(dp1855
Vcategory
p1856
Vunlabeled
p1857
sg14
g1767
sVid
p1858
VT1
p1859
sa(dp1860
Vcategory
p1861
Vunlabeled
p1862
sg14
g1767
sVid
p1863
VT21
p1864
sa(dp1865
Vcategory
p1866
Vunlabeled
p1867
sg14
g1767
sVid
p1868
VT20
p1869
sa(dp1870
Vcategory
p1871
Vunlabeled
p1872
sg14
g1767
sVid
p1873
VT22
p1874
sassasV3XUSYT70IT2054JQG37U6Q8QC9S0D7
p1875
(lp1876
(dp1877
V30MVJZJNHMEYR45PGXHZQJZGEYP9JF
p1878
(dp1879
VDaily_Science_Grade_5_Evan_Moor_17.jpeg
p1880
(lp1881
(dp1882
Vcategory
p1883
VQuestion
p1884
sg14
VA36PFUM96J0ES6
p1885
sVid
p1886
VT14
p1887
sa(dp1888
Vcategory
p1889
VQuestion
p1890
sg14
g1885
sVid
p1891
VT15
p1892
sa(dp1893
Vcategory
p1894
VQuestion
p1895
sg14
g1885
sVid
p1896
VT16
p1897
sa(dp1898
Vcategory
p1899
VQuestion
p1900
sg14
g1885
sVid
p1901
VT17
p1902
sa(dp1903
Vcategory
p1904
VQuestion
p1905
sg14
g1885
sVid
p1906
VT10
p1907
sa(dp1908
Vcategory
p1909
VDefinition
p1910
sg14
g1885
sVid
p1911
VT11
p1912
sa(dp1913
Vcategory
p1914
VDefinition
p1915
sg14
g1885
sVid
p1916
VT12
p1917
sa(dp1918
Vcategory
p1919
Vunlabeled
p1920
sg14
g1885
sVid
p1921
VT13
p1922
sa(dp1923
Vcategory
p1924
VQuestion
p1925
sg14
g1885
sVid
p1926
VT18
p1927
sa(dp1928
Vcategory
p1929
Vunlabeled
p1930
sg14
g1885
sVid
p1931
VT19
p1932
sa(dp1933
Vcategory
p1934
VDefinition
p1935
sg14
g1885
sVid
p1936
VT8
p1937
sa(dp1938
Vcategory
p1939
VDefinition
p1940
sg14
g1885
sVid
p1941
VT9
p1942
sa(dp1943
Vcategory
p1944
VDiscussion
p1945
sg14
g1885
sVid
p1946
VT6
p1947
sa(dp1948
Vcategory
p1949
Vunlabeled
p1950
sg14
g1885
sVid
p1951
VT7
p1952
sa(dp1953
Vcategory
p1954
VHeader/Topic
p1955
sg14
g1885
sVid
p1956
VT4
p1957
sa(dp1958
Vcategory
p1959
Vunlabeled
p1960
sg14
g1885
sVid
p1961
VT5
p1962
sa(dp1963
Vcategory
p1964
Vunlabeled
p1965
sg14
g1885
sVid
p1966
VT2
p1967
sa(dp1968
Vcategory
p1969
Vunlabeled
p1970
sg14
g1885
sVid
p1971
VT3
p1972
sa(dp1973
Vcategory
p1974
Vunlabeled
p1975
sg14
g1885
sVid
p1976
VT1
p1977
sa(dp1978
Vcategory
p1979
Vunlabeled
p1980
sg14
g1885
sVid
p1981
VT21
p1982
sa(dp1983
Vcategory
p1984
Vunlabeled
p1985
sg14
g1885
sVid
p1986
VT20
p1987
sa(dp1988
Vcategory
p1989
Vunlabeled
p1990
sg14
g1885
sVid
p1991
VT23
p1992
sa(dp1993
Vcategory
p1994
Vunlabeled
p1995
sg14
g1885
sVid
p1996
VT22
p1997
sassa(dp1998
V3QBD8R3Z21KBV9QAFFDDH75MR0LO4H
p1999
(dp2000
VDaily_Science_Grade_5_Evan_Moor_17.jpeg
p2001
(lp2002
(dp2003
Vcategory
p2004
VQuestion
p2005
sg14
VA230N919X9GWNN
p2006
sVid
p2007
VT14
p2008
sa(dp2009
Vcategory
p2010
VQuestion
p2011
sg14
g2006
sVid
p2012
VT15
p2013
sa(dp2014
Vcategory
p2015
VQuestion
p2016
sg14
g2006
sVid
p2017
VT16
p2018
sa(dp2019
Vcategory
p2020
VQuestion
p2021
sg14
g2006
sVid
p2022
VT17
p2023
sa(dp2024
Vcategory
p2025
VQuestion
p2026
sg14
g2006
sVid
p2027
VT10
p2028
sa(dp2029
Vcategory
p2030
Vunlabeled
p2031
sg14
g2006
sVid
p2032
VT11
p2033
sa(dp2034
Vcategory
p2035
VDefinition
p2036
sg14
g2006
sVid
p2037
VT12
p2038
sa(dp2039
Vcategory
p2040
Vunlabeled
p2041
sg14
g2006
sVid
p2042
VT13
p2043
sa(dp2044
Vcategory
p2045
VQuestion
p2046
sg14
g2006
sVid
p2047
VT18
p2048
sa(dp2049
Vcategory
p2050
Vunlabeled
p2051
sg14
g2006
sVid
p2052
VT19
p2053
sa(dp2054
Vcategory
p2055
VDefinition
p2056
sg14
g2006
sVid
p2057
VT8
p2058
sa(dp2059
Vcategory
p2060
VDefinition
p2061
sg14
g2006
sVid
p2062
VT9
p2063
sa(dp2064
Vcategory
p2065
VDiscussion
p2066
sg14
g2006
sVid
p2067
VT6
p2068
sa(dp2069
Vcategory
p2070
Vunlabeled
p2071
sg14
g2006
sVid
p2072
VT7
p2073
sa(dp2074
Vcategory
p2075
VHeader/Topic
p2076
sg14
g2006
sVid
p2077
VT4
p2078
sa(dp2079
Vcategory
p2080
Vunlabeled
p2081
sg14
g2006
sVid
p2082
VT5
p2083
sa(dp2084
Vcategory
p2085
Vunlabeled
p2086
sg14
g2006
sVid
p2087
VT2
p2088
sa(dp2089
Vcategory
p2090
Vunlabeled
p2091
sg14
g2006
sVid
p2092
VT3
p2093
sa(dp2094
Vcategory
p2095
Vunlabeled
p2096
sg14
g2006
sVid
p2097
VT1
p2098
sa(dp2099
Vcategory
p2100
Vunlabeled
p2101
sg14
g2006
sVid
p2102
VT21
p2103
sa(dp2104
Vcategory
p2105
Vunlabeled
p2106
sg14
g2006
sVid
p2107
VT20
p2108
sa(dp2109
Vcategory
p2110
Vunlabeled
p2111
sg14
g2006
sVid
p2112
VT23
p2113
sa(dp2114
Vcategory
p2115
Vunlabeled
p2116
sg14
g2006
sVid
p2117
VT22
p2118
sassa(dp2119
V37UQDCYH6XW34GHQIPXYFBJ4EVB7VP
p2120
(dp2121
VDaily_Science_Grade_5_Evan_Moor_17.jpeg
p2122
(lp2123
(dp2124
Vcategory
p2125
VQuestion
p2126
sg14
VA3TXJLD6JNR280
p2127
sVid
p2128
VT14
p2129
sa(dp2130
Vcategory
p2131
VQuestion
p2132
sg14
g2127
sVid
p2133
VT15
p2134
sa(dp2135
Vcategory
p2136
VQuestion
p2137
sg14
g2127
sVid
p2138
VT16
p2139
sa(dp2140
Vcategory
p2141
VQuestion
p2142
sg14
g2127
sVid
p2143
VT17
p2144
sa(dp2145
Vcategory
p2146
VQuestion
p2147
sg14
g2127
sVid
p2148
VT10
p2149
sa(dp2150
Vcategory
p2151
Vunlabeled
p2152
sg14
g2127
sVid
p2153
VT11
p2154
sa(dp2155
Vcategory
p2156
VDefinition
p2157
sg14
g2127
sVid
p2158
VT12
p2159
sa(dp2160
Vcategory
p2161
Vunlabeled
p2162
sg14
g2127
sVid
p2163
VT13
p2164
sa(dp2165
Vcategory
p2166
VQuestion
p2167
sg14
g2127
sVid
p2168
VT18
p2169
sa(dp2170
Vcategory
p2171
Vunlabeled
p2172
sg14
g2127
sVid
p2173
VT19
p2174
sa(dp2175
Vcategory
p2176
VDefinition
p2177
sg14
g2127
sVid
p2178
VT8
p2179
sa(dp2180
Vcategory
p2181
VDefinition
p2182
sg14
g2127
sVid
p2183
VT9
p2184
sa(dp2185
Vcategory
p2186
VDiscussion
p2187
sg14
g2127
sVid
p2188
VT6
p2189
sa(dp2190
Vcategory
p2191
Vunlabeled
p2192
sg14
g2127
sVid
p2193
VT7
p2194
sa(dp2195
Vcategory
p2196
VHeader/Topic
p2197
sg14
g2127
sVid
p2198
VT4
p2199
sa(dp2200
Vcategory
p2201
Vunlabeled
p2202
sg14
g2127
sVid
p2203
VT5
p2204
sa(dp2205
Vcategory
p2206
Vunlabeled
p2207
sg14
g2127
sVid
p2208
VT2
p2209
sa(dp2210
Vcategory
p2211
Vunlabeled
p2212
sg14
g2127
sVid
p2213
VT3
p2214
sa(dp2215
Vcategory
p2216
Vunlabeled
p2217
sg14
g2127
sVid
p2218
VT1
p2219
sa(dp2220
Vcategory
p2221
Vunlabeled
p2222
sg14
g2127
sVid
p2223
VT21
p2224
sa(dp2225
Vcategory
p2226
Vunlabeled
p2227
sg14
g2127
sVid
p2228
VT20
p2229
sa(dp2230
Vcategory
p2231
Vunlabeled
p2232
sg14
g2127
sVid
p2233
VT23
p2234
sa(dp2235
Vcategory
p2236
Vunlabeled
p2237
sg14
g2127
sVid
p2238
VT22
p2239
sassasV3EFNPKWBMSP2NCHTNE1ITHMELW3039
p2240
(lp2241
(dp2242
V34S9DKFK73Q9BV4I3717I79OWRHNYO
p2243
(dp2244
VDaily_Science_Grade_4_Evan_Moor_78.jpeg
p2245
(lp2246
(dp2247
Vcategory
p2248
Vunlabeled
p2249
sg14
VA3HSGURL7PBDIX
p2250
sVid
p2251
VT14
p2252
sa(dp2253
Vcategory
p2254
VQuestion
p2255
sg14
g2250
sVid
p2256
VT15
p2257
sa(dp2258
Vcategory
p2259
VQuestion
p2260
sg14
g2250
sVid
p2261
VT16
p2262
sa(dp2263
Vcategory
p2264
VQuestion
p2265
sg14
g2250
sVid
p2266
VT17
p2267
sa(dp2268
Vcategory
p2269
VDiscussion
p2270
sg14
g2250
sVid
p2271
VT10
p2272
sa(dp2273
Vcategory
p2274
VDefinition
p2275
sg14
g2250
sVid
p2276
VT11
p2277
sa(dp2278
Vcategory
p2279
VDiscussion
p2280
sg14
g2250
sVid
p2281
VT12
p2282
sa(dp2283
Vcategory
p2284
VDefinition
p2285
sg14
g2250
sVid
p2286
VT13
p2287
sa(dp2288
Vcategory
p2289
VQuestion
p2290
sg14
g2250
sVid
p2291
VT18
p2292
sa(dp2293
Vcategory
p2294
VQuestion
p2295
sg14
g2250
sVid
p2296
VT19
p2297
sa(dp2298
Vcategory
p2299
VDiscussion
p2300
sg14
g2250
sVid
p2301
VT8
p2302
sa(dp2303
Vcategory
p2304
VDefinition
p2305
sg14
g2250
sVid
p2306
VT9
p2307
sa(dp2308
Vcategory
p2309
VDiscussion
p2310
sg14
g2250
sVid
p2311
VT6
p2312
sa(dp2313
Vcategory
p2314
Vunlabeled
p2315
sg14
g2250
sVid
p2316
VT7
p2317
sa(dp2318
Vcategory
p2319
VHeader/Topic
p2320
sg14
g2250
sVid
p2321
VT4
p2322
sa(dp2323
Vcategory
p2324
Vunlabeled
p2325
sg14
g2250
sVid
p2326
VT5
p2327
sa(dp2328
Vcategory
p2329
Vunlabeled
p2330
sg14
g2250
sVid
p2331
VT2
p2332
sa(dp2333
Vcategory
p2334
Vunlabeled
p2335
sg14
g2250
sVid
p2336
VT3
p2337
sa(dp2338
Vcategory
p2339
Vunlabeled
p2340
sg14
g2250
sVid
p2341
VT1
p2342
sa(dp2343
Vcategory
p2344
VQuestion
p2345
sg14
g2250
sVid
p2346
VT21
p2347
sa(dp2348
Vcategory
p2349
VQuestion
p2350
sg14
g2250
sVid
p2351
VT20
p2352
sa(dp2353
Vcategory
p2354
Vunlabeled
p2355
sg14
g2250
sVid
p2356
VT23
p2357
sa(dp2358
Vcategory
p2359
Vunlabeled
p2360
sg14
g2250
sVid
p2361
VT22
p2362
sa(dp2363
Vcategory
p2364
Vunlabeled
p2365
sg14
g2250
sVid
p2366
VT25
p2367
sa(dp2368
Vcategory
p2369
Vunlabeled
p2370
sg14
g2250
sVid
p2371
VT24
p2372
sassa(dp2373
V3AMYWKA6YBNPAWUOY36SE5P0NRUO65
p2374
(dp2375
VDaily_Science_Grade_4_Evan_Moor_78.jpeg
p2376
(lp2377
(dp2378
Vcategory
p2379
VQuestion
p2380
sg14
VA2RSOGTSR83XKO
p2381
sVid
p2382
VT14
p2383
sa(dp2384
Vcategory
p2385
VQuestion
p2386
sg14
g2381
sVid
p2387
VT15
p2388
sa(dp2389
Vcategory
p2390
VQuestion
p2391
sg14
g2381
sVid
p2392
VT16
p2393
sa(dp2394
Vcategory
p2395
VQuestion
p2396
sg14
g2381
sVid
p2397
VT17
p2398
sa(dp2399
Vcategory
p2400
VDiscussion
p2401
sg14
g2381
sVid
p2402
VT10
p2403
sa(dp2404
Vcategory
p2405
VDefinition
p2406
sg14
g2381
sVid
p2407
VT11
p2408
sa(dp2409
Vcategory
p2410
VQuestion
p2411
sg14
g2381
sVid
p2412
VT12
p2413
sa(dp2414
Vcategory
p2415
VDefinition
p2416
sg14
g2381
sVid
p2417
VT13
p2418
sa(dp2419
Vcategory
p2420
VQuestion
p2421
sg14
g2381
sVid
p2422
VT18
p2423
sa(dp2424
Vcategory
p2425
VQuestion
p2426
sg14
g2381
sVid
p2427
VT19
p2428
sa(dp2429
Vcategory
p2430
VDiscussion
p2431
sg14
g2381
sVid
p2432
VT8
p2433
sa(dp2434
Vcategory
p2435
Vunlabeled
p2436
sg14
g2381
sVid
p2437
VT9
p2438
sa(dp2439
Vcategory
p2440
VDiscussion
p2441
sg14
g2381
sVid
p2442
VT6
p2443
sa(dp2444
Vcategory
p2445
Vunlabeled
p2446
sg14
g2381
sVid
p2447
VT7
p2448
sa(dp2449
Vcategory
p2450
VHeader/Topic
p2451
sg14
g2381
sVid
p2452
VT4
p2453
sa(dp2454
Vcategory
p2455
Vunlabeled
p2456
sg14
g2381
sVid
p2457
VT5
p2458
sa(dp2459
Vcategory
p2460
Vunlabeled
p2461
sg14
g2381
sVid
p2462
VT2
p2463
sa(dp2464
Vcategory
p2465
Vunlabeled
p2466
sg14
g2381
sVid
p2467
VT3
p2468
sa(dp2469
Vcategory
p2470
Vunlabeled
p2471
sg14
g2381
sVid
p2472
VT1
p2473
sa(dp2474
Vcategory
p2475
VQuestion
p2476
sg14
g2381
sVid
p2477
VT21
p2478
sa(dp2479
Vcategory
p2480
VQuestion
p2481
sg14
g2381
sVid
p2482
VT20
p2483
sa(dp2484
Vcategory
p2485
Vunlabeled
p2486
sg14
g2381
sVid
p2487
VT23
p2488
sa(dp2489
Vcategory
p2490
Vunlabeled
p2491
sg14
g2381
sVid
p2492
VT22
p2493
sa(dp2494
Vcategory
p2495
Vunlabeled
p2496
sg14
g2381
sVid
p2497
VT25
p2498
sa(dp2499
Vcategory
p2500
Vunlabeled
p2501
sg14
g2381
sVid
p2502
VT24
p2503
sassa(dp2504
V3RXCAC0YIRQOMXWE3ZQITACP20P8GK
p2505
(dp2506
VDaily_Science_Grade_4_Evan_Moor_78.jpeg
p2507
(lp2508
(dp2509
Vcategory
p2510
VQuestion
p2511
sg14
VAPLQSM4J9E6LR
p2512
sVid
p2513
VT14
p2514
sa(dp2515
Vcategory
p2516
VQuestion
p2517
sg14
g2512
sVid
p2518
VT15
p2519
sa(dp2520
Vcategory
p2521
VQuestion
p2522
sg14
g2512
sVid
p2523
VT16
p2524
sa(dp2525
Vcategory
p2526
VQuestion
p2527
sg14
g2512
sVid
p2528
VT17
p2529
sa(dp2530
Vcategory
p2531
VDiscussion
p2532
sg14
g2512
sVid
p2533
VT10
p2534
sa(dp2535
Vcategory
p2536
VDefinition
p2537
sg14
g2512
sVid
p2538
VT11
p2539
sa(dp2540
Vcategory
p2541
VQuestion
p2542
sg14
g2512
sVid
p2543
VT12
p2544
sa(dp2545
Vcategory
p2546
VDefinition
p2547
sg14
g2512
sVid
p2548
VT13
p2549
sa(dp2550
Vcategory
p2551
VQuestion
p2552
sg14
g2512
sVid
p2553
VT18
p2554
sa(dp2555
Vcategory
p2556
VQuestion
p2557
sg14
g2512
sVid
p2558
VT19
p2559
sa(dp2560
Vcategory
p2561
VDiscussion
p2562
sg14
g2512
sVid
p2563
VT8
p2564
sa(dp2565
Vcategory
p2566
VDefinition
p2567
sg14
g2512
sVid
p2568
VT9
p2569
sa(dp2570
Vcategory
p2571
VDiscussion
p2572
sg14
g2512
sVid
p2573
VT6
p2574
sa(dp2575
Vcategory
p2576
Vunlabeled
p2577
sg14
g2512
sVid
p2578
VT7
p2579
sa(dp2580
Vcategory
p2581
VHeader/Topic
p2582
sg14
g2512
sVid
p2583
VT4
p2584
sa(dp2585
Vcategory
p2586
Vunlabeled
p2587
sg14
g2512
sVid
p2588
VT5
p2589
sa(dp2590
Vcategory
p2591
Vunlabeled
p2592
sg14
g2512
sVid
p2593
VT2
p2594
sa(dp2595
Vcategory
p2596
Vunlabeled
p2597
sg14
g2512
sVid
p2598
VT3
p2599
sa(dp2600
Vcategory
p2601
Vunlabeled
p2602
sg14
g2512
sVid
p2603
VT1
p2604
sa(dp2605
Vcategory
p2606
VQuestion
p2607
sg14
g2512
sVid
p2608
VT21
p2609
sa(dp2610
Vcategory
p2611
VQuestion
p2612
sg14
g2512
sVid
p2613
VT20
p2614
sa(dp2615
Vcategory
p2616
Vunlabeled
p2617
sg14
g2512
sVid
p2618
VT23
p2619
sa(dp2620
Vcategory
p2621
Vunlabeled
p2622
sg14
g2512
sVid
p2623
VT22
p2624
sa(dp2625
Vcategory
p2626
Vunlabeled
p2627
sg14
g2512
sVid
p2628
VT25
p2629
sa(dp2630
Vcategory
p2631
Vunlabeled
p2632
sg14
g2512
sVid
p2633
VT24
p2634
sassasV3BS6ERDL938VJF55ISNBFRIHPCED6L
p2635
(lp2636
(dp2637
V3ZY8KE4ISJ4DAYM5EO64F20ZJLWVQ4
p2638
(dp2639
VDaily_Science_Grade_3_(Daily_Practice_Books)_Evan_Moore_165.jpeg
p2640
(lp2641
(dp2642
Vcategory
p2643
VDiscussion
p2644
sg14
VA3HSGURL7PBDIX
p2645
sVid
p2646
VT8
p2647
sa(dp2648
Vcategory
p2649
VDiscussion
p2650
sg14
g2645
sVid
p2651
VT9
p2652
sa(dp2653
Vcategory
p2654
VDiscussion
p2655
sg14
g2645
sVid
p2656
VT6
p2657
sa(dp2658
Vcategory
p2659
VHeader/Topic
p2660
sg14
g2645
sVid
p2661
VT7
p2662
sa(dp2663
Vcategory
p2664
VDiscussion
p2665
sg14
g2645
sVid
p2666
VT4
p2667
sa(dp2668
Vcategory
p2669
VAnswer
p2670
sg14
g2645
sVid
p2671
VT5
p2672
sa(dp2673
Vcategory
p2674
VHeader/Topic
p2675
sg14
g2645
sVid
p2676
VT2
p2677
sa(dp2678
Vcategory
p2679
Vunlabeled
p2680
sg14
g2645
sVid
p2681
VT3
p2682
sa(dp2683
Vcategory
p2684
Vunlabeled
p2685
sg14
g2645
sVid
p2686
VT1
p2687
sa(dp2688
Vcategory
p2689
VHeader/Topic
p2690
sg14
g2645
sVid
p2691
VT14
p2692
sa(dp2693
Vcategory
p2694
VDiscussion
p2695
sg14
g2645
sVid
p2696
VT15
p2697
sa(dp2698
Vcategory
p2699
VHeader/Topic
p2700
sg14
g2645
sVid
p2701
VT16
p2702
sa(dp2703
Vcategory
p2704
Vunlabeled
p2705
sg14
g2645
sVid
p2706
VT17
p2707
sa(dp2708
Vcategory
p2709
VHeader/Topic
p2710
sg14
g2645
sVid
p2711
VT10
p2712
sa(dp2713
Vcategory
p2714
VDiscussion
p2715
sg14
g2645
sVid
p2716
VT11
p2717
sa(dp2718
Vcategory
p2719
VDiscussion
p2720
sg14
g2645
sVid
p2721
VT12
p2722
sa(dp2723
Vcategory
p2724
Vunlabeled
p2725
sg14
g2645
sVid
p2726
VT13
p2727
sa(dp2728
Vcategory
p2729
Vunlabeled
p2730
sg14
g2645
sVid
p2731
VT21
p2732
sa(dp2733
Vcategory
p2734
Vunlabeled
p2735
sg14
g2645
sVid
p2736
VT20
p2737
sa(dp2738
Vcategory
p2739
VDiscussion
p2740
sg14
g2645
sVid
p2741
VT18
p2742
sa(dp2743
Vcategory
p2744
VHeader/Topic
p2745
sg14
g2645
sVid
p2746
VT19
p2747
sassa(dp2748
V3L70J4KAZGNZT1F2Y79OJGFNFWBADI
p2749
(dp2750
VDaily_Science_Grade_3_(Daily_Practice_Books)_Evan_Moore_165.jpeg
p2751
(lp2752
(dp2753
Vcategory
p2754
Vunlabeled
p2755
sg14
VA23DD2MEZFE7EU
p2756
sVid
p2757
VT8
p2758
sa(dp2759
Vcategory
p2760
VDiscussion
p2761
sg14
g2756
sVid
p2762
VT9
p2763
sa(dp2764
Vcategory
p2765
VDiscussion
p2766
sg14
g2756
sVid
p2767
VT6
p2768
sa(dp2769
Vcategory
p2770
VDiscussion
p2771
sg14
g2756
sVid
p2772
VT7
p2773
sa(dp2774
Vcategory
p2775
VDiscussion
p2776
sg14
g2756
sVid
p2777
VT4
p2778
sa(dp2779
Vcategory
p2780
VDiscussion
p2781
sg14
g2756
sVid
p2782
VT5
p2783
sa(dp2784
Vcategory
p2785
VHeader/Topic
p2786
sg14
g2756
sVid
p2787
VT2
p2788
sa(dp2789
Vcategory
p2790
Vunlabeled
p2791
sg14
g2756
sVid
p2792
VT3
p2793
sa(dp2794
Vcategory
p2795
Vunlabeled
p2796
sg14
g2756
sVid
p2797
VT1
p2798
sa(dp2799
Vcategory
p2800
VDiscussion
p2801
sg14
g2756
sVid
p2802
VT14
p2803
sa(dp2804
Vcategory
p2805
VDiscussion
p2806
sg14
g2756
sVid
p2807
VT15
p2808
sa(dp2809
Vcategory
p2810
VDiscussion
p2811
sg14
g2756
sVid
p2812
VT16
p2813
sa(dp2814
Vcategory
p2815
Vunlabeled
p2816
sg14
g2756
sVid
p2817
VT17
p2818
sa(dp2819
Vcategory
p2820
VDiscussion
p2821
sg14
g2756
sVid
p2822
VT10
p2823
sa(dp2824
Vcategory
p2825
Vunlabeled
p2826
sg14
g2756
sVid
p2827
VT11
p2828
sa(dp2829
Vcategory
p2830
VDiscussion
p2831
sg14
g2756
sVid
p2832
VT12
p2833
sa(dp2834
Vcategory
p2835
VDiscussion
p2836
sg14
g2756
sVid
p2837
VT13
p2838
sa(dp2839
Vcategory
p2840
Vunlabeled
p2841
sg14
g2756
sVid
p2842
VT21
p2843
sa(dp2844
Vcategory
p2845
Vunlabeled
p2846
sg14
g2756
sVid
p2847
VT20
p2848
sa(dp2849
Vcategory
p2850
VDiscussion
p2851
sg14
g2756
sVid
p2852
VT18
p2853
sa(dp2854
Vcategory
p2855
VDiscussion
p2856
sg14
g2756
sVid
p2857
VT19
p2858
sassa(dp2859
V3NGI5ARFTT6COA5S7X7Q8939PL6P1L
p2860
(dp2861
VDaily_Science_Grade_3_(Daily_Practice_Books)_Evan_Moore_165.jpeg
p2862
(lp2863
(dp2864
Vcategory
p2865
Vunlabeled
p2866
sg14
VAPLQSM4J9E6LR
p2867
sVid
p2868
VT8
p2869
sa(dp2870
Vcategory
p2871
VDiscussion
p2872
sg14
g2867
sVid
p2873
VT9
p2874
sa(dp2875
Vcategory
p2876
VDiscussion
p2877
sg14
g2867
sVid
p2878
VT6
p2879
sa(dp2880
Vcategory
p2881
Vunlabeled
p2882
sg14
g2867
sVid
p2883
VT7
p2884
sa(dp2885
Vcategory
p2886
VDiscussion
p2887
sg14
g2867
sVid
p2888
VT4
p2889
sa(dp2890
Vcategory
p2891
Vunlabeled
p2892
sg14
g2867
sVid
p2893
VT5
p2894
sa(dp2895
Vcategory
p2896
VHeader/Topic
p2897
sg14
g2867
sVid
p2898
VT2
p2899
sa(dp2900
Vcategory
p2901
Vunlabeled
p2902
sg14
g2867
sVid
p2903
VT3
p2904
sa(dp2905
Vcategory
p2906
Vunlabeled
p2907
sg14
g2867
sVid
p2908
VT1
p2909
sa(dp2910
Vcategory
p2911
Vunlabeled
p2912
sg14
g2867
sVid
p2913
VT14
p2914
sa(dp2915
Vcategory
p2916
VDiscussion
p2917
sg14
g2867
sVid
p2918
VT15
p2919
sa(dp2920
Vcategory
p2921
Vunlabeled
p2922
sg14
g2867
sVid
p2923
VT16
p2924
sa(dp2925
Vcategory
p2926
Vunlabeled
p2927
sg14
g2867
sVid
p2928
VT17
p2929
sa(dp2930
Vcategory
p2931
Vunlabeled
p2932
sg14
g2867
sVid
p2933
VT10
p2934
sa(dp2935
Vcategory
p2936
Vunlabeled
p2937
sg14
g2867
sVid
p2938
VT11
p2939
sa(dp2940
Vcategory
p2941
VDiscussion
p2942
sg14
g2867
sVid
p2943
VT12
p2944
sa(dp2945
Vcategory
p2946
Vunlabeled
p2947
sg14
g2867
sVid
p2948
VT13
p2949
sa(dp2950
Vcategory
p2951
Vunlabeled
p2952
sg14
g2867
sVid
p2953
VT21
p2954
sa(dp2955
Vcategory
p2956
Vunlabeled
p2957
sg14
g2867
sVid
p2958
VT20
p2959
sa(dp2960
Vcategory
p2961
VDiscussion
p2962
sg14
g2867
sVid
p2963
VT18
p2964
sa(dp2965
Vcategory
p2966
Vunlabeled
p2967
sg14
g2867
sVid
p2968
VT19
p2969
sassasV3GV1I4SEO9QEHRTXV9LZY4QMYLGL69
p2970
(lp2971
(dp2972
V3MD9PLUKKIF9GLENZT3QWEIQ2LBNZ5
p2973
(dp2974
VDaily_Science_Grade_4_Evan_Moor_149.jpeg
p2975
(lp2976
(dp2977
Vcategory
p2978
VFigure Label
p2979
sg14
VA333VJ2K6O6R79
p2980
sVid
p2981
VT14
p2982
sa(dp2983
Vcategory
p2984
VQuestion
p2985
sg14
g2980
sVid
p2986
VT15
p2987
sa(dp2988
Vcategory
p2989
VQuestion
p2990
sg14
g2980
sVid
p2991
VT16
p2992
sa(dp2993
Vcategory
p2994
VQuestion
p2995
sg14
g2980
sVid
p2996
VT17
p2997
sa(dp2998
Vcategory
p2999
Vunlabeled
p3000
sg14
g2980
sVid
p3001
VT10
p3002
sa(dp3003
Vcategory
p3004
VDefinition
p3005
sg14
g2980
sVid
p3006
VT11
p3007
sa(dp3008
Vcategory
p3009
VFigure Label
p3010
sg14
g2980
sVid
p3011
VT12
p3012
sa(dp3013
Vcategory
p3014
VFigure Label
p3015
sg14
g2980
sVid
p3016
VT13
p3017
sa(dp3018
Vcategory
p3019
VQuestion
p3020
sg14
g2980
sVid
p3021
VT18
p3022
sa(dp3023
Vcategory
p3024
VQuestion
p3025
sg14
g2980
sVid
p3026
VT19
p3027
sa(dp3028
Vcategory
p3029
Vunlabeled
p3030
sg14
g2980
sVid
p3031
VT8
p3032
sa(dp3033
Vcategory
p3034
Vunlabeled
p3035
sg14
g2980
sVid
p3036
VT9
p3037
sa(dp3038
Vcategory
p3039
Vunlabeled
p3040
sg14
g2980
sVid
p3041
VT6
p3042
sa(dp3043
Vcategory
p3044
VDiscussion
p3045
sg14
g2980
sVid
p3046
VT7
p3047
sa(dp3048
Vcategory
p3049
VHeader/Topic
p3050
sg14
g2980
sVid
p3051
VT4
p3052
sa(dp3053
Vcategory
p3054
Vunlabeled
p3055
sg14
g2980
sVid
p3056
VT5
p3057
sa(dp3058
Vcategory
p3059
Vunlabeled
p3060
sg14
g2980
sVid
p3061
VT2
p3062
sa(dp3063
Vcategory
p3064
Vunlabeled
p3065
sg14
g2980
sVid
p3066
VT3
p3067
sa(dp3068
Vcategory
p3069
Vunlabeled
p3070
sg14
g2980
sVid
p3071
VT1
p3072
sa(dp3073
Vcategory
p3074
Vunlabeled
p3075
sg14
g2980
sVid
p3076
VT28
p3077
sa(dp3078
Vcategory
p3079
VQuestion
p3080
sg14
g2980
sVid
p3081
VT21
p3082
sa(dp3083
Vcategory
p3084
VQuestion
p3085
sg14
g2980
sVid
p3086
VT20
p3087
sa(dp3088
Vcategory
p3089
VQuestion
p3090
sg14
g2980
sVid
p3091
VT23
p3092
sa(dp3093
Vcategory
p3094
VQuestion
p3095
sg14
g2980
sVid
p3096
VT22
p3097
sa(dp3098
Vcategory
p3099
VQuestion
p3100
sg14
g2980
sVid
p3101
VT25
p3102
sa(dp3103
Vcategory
p3104
VQuestion
p3105
sg14
g2980
sVid
p3106
VT24
p3107
sa(dp3108
Vcategory
p3109
Vunlabeled
p3110
sg14
g2980
sVid
p3111
VT27
p3112
sa(dp3113
Vcategory
p3114
Vunlabeled
p3115
sg14
g2980
sVid
p3116
VT26
p3117
sassa(dp3118
V3180JW2OT4DFQH3DD74IE3UES255JJ
p3119
(dp3120
VDaily_Science_Grade_4_Evan_Moor_149.jpeg
p3121
(lp3122
(dp3123
Vcategory
p3124
Vunlabeled
p3125
sg14
VA16EEWCUQK9LM2
p3126
sVid
p3127
VT14
p3128
sa(dp3129
Vcategory
p3130
VDiscussion
p3131
sg14
g3126
sVid
p3132
VT15
p3133
sa(dp3134
Vcategory
p3135
VDiscussion
p3136
sg14
g3126
sVid
p3137
VT16
p3138
sa(dp3139
Vcategory
p3140
VDiscussion
p3141
sg14
g3126
sVid
p3142
VT17
p3143
sa(dp3144
Vcategory
p3145
Vunlabeled
p3146
sg14
g3126
sVid
p3147
VT10
p3148
sa(dp3149
Vcategory
p3150
VDefinition
p3151
sg14
g3126
sVid
p3152
VT11
p3153
sa(dp3154
Vcategory
p3155
Vunlabeled
p3156
sg14
g3126
sVid
p3157
VT12
p3158
sa(dp3159
Vcategory
p3160
Vunlabeled
p3161
sg14
g3126
sVid
p3162
VT13
p3163
sa(dp3164
Vcategory
p3165
VDiscussion
p3166
sg14
g3126
sVid
p3167
VT18
p3168
sa(dp3169
Vcategory
p3170
VDiscussion
p3171
sg14
g3126
sVid
p3172
VT19
p3173
sa(dp3174
Vcategory
p3175
Vunlabeled
p3176
sg14
g3126
sVid
p3177
VT8
p3178
sa(dp3179
Vcategory
p3180
Vunlabeled
p3181
sg14
g3126
sVid
p3182
VT9
p3183
sa(dp3184
Vcategory
p3185
Vunlabeled
p3186
sg14
g3126
sVid
p3187
VT6
p3188
sa(dp3189
Vcategory
p3190
VAnswer
p3191
sg14
g3126
sVid
p3192
VT7
p3193
sa(dp3194
Vcategory
p3195
VQuestion
p3196
sg14
g3126
sVid
p3197
VT4
p3198
sa(dp3199
Vcategory
p3200
Vunlabeled
p3201
sg14
g3126
sVid
p3202
VT5
p3203
sa(dp3204
Vcategory
p3205
Vunlabeled
p3206
sg14
g3126
sVid
p3207
VT2
p3208
sa(dp3209
Vcategory
p3210
Vunlabeled
p3211
sg14
g3126
sVid
p3212
VT3
p3213
sa(dp3214
Vcategory
p3215
Vunlabeled
p3216
sg14
g3126
sVid
p3217
VT1
p3218
sa(dp3219
Vcategory
p3220
Vunlabeled
p3221
sg14
g3126
sVid
p3222
VT28
p3223
sa(dp3224
Vcategory
p3225
VDiscussion
p3226
sg14
g3126
sVid
p3227
VT21
p3228
sa(dp3229
Vcategory
p3230
VDiscussion
p3231
sg14
g3126
sVid
p3232
VT20
p3233
sa(dp3234
Vcategory
p3235
VDiscussion
p3236
sg14
g3126
sVid
p3237
VT23
p3238
sa(dp3239
Vcategory
p3240
Vunlabeled
p3241
sg14
g3126
sVid
p3242
VT22
p3243
sa(dp3244
Vcategory
p3245
VDiscussion
p3246
sg14
g3126
sVid
p3247
VT25
p3248
sa(dp3249
Vcategory
p3250
VDiscussion
p3251
sg14
g3126
sVid
p3252
VT24
p3253
sa(dp3254
Vcategory
p3255
VDiscussion
p3256
sg14
g3126
sVid
p3257
VT27
p3258
sa(dp3259
Vcategory
p3260
VDiscussion
p3261
sg14
g3126
sVid
p3262
VT26
p3263
sassa(dp3264
V31IBVUNM9S0GJ9WW08VA33WLCJRFVY
p3265
(dp3266
VDaily_Science_Grade_4_Evan_Moor_149.jpeg
p3267
(lp3268
(dp3269
Vcategory
p3270
Vunlabeled
p3271
sg14
VA3TXJLD6JNR280
p3272
sVid
p3273
VT14
p3274
sa(dp3275
Vcategory
p3276
VQuestion
p3277
sg14
g3272
sVid
p3278
VT15
p3279
sa(dp3280
Vcategory
p3281
VQuestion
p3282
sg14
g3272
sVid
p3283
VT16
p3284
sa(dp3285
Vcategory
p3286
VQuestion
p3287
sg14
g3272
sVid
p3288
VT17
p3289
sa(dp3290
Vcategory
p3291
VDefinition
p3292
sg14
g3272
sVid
p3293
VT10
p3294
sa(dp3295
Vcategory
p3296
VDefinition
p3297
sg14
g3272
sVid
p3298
VT11
p3299
sa(dp3300
Vcategory
p3301
Vunlabeled
p3302
sg14
g3272
sVid
p3303
VT12
p3304
sa(dp3305
Vcategory
p3306
Vunlabeled
p3307
sg14
g3272
sVid
p3308
VT13
p3309
sa(dp3310
Vcategory
p3311
VQuestion
p3312
sg14
g3272
sVid
p3313
VT18
p3314
sa(dp3315
Vcategory
p3316
VQuestion
p3317
sg14
g3272
sVid
p3318
VT19
p3319
sa(dp3320
Vcategory
p3321
Vunlabeled
p3322
sg14
g3272
sVid
p3323
VT8
p3324
sa(dp3325
Vcategory
p3326
Vunlabeled
p3327
sg14
g3272
sVid
p3328
VT9
p3329
sa(dp3330
Vcategory
p3331
Vunlabeled
p3332
sg14
g3272
sVid
p3333
VT6
p3334
sa(dp3335
Vcategory
p3336
VDiscussion
p3337
sg14
g3272
sVid
p3338
VT7
p3339
sa(dp3340
Vcategory
p3341
VHeader/Topic
p3342
sg14
g3272
sVid
p3343
VT4
p3344
sa(dp3345
Vcategory
p3346
Vunlabeled
p3347
sg14
g3272
sVid
p3348
VT5
p3349
sa(dp3350
Vcategory
p3351
Vunlabeled
p3352
sg14
g3272
sVid
p3353
VT2
p3354
sa(dp3355
Vcategory
p3356
Vunlabeled
p3357
sg14
g3272
sVid
p3358
VT3
p3359
sa(dp3360
Vcategory
p3361
Vunlabeled
p3362
sg14
g3272
sVid
p3363
VT1
p3364
sa(dp3365
Vcategory
p3366
Vunlabeled
p3367
sg14
g3272
sVid
p3368
VT28
p3369
sa(dp3370
Vcategory
p3371
VQuestion
p3372
sg14
g3272
sVid
p3373
VT21
p3374
sa(dp3375
Vcategory
p3376
VQuestion
p3377
sg14
g3272
sVid
p3378
VT20
p3379
sa(dp3380
Vcategory
p3381
VQuestion
p3382
sg14
g3272
sVid
p3383
VT23
p3384
sa(dp3385
Vcategory
p3386
VQuestion
p3387
sg14
g3272
sVid
p3388
VT22
p3389
sa(dp3390
Vcategory
p3391
VQuestion
p3392
sg14
g3272
sVid
p3393
VT25
p3394
sa(dp3395
Vcategory
p3396
VQuestion
p3397
sg14
g3272
sVid
p3398
VT24
p3399
sa(dp3400
Vcategory
p3401
Vunlabeled
p3402
sg14
g3272
sVid
p3403
VT27
p3404
sa(dp3405
Vcategory
p3406
Vunlabeled
p3407
sg14
g3272
sVid
p3408
VT26
p3409
sassasV3SX4X51T80ANAE8XYEI36QW2P9BAO5
p3410
(lp3411
(dp3412
V3H7XDTSHKCSZCYSW126O7QFBK7TGW8
p3413
(dp3414
VDaily_Science_Grade_5_Evan_Moor_93.jpeg
p3415
(lp3416
(dp3417
Vcategory
p3418
VQuestion
p3419
sg14
VA3OKWRLKLYVH4F
p3420
sVid
p3421
VT14
p3422
sa(dp3423
Vcategory
p3424
VQuestion
p3425
sg14
g3420
sVid
p3426
VT15
p3427
sa(dp3428
Vcategory
p3429
VQuestion
p3430
sg14
g3420
sVid
p3431
VT16
p3432
sa(dp3433
Vcategory
p3434
VQuestion
p3435
sg14
g3420
sVid
p3436
VT17
p3437
sa(dp3438
Vcategory
p3439
VQuestion
p3440
sg14
g3420
sVid
p3441
VT10
p3442
sa(dp3443
Vcategory
p3444
VQuestion
p3445
sg14
g3420
sVid
p3446
VT11
p3447
sa(dp3448
Vcategory
p3449
VQuestion
p3450
sg14
g3420
sVid
p3451
VT12
p3452
sa(dp3453
Vcategory
p3454
VQuestion
p3455
sg14
g3420
sVid
p3456
VT13
p3457
sa(dp3458
Vcategory
p3459
VQuestion
p3460
sg14
g3420
sVid
p3461
VT18
p3462
sa(dp3463
Vcategory
p3464
VQuestion
p3465
sg14
g3420
sVid
p3466
VT19
p3467
sa(dp3468
Vcategory
p3469
Vunlabeled
p3470
sg14
g3420
sVid
p3471
VT30
p3472
sa(dp3473
Vcategory
p3474
Vunlabeled
p3475
sg14
g3420
sVid
p3476
VT31
p3477
sa(dp3478
Vcategory
p3479
Vunlabeled
p3480
sg14
g3420
sVid
p3481
VT32
p3482
sa(dp3483
Vcategory
p3484
Vunlabeled
p3485
sg14
g3420
sVid
p3486
VT8
p3487
sa(dp3488
Vcategory
p3489
VQuestion
p3490
sg14
g3420
sVid
p3491
VT9
p3492
sa(dp3493
Vcategory
p3494
Vunlabeled
p3495
sg14
g3420
sVid
p3496
VT6
p3497
sa(dp3498
Vcategory
p3499
VQuestion
p3500
sg14
g3420
sVid
p3501
VT7
p3502
sa(dp3503
Vcategory
p3504
VHeader/Topic
p3505
sg14
g3420
sVid
p3506
VT4
p3507
sa(dp3508
Vcategory
p3509
Vunlabeled
p3510
sg14
g3420
sVid
p3511
VT5
p3512
sa(dp3513
Vcategory
p3514
Vunlabeled
p3515
sg14
g3420
sVid
p3516
VT2
p3517
sa(dp3518
Vcategory
p3519
Vunlabeled
p3520
sg14
g3420
sVid
p3521
VT3
p3522
sa(dp3523
Vcategory
p3524
Vunlabeled
p3525
sg14
g3420
sVid
p3526
VT1
p3527
sa(dp3528
Vcategory
p3529
Vunlabeled
p3530
sg14
g3420
sVid
p3531
VT29
p3532
sa(dp3533
Vcategory
p3534
Vunlabeled
p3535
sg14
g3420
sVid
p3536
VT28
p3537
sa(dp3538
Vcategory
p3539
VQuestion
p3540
sg14
g3420
sVid
p3541
VT21
p3542
sa(dp3543
Vcategory
p3544
VQuestion
p3545
sg14
g3420
sVid
p3546
VT20
p3547
sa(dp3548
Vcategory
p3549
VQuestion
p3550
sg14
g3420
sVid
p3551
VT23
p3552
sa(dp3553
Vcategory
p3554
VQuestion
p3555
sg14
g3420
sVid
p3556
VT22
p3557
sa(dp3558
Vcategory
p3559
VQuestion
p3560
sg14
g3420
sVid
p3561
VT25
p3562
sa(dp3563
Vcategory
p3564
VQuestion
p3565
sg14
g3420
sVid
p3566
VT24
p3567
sa(dp3568
Vcategory
p3569
VQuestion
p3570
sg14
g3420
sVid
p3571
VT27
p3572
sa(dp3573
Vcategory
p3574
VQuestion
p3575
sg14
g3420
sVid
p3576
VT26
p3577
sassa(dp3578
V3EA3QWIZ4IWLG8UXWL1G5ILSVQ4ITD
p3579
(dp3580
VDaily_Science_Grade_5_Evan_Moor_93.jpeg
p3581
(lp3582
(dp3583
Vcategory
p3584
VAnswer
p3585
sg14
VA3I9WD8P9RBFHR
p3586
sVid
p3587
VT14
p3588
sa(dp3589
Vcategory
p3590
VQuestion
p3591
sg14
g3586
sVid
p3592
VT15
p3593
sa(dp3594
Vcategory
p3595
VAnswer
p3596
sg14
g3586
sVid
p3597
VT16
p3598
sa(dp3599
Vcategory
p3600
VAnswer
p3601
sg14
g3586
sVid
p3602
VT17
p3603
sa(dp3604
Vcategory
p3605
VQuestion
p3606
sg14
g3586
sVid
p3607
VT10
p3608
sa(dp3609
Vcategory
p3610
VAnswer
p3611
sg14
g3586
sVid
p3612
VT11
p3613
sa(dp3614
Vcategory
p3615
VAnswer
p3616
sg14
g3586
sVid
p3617
VT12
p3618
sa(dp3619
Vcategory
p3620
VQuestion
p3621
sg14
g3586
sVid
p3622
VT13
p3623
sa(dp3624
Vcategory
p3625
VQuestion
p3626
sg14
g3586
sVid
p3627
VT18
p3628
sa(dp3629
Vcategory
p3630
VAnswer
p3631
sg14
g3586
sVid
p3632
VT19
p3633
sa(dp3634
Vcategory
p3635
Vunlabeled
p3636
sg14
g3586
sVid
p3637
VT30
p3638
sa(dp3639
Vcategory
p3640
Vunlabeled
p3641
sg14
g3586
sVid
p3642
VT31
p3643
sa(dp3644
Vcategory
p3645
Vunlabeled
p3646
sg14
g3586
sVid
p3647
VT32
p3648
sa(dp3649
Vcategory
p3650
Vunlabeled
p3651
sg14
g3586
sVid
p3652
VT8
p3653
sa(dp3654
Vcategory
p3655
VAnswer
p3656
sg14
g3586
sVid
p3657
VT9
p3658
sa(dp3659
Vcategory
p3660
Vunlabeled
p3661
sg14
g3586
sVid
p3662
VT6
p3663
sa(dp3664
Vcategory
p3665
VQuestion
p3666
sg14
g3586
sVid
p3667
VT7
p3668
sa(dp3669
Vcategory
p3670
VHeader/Topic
p3671
sg14
g3586
sVid
p3672
VT4
p3673
sa(dp3674
Vcategory
p3675
Vunlabeled
p3676
sg14
g3586
sVid
p3677
VT5
p3678
sa(dp3679
Vcategory
p3680
Vunlabeled
p3681
sg14
g3586
sVid
p3682
VT2
p3683
sa(dp3684
Vcategory
p3685
Vunlabeled
p3686
sg14
g3586
sVid
p3687
VT3
p3688
sa(dp3689
Vcategory
p3690
Vunlabeled
p3691
sg14
g3586
sVid
p3692
VT1
p3693
sa(dp3694
Vcategory
p3695
Vunlabeled
p3696
sg14
g3586
sVid
p3697
VT29
p3698
sa(dp3699
Vcategory
p3700
Vunlabeled
p3701
sg14
g3586
sVid
p3702
VT28
p3703
sa(dp3704
Vcategory
p3705
VAnswer
p3706
sg14
g3586
sVid
p3707
VT21
p3708
sa(dp3709
Vcategory
p3710
VAnswer
p3711
sg14
g3586
sVid
p3712
VT20
p3713
sa(dp3714
Vcategory
p3715
VAnswer
p3716
sg14
g3586
sVid
p3717
VT23
p3718
sa(dp3719
Vcategory
p3720
VQuestion
p3721
sg14
g3586
sVid
p3722
VT22
p3723
sa(dp3724
Vcategory
p3725
VQuestion
p3726
sg14
g3586
sVid
p3727
VT25
p3728
sa(dp3729
Vcategory
p3730
VAnswer
p3731
sg14
g3586
sVid
p3732
VT24
p3733
sa(dp3734
Vcategory
p3735
VAnswer
p3736
sg14
g3586
sVid
p3737
VT27
p3738
sa(dp3739
Vcategory
p3740
VAnswer
p3741
sg14
g3586
sVid
p3742
VT26
p3743
sassa(dp3744
V36V4Q8R5ZK1UKBSW0W5DS6HMTTPQMQ
p3745
(dp3746
VDaily_Science_Grade_5_Evan_Moor_93.jpeg
p3747
(lp3748
(dp3749
Vcategory
p3750
VQuestion
p3751
sg14
VA3KIE6ZNXVEIAY
p3752
sVid
p3753
VT14
p3754
sa(dp3755
Vcategory
p3756
VQuestion
p3757
sg14
g3752
sVid
p3758
VT15
p3759
sa(dp3760
Vcategory
p3761
VQuestion
p3762
sg14
g3752
sVid
p3763
VT16
p3764
sa(dp3765
Vcategory
p3766
VQuestion
p3767
sg14
g3752
sVid
p3768
VT17
p3769
sa(dp3770
Vcategory
p3771
VQuestion
p3772
sg14
g3752
sVid
p3773
VT10
p3774
sa(dp3775
Vcategory
p3776
VQuestion
p3777
sg14
g3752
sVid
p3778
VT11
p3779
sa(dp3780
Vcategory
p3781
VQuestion
p3782
sg14
g3752
sVid
p3783
VT12
p3784
sa(dp3785
Vcategory
p3786
VQuestion
p3787
sg14
g3752
sVid
p3788
VT13
p3789
sa(dp3790
Vcategory
p3791
VQuestion
p3792
sg14
g3752
sVid
p3793
VT18
p3794
sa(dp3795
Vcategory
p3796
VQuestion
p3797
sg14
g3752
sVid
p3798
VT19
p3799
sa(dp3800
Vcategory
p3801
Vunlabeled
p3802
sg14
g3752
sVid
p3803
VT30
p3804
sa(dp3805
Vcategory
p3806
Vunlabeled
p3807
sg14
g3752
sVid
p3808
VT31
p3809
sa(dp3810
Vcategory
p3811
Vunlabeled
p3812
sg14
g3752
sVid
p3813
VT32
p3814
sa(dp3815
Vcategory
p3816
Vunlabeled
p3817
sg14
g3752
sVid
p3818
VT8
p3819
sa(dp3820
Vcategory
p3821
VQuestion
p3822
sg14
g3752
sVid
p3823
VT9
p3824
sa(dp3825
Vcategory
p3826
Vunlabeled
p3827
sg14
g3752
sVid
p3828
VT6
p3829
sa(dp3830
Vcategory
p3831
VQuestion
p3832
sg14
g3752
sVid
p3833
VT7
p3834
sa(dp3835
Vcategory
p3836
VHeader/Topic
p3837
sg14
g3752
sVid
p3838
VT4
p3839
sa(dp3840
Vcategory
p3841
Vunlabeled
p3842
sg14
g3752
sVid
p3843
VT5
p3844
sa(dp3845
Vcategory
p3846
Vunlabeled
p3847
sg14
g3752
sVid
p3848
VT2
p3849
sa(dp3850
Vcategory
p3851
Vunlabeled
p3852
sg14
g3752
sVid
p3853
VT3
p3854
sa(dp3855
Vcategory
p3856
Vunlabeled
p3857
sg14
g3752
sVid
p3858
VT1
p3859
sa(dp3860
Vcategory
p3861
Vunlabeled
p3862
sg14
g3752
sVid
p3863
VT29
p3864
sa(dp3865
Vcategory
p3866
Vunlabeled
p3867
sg14
g3752
sVid
p3868
VT28
p3869
sa(dp3870
Vcategory
p3871
VQuestion
p3872
sg14
g3752
sVid
p3873
VT21
p3874
sa(dp3875
Vcategory
p3876
VQuestion
p3877
sg14
g3752
sVid
p3878
VT20
p3879
sa(dp3880
Vcategory
p3881
VQuestion
p3882
sg14
g3752
sVid
p3883
VT23
p3884
sa(dp3885
Vcategory
p3886
VQuestion
p3887
sg14
g3752
sVid
p3888
VT22
p3889
sa(dp3890
Vcategory
p3891
VQuestion
p3892
sg14
g3752
sVid
p3893
VT25
p3894
sa(dp3895
Vcategory
p3896
VQuestion
p3897
sg14
g3752
sVid
p3898
VT24
p3899
sa(dp3900
Vcategory
p3901
VQuestion
p3902
sg14
g3752
sVid
p3903
VT27
p3904
sa(dp3905
Vcategory
p3906
VQuestion
p3907
sg14
g3752
sVid
p3908
VT26
p3909
sassasV3XBXDSS888KR06DTWWUPYH36VPFLX3
p3910
(lp3911
(dp3912
V3KB8R4ZV1E87OVUL6BASKC2QA6EBGQ
p3913
(dp3914
VDaily_Science_Grade_6_(Daily_Practice_Books)_Evan_Moor_148.jpeg
p3915
(lp3916
(dp3917
Vcategory
p3918
Vunlabeled
p3919
sg14
VA230N919X9GWNN
p3920
sVid
p3921
VT14
p3922
sa(dp3923
Vcategory
p3924
VFigure Label
p3925
sg14
g3920
sVid
p3926
VT15
p3927
sa(dp3928
Vcategory
p3929
VFigure Label
p3930
sg14
g3920
sVid
p3931
VT16
p3932
sa(dp3933
Vcategory
p3934
VQuestion
p3935
sg14
g3920
sVid
p3936
VT17
p3937
sa(dp3938
Vcategory
p3939
VDefinition
p3940
sg14
g3920
sVid
p3941
VT10
p3942
sa(dp3943
Vcategory
p3944
Vunlabeled
p3945
sg14
g3920
sVid
p3946
VT11
p3947
sa(dp3948
Vcategory
p3949
Vunlabeled
p3950
sg14
g3920
sVid
p3951
VT12
p3952
sa(dp3953
Vcategory
p3954
VFigure Label
p3955
sg14
g3920
sVid
p3956
VT13
p3957
sa(dp3958
Vcategory
p3959
VQuestion
p3960
sg14
g3920
sVid
p3961
VT18
p3962
sa(dp3963
Vcategory
p3964
VQuestion
p3965
sg14
g3920
sVid
p3966
VT19
p3967
sa(dp3968
Vcategory
p3969
Vunlabeled
p3970
sg14
g3920
sVid
p3971
VT8
p3972
sa(dp3973
Vcategory
p3974
VDefinition
p3975
sg14
g3920
sVid
p3976
VT9
p3977
sa(dp3978
Vcategory
p3979
VDiscussion
p3980
sg14
g3920
sVid
p3981
VT6
p3982
sa(dp3983
Vcategory
p3984
Vunlabeled
p3985
sg14
g3920
sVid
p3986
VT7
p3987
sa(dp3988
Vcategory
p3989
VHeader/Topic
p3990
sg14
g3920
sVid
p3991
VT4
p3992
sa(dp3993
Vcategory
p3994
Vunlabeled
p3995
sg14
g3920
sVid
p3996
VT5
p3997
sa(dp3998
Vcategory
p3999
Vunlabeled
p4000
sg14
g3920
sVid
p4001
VT2
p4002
sa(dp4003
Vcategory
p4004
Vunlabeled
p4005
sg14
g3920
sVid
p4006
VT3
p4007
sa(dp4008
Vcategory
p4009
Vunlabeled
p4010
sg14
g3920
sVid
p4011
VT1
p4012
sa(dp4013
Vcategory
p4014
Vunlabeled
p4015
sg14
g3920
sVid
p4016
VT21
p4017
sa(dp4018
Vcategory
p4019
VQuestion
p4020
sg14
g3920
sVid
p4021
VT20
p4022
sa(dp4023
Vcategory
p4024
Vunlabeled
p4025
sg14
g3920
sVid
p4026
VT23
p4027
sa(dp4028
Vcategory
p4029
Vunlabeled
p4030
sg14
g3920
sVid
p4031
VT22
p4032
sassa(dp4033
V32SCWG5HIH57VW6PD3J735UQXWS6P6
p4034
(dp4035
VDaily_Science_Grade_6_(Daily_Practice_Books)_Evan_Moor_148.jpeg
p4036
(lp4037
(dp4038
Vcategory
p4039
Vunlabeled
p4040
sg14
VA2RSOGTSR83XKO
p4041
sVid
p4042
VT14
p4043
sa(dp4044
Vcategory
p4045
VFigure Label
p4046
sg14
g4041
sVid
p4047
VT15
p4048
sa(dp4049
Vcategory
p4050
VFigure Label
p4051
sg14
g4041
sVid
p4052
VT16
p4053
sa(dp4054
Vcategory
p4055
VQuestion
p4056
sg14
g4041
sVid
p4057
VT17
p4058
sa(dp4059
Vcategory
p4060
VDefinition
p4061
sg14
g4041
sVid
p4062
VT10
p4063
sa(dp4064
Vcategory
p4065
Vunlabeled
p4066
sg14
g4041
sVid
p4067
VT11
p4068
sa(dp4069
Vcategory
p4070
Vunlabeled
p4071
sg14
g4041
sVid
p4072
VT12
p4073
sa(dp4074
Vcategory
p4075
VFigure Label
p4076
sg14
g4041
sVid
p4077
VT13
p4078
sa(dp4079
Vcategory
p4080
VQuestion
p4081
sg14
g4041
sVid
p4082
VT18
p4083
sa(dp4084
Vcategory
p4085
VQuestion
p4086
sg14
g4041
sVid
p4087
VT19
p4088
sa(dp4089
Vcategory
p4090
Vunlabeled
p4091
sg14
g4041
sVid
p4092
VT8
p4093
sa(dp4094
Vcategory
p4095
VDefinition
p4096
sg14
g4041
sVid
p4097
VT9
p4098
sa(dp4099
Vcategory
p4100
VDiscussion
p4101
sg14
g4041
sVid
p4102
VT6
p4103
sa(dp4104
Vcategory
p4105
Vunlabeled
p4106
sg14
g4041
sVid
p4107
VT7
p4108
sa(dp4109
Vcategory
p4110
VHeader/Topic
p4111
sg14
g4041
sVid
p4112
VT4
p4113
sa(dp4114
Vcategory
p4115
Vunlabeled
p4116
sg14
g4041
sVid
p4117
VT5
p4118
sa(dp4119
Vcategory
p4120
Vunlabeled
p4121
sg14
g4041
sVid
p4122
VT2
p4123
sa(dp4124
Vcategory
p4125
Vunlabeled
p4126
sg14
g4041
sVid
p4127
VT3
p4128
sa(dp4129
Vcategory
p4130
Vunlabeled
p4131
sg14
g4041
sVid
p4132
VT1
p4133
sa(dp4134
Vcategory
p4135
Vunlabeled
p4136
sg14
g4041
sVid
p4137
VT21
p4138
sa(dp4139
Vcategory
p4140
VQuestion
p4141
sg14
g4041
sVid
p4142
VT20
p4143
sa(dp4144
Vcategory
p4145
Vunlabeled
p4146
sg14
g4041
sVid
p4147
VT23
p4148
sa(dp4149
Vcategory
p4150
Vunlabeled
p4151
sg14
g4041
sVid
p4152
VT22
p4153
sassa(dp4154
V3X08E93BHVJZLQOKY7KYX5392R166Z
p4155
(dp4156
VDaily_Science_Grade_6_(Daily_Practice_Books)_Evan_Moor_148.jpeg
p4157
(lp4158
(dp4159
Vcategory
p4160
Vunlabeled
p4161
sg14
VA3TXJLD6JNR280
p4162
sVid
p4163
VT14
p4164
sa(dp4165
Vcategory
p4166
VFigure Label
p4167
sg14
g4162
sVid
p4168
VT15
p4169
sa(dp4170
Vcategory
p4171
VFigure Label
p4172
sg14
g4162
sVid
p4173
VT16
p4174
sa(dp4175
Vcategory
p4176
VQuestion
p4177
sg14
g4162
sVid
p4178
VT17
p4179
sa(dp4180
Vcategory
p4181
VDefinition
p4182
sg14
g4162
sVid
p4183
VT10
p4184
sa(dp4185
Vcategory
p4186
Vunlabeled
p4187
sg14
g4162
sVid
p4188
VT11
p4189
sa(dp4190
Vcategory
p4191
Vunlabeled
p4192
sg14
g4162
sVid
p4193
VT12
p4194
sa(dp4195
Vcategory
p4196
VFigure Label
p4197
sg14
g4162
sVid
p4198
VT13
p4199
sa(dp4200
Vcategory
p4201
VQuestion
p4202
sg14
g4162
sVid
p4203
VT18
p4204
sa(dp4205
Vcategory
p4206
VQuestion
p4207
sg14
g4162
sVid
p4208
VT19
p4209
sa(dp4210
Vcategory
p4211
VDefinition
p4212
sg14
g4162
sVid
p4213
VT8
p4214
sa(dp4215
Vcategory
p4216
VDefinition
p4217
sg14
g4162
sVid
p4218
VT9
p4219
sa(dp4220
Vcategory
p4221
VDiscussion
p4222
sg14
g4162
sVid
p4223
VT6
p4224
sa(dp4225
Vcategory
p4226
Vunlabeled
p4227
sg14
g4162
sVid
p4228
VT7
p4229
sa(dp4230
Vcategory
p4231
VHeader/Topic
p4232
sg14
g4162
sVid
p4233
VT4
p4234
sa(dp4235
Vcategory
p4236
Vunlabeled
p4237
sg14
g4162
sVid
p4238
VT5
p4239
sa(dp4240
Vcategory
p4241
Vunlabeled
p4242
sg14
g4162
sVid
p4243
VT2
p4244
sa(dp4245
Vcategory
p4246
Vunlabeled
p4247
sg14
g4162
sVid
p4248
VT3
p4249
sa(dp4250
Vcategory
p4251
Vunlabeled
p4252
sg14
g4162
sVid
p4253
VT1
p4254
sa(dp4255
Vcategory
p4256
Vunlabeled
p4257
sg14
g4162
sVid
p4258
VT21
p4259
sa(dp4260
Vcategory
p4261
VQuestion
p4262
sg14
g4162
sVid
p4263
VT20
p4264
sa(dp4265
Vcategory
p4266
Vunlabeled
p4267
sg14
g4162
sVid
p4268
VT23
p4269
sa(dp4270
Vcategory
p4271
Vunlabeled
p4272
sg14
g4162
sVid
p4273
VT22
p4274
sassasV3V0TR1NRVA3J6LYFFU3USSQX8IC4AQ
p4275
(lp4276
(dp4277
V32ZKVD547FO6UJIXBW381IDH615B3E
p4278
(dp4279
VDaily_Science_Grade_6_(Daily_Practice_Books)_Evan_Moor_93.jpeg
p4280
(lp4281
(dp4282
Vcategory
p4283
VQuestion
p4284
sg14
VA03922113RU44GENR8ATX
p4285
sVid
p4286
VT14
p4287
sa(dp4288
Vcategory
p4289
VQuestion
p4290
sg14
g4285
sVid
p4291
VT15
p4292
sa(dp4293
Vcategory
p4294
VQuestion
p4295
sg14
g4285
sVid
p4296
VT16
p4297
sa(dp4298
Vcategory
p4299
VQuestion
p4300
sg14
g4285
sVid
p4301
VT17
p4302
sa(dp4303
Vcategory
p4304
VQuestion
p4305
sg14
g4285
sVid
p4306
VT10
p4307
sa(dp4308
Vcategory
p4309
VQuestion
p4310
sg14
g4285
sVid
p4311
VT11
p4312
sa(dp4313
Vcategory
p4314
VQuestion
p4315
sg14
g4285
sVid
p4316
VT12
p4317
sa(dp4318
Vcategory
p4319
VQuestion
p4320
sg14
g4285
sVid
p4321
VT13
p4322
sa(dp4323
Vcategory
p4324
Vunlabeled
p4325
sg14
g4285
sVid
p4326
VT34
p4327
sa(dp4328
Vcategory
p4329
Vunlabeled
p4330
sg14
g4285
sVid
p4331
VT35
p4332
sa(dp4333
Vcategory
p4334
VQuestion
p4335
sg14
g4285
sVid
p4336
VT18
p4337
sa(dp4338
Vcategory
p4339
VQuestion
p4340
sg14
g4285
sVid
p4341
VT19
p4342
sa(dp4343
Vcategory
p4344
VQuestion
p4345
sg14
g4285
sVid
p4346
VT30
p4347
sa(dp4348
Vcategory
p4349
VQuestion
p4350
sg14
g4285
sVid
p4351
VT31
p4352
sa(dp4353
Vcategory
p4354
Vunlabeled
p4355
sg14
g4285
sVid
p4356
VT32
p4357
sa(dp4358
Vcategory
p4359
Vunlabeled
p4360
sg14
g4285
sVid
p4361
VT33
p4362
sa(dp4363
Vcategory
p4364
Vunlabeled
p4365
sg14
g4285
sVid
p4366
VT8
p4367
sa(dp4368
Vcategory
p4369
VQuestion
p4370
sg14
g4285
sVid
p4371
VT9
p4372
sa(dp4373
Vcategory
p4374
Vunlabeled
p4375
sg14
g4285
sVid
p4376
VT6
p4377
sa(dp4378
Vcategory
p4379
VQuestion
p4380
sg14
g4285
sVid
p4381
VT7
p4382
sa(dp4383
Vcategory
p4384
VHeader/Topic
p4385
sg14
g4285
sVid
p4386
VT4
p4387
sa(dp4388
Vcategory
p4389
Vunlabeled
p4390
sg14
g4285
sVid
p4391
VT5
p4392
sa(dp4393
Vcategory
p4394
Vunlabeled
p4395
sg14
g4285
sVid
p4396
VT2
p4397
sa(dp4398
Vcategory
p4399
Vunlabeled
p4400
sg14
g4285
sVid
p4401
VT3
p4402
sa(dp4403
Vcategory
p4404
Vunlabeled
p4405
sg14
g4285
sVid
p4406
VT1
p4407
sa(dp4408
Vcategory
p4409
VQuestion
p4410
sg14
g4285
sVid
p4411
VT29
p4412
sa(dp4413
Vcategory
p4414
VQuestion
p4415
sg14
g4285
sVid
p4416
VT28
p4417
sa(dp4418
Vcategory
p4419
VQuestion
p4420
sg14
g4285
sVid
p4421
VT21
p4422
sa(dp4423
Vcategory
p4424
VQuestion
p4425
sg14
g4285
sVid
p4426
VT20
p4427
sa(dp4428
Vcategory
p4429
VQuestion
p4430
sg14
g4285
sVid
p4431
VT23
p4432
sa(dp4433
Vcategory
p4434
VQuestion
p4435
sg14
g4285
sVid
p4436
VT22
p4437
sa(dp4438
Vcategory
p4439
VQuestion
p4440
sg14
g4285
sVid
p4441
VT25
p4442
sa(dp4443
Vcategory
p4444
VQuestion
p4445
sg14
g4285
sVid
p4446
VT24
p4447
sa(dp4448
Vcategory
p4449
VQuestion
p4450
sg14
g4285
sVid
p4451
VT27
p4452
sa(dp4453
Vcategory
p4454
VQuestion
p4455
sg14
g4285
sVid
p4456
VT26
p4457
sassa(dp4458
V3IXEICO792K5NOZWUKSR8FVNMZCT6X
p4459
(dp4460
VDaily_Science_Grade_6_(Daily_Practice_Books)_Evan_Moor_93.jpeg
p4461
(lp4462
(dp4463
Vcategory
p4464
VQuestion
p4465
sg14
VA2RSOGTSR83XKO
p4466
sVid
p4467
VT14
p4468
sa(dp4469
Vcategory
p4470
VQuestion
p4471
sg14
g4466
sVid
p4472
VT15
p4473
sa(dp4474
Vcategory
p4475
VQuestion
p4476
sg14
g4466
sVid
p4477
VT16
p4478
sa(dp4479
Vcategory
p4480
VQuestion
p4481
sg14
g4466
sVid
p4482
VT17
p4483
sa(dp4484
Vcategory
p4485
VQuestion
p4486
sg14
g4466
sVid
p4487
VT10
p4488
sa(dp4489
Vcategory
p4490
VQuestion
p4491
sg14
g4466
sVid
p4492
VT11
p4493
sa(dp4494
Vcategory
p4495
VQuestion
p4496
sg14
g4466
sVid
p4497
VT12
p4498
sa(dp4499
Vcategory
p4500
VQuestion
p4501
sg14
g4466
sVid
p4502
VT13
p4503
sa(dp4504
Vcategory
p4505
Vunlabeled
p4506
sg14
g4466
sVid
p4507
VT34
p4508
sa(dp4509
Vcategory
p4510
Vunlabeled
p4511
sg14
g4466
sVid
p4512
VT35
p4513
sa(dp4514
Vcategory
p4515
VQuestion
p4516
sg14
g4466
sVid
p4517
VT18
p4518
sa(dp4519
Vcategory
p4520
VQuestion
p4521
sg14
g4466
sVid
p4522
VT19
p4523
sa(dp4524
Vcategory
p4525
VQuestion
p4526
sg14
g4466
sVid
p4527
VT30
p4528
sa(dp4529
Vcategory
p4530
VQuestion
p4531
sg14
g4466
sVid
p4532
VT31
p4533
sa(dp4534
Vcategory
p4535
Vunlabeled
p4536
sg14
g4466
sVid
p4537
VT32
p4538
sa(dp4539
Vcategory
p4540
Vunlabeled
p4541
sg14
g4466
sVid
p4542
VT33
p4543
sa(dp4544
Vcategory
p4545
Vunlabeled
p4546
sg14
g4466
sVid
p4547
VT8
p4548
sa(dp4549
Vcategory
p4550
VQuestion
p4551
sg14
g4466
sVid
p4552
VT9
p4553
sa(dp4554
Vcategory
p4555
Vunlabeled
p4556
sg14
g4466
sVid
p4557
VT6
p4558
sa(dp4559
Vcategory
p4560
VQuestion
p4561
sg14
g4466
sVid
p4562
VT7
p4563
sa(dp4564
Vcategory
p4565
VHeader/Topic
p4566
sg14
g4466
sVid
p4567
VT4
p4568
sa(dp4569
Vcategory
p4570
Vunlabeled
p4571
sg14
g4466
sVid
p4572
VT5
p4573
sa(dp4574
Vcategory
p4575
Vunlabeled
p4576
sg14
g4466
sVid
p4577
VT2
p4578
sa(dp4579
Vcategory
p4580
Vunlabeled
p4581
sg14
g4466
sVid
p4582
VT3
p4583
sa(dp4584
Vcategory
p4585
Vunlabeled
p4586
sg14
g4466
sVid
p4587
VT1
p4588
sa(dp4589
Vcategory
p4590
VQuestion
p4591
sg14
g4466
sVid
p4592
VT29
p4593
sa(dp4594
Vcategory
p4595
VQuestion
p4596
sg14
g4466
sVid
p4597
VT28
p4598
sa(dp4599
Vcategory
p4600
VQuestion
p4601
sg14
g4466
sVid
p4602
VT21
p4603
sa(dp4604
Vcategory
p4605
VQuestion
p4606
sg14
g4466
sVid
p4607
VT20
p4608
sa(dp4609
Vcategory
p4610
Vunlabeled
p4611
sg14
g4466
sVid
p4612
VT23
p4613
sa(dp4614
Vcategory
p4615
VQuestion
p4616
sg14
g4466
sVid
p4617
VT22
p4618
sa(dp4619
Vcategory
p4620
VQuestion
p4621
sg14
g4466
sVid
p4622
VT25
p4623
sa(dp4624
Vcategory
p4625
VQuestion
p4626
sg14
g4466
sVid
p4627
VT24
p4628
sa(dp4629
Vcategory
p4630
VQuestion
p4631
sg14
g4466
sVid
p4632
VT27
p4633
sa(dp4634
Vcategory
p4635
VQuestion
p4636
sg14
g4466
sVid
p4637
VT26
p4638
sassa(dp4639
V30JNVC0OR9L8SXRL9ZP0019QB6SQHG
p4640
(dp4641
VDaily_Science_Grade_6_(Daily_Practice_Books)_Evan_Moor_93.jpeg
p4642
(lp4643
(dp4644
Vcategory
p4645
VQuestion
p4646
sg14
VA3TXJLD6JNR280
p4647
sVid
p4648
VT14
p4649
sa(dp4650
Vcategory
p4651
VQuestion
p4652
sg14
g4647
sVid
p4653
VT15
p4654
sa(dp4655
Vcategory
p4656
VQuestion
p4657
sg14
g4647
sVid
p4658
VT16
p4659
sa(dp4660
Vcategory
p4661
VQuestion
p4662
sg14
g4647
sVid
p4663
VT17
p4664
sa(dp4665
Vcategory
p4666
VQuestion
p4667
sg14
g4647
sVid
p4668
VT10
p4669
sa(dp4670
Vcategory
p4671
VQuestion
p4672
sg14
g4647
sVid
p4673
VT11
p4674
sa(dp4675
Vcategory
p4676
VQuestion
p4677
sg14
g4647
sVid
p4678
VT12
p4679
sa(dp4680
Vcategory
p4681
VQuestion
p4682
sg14
g4647
sVid
p4683
VT13
p4684
sa(dp4685
Vcategory
p4686
Vunlabeled
p4687
sg14
g4647
sVid
p4688
VT34
p4689
sa(dp4690
Vcategory
p4691
Vunlabeled
p4692
sg14
g4647
sVid
p4693
VT35
p4694
sa(dp4695
Vcategory
p4696
VQuestion
p4697
sg14
g4647
sVid
p4698
VT18
p4699
sa(dp4700
Vcategory
p4701
VQuestion
p4702
sg14
g4647
sVid
p4703
VT19
p4704
sa(dp4705
Vcategory
p4706
VQuestion
p4707
sg14
g4647
sVid
p4708
VT30
p4709
sa(dp4710
Vcategory
p4711
VQuestion
p4712
sg14
g4647
sVid
p4713
VT31
p4714
sa(dp4715
Vcategory
p4716
Vunlabeled
p4717
sg14
g4647
sVid
p4718
VT32
p4719
sa(dp4720
Vcategory
p4721
Vunlabeled
p4722
sg14
g4647
sVid
p4723
VT33
p4724
sa(dp4725
Vcategory
p4726
Vunlabeled
p4727
sg14
g4647
sVid
p4728
VT8
p4729
sa(dp4730
Vcategory
p4731
VQuestion
p4732
sg14
g4647
sVid
p4733
VT9
p4734
sa(dp4735
Vcategory
p4736
Vunlabeled
p4737
sg14
g4647
sVid
p4738
VT6
p4739
sa(dp4740
Vcategory
p4741
VQuestion
p4742
sg14
g4647
sVid
p4743
VT7
p4744
sa(dp4745
Vcategory
p4746
VHeader/Topic
p4747
sg14
g4647
sVid
p4748
VT4
p4749
sa(dp4750
Vcategory
p4751
Vunlabeled
p4752
sg14
g4647
sVid
p4753
VT5
p4754
sa(dp4755
Vcategory
p4756
Vunlabeled
p4757
sg14
g4647
sVid
p4758
VT2
p4759
sa(dp4760
Vcategory
p4761
Vunlabeled
p4762
sg14
g4647
sVid
p4763
VT3
p4764
sa(dp4765
Vcategory
p4766
Vunlabeled
p4767
sg14
g4647
sVid
p4768
VT1
p4769
sa(dp4770
Vcategory
p4771
VQuestion
p4772
sg14
g4647
sVid
p4773
VT29
p4774
sa(dp4775
Vcategory
p4776
VQuestion
p4777
sg14
g4647
sVid
p4778
VT28
p4779
sa(dp4780
Vcategory
p4781
VQuestion
p4782
sg14
g4647
sVid
p4783
VT21
p4784
sa(dp4785
Vcategory
p4786
VQuestion
p4787
sg14
g4647
sVid
p4788
VT20
p4789
sa(dp4790
Vcategory
p4791
VQuestion
p4792
sg14
g4647
sVid
p4793
VT23
p4794
sa(dp4795
Vcategory
p4796
VQuestion
p4797
sg14
g4647
sVid
p4798
VT22
p4799
sa(dp4800
Vcategory
p4801
VQuestion
p4802
sg14
g4647
sVid
p4803
VT25
p4804
sa(dp4805
Vcategory
p4806
VQuestion
p4807
sg14
g4647
sVid
p4808
VT24
p4809
sa(dp4810
Vcategory
p4811
VQuestion
p4812
sg14
g4647
sVid
p4813
VT27
p4814
sa(dp4815
Vcategory
p4816
VQuestion
p4817
sg14
g4647
sVid
p4818
VT26
p4819
sassasV3PGQRAZX02L34OYTL1DSTHOAPPHSYU
p4820
(lp4821
(dp4822
V32ZKVD547FO6UJIXBW381IDH611B3A
p4823
(dp4824
VDaily_Science_Grade_4_Evan_Moor_39.jpeg
p4825
(lp4826
(dp4827
Vcategory
p4828
Vunlabeled
p4829
sg14
VA333VJ2K6O6R79
p4830
sVid
p4831
VT14
p4832
sa(dp4833
Vcategory
p4834
VHeader/Topic
p4835
sg14
g4830
sVid
p4836
VT15
p4837
sa(dp4838
Vcategory
p4839
Vunlabeled
p4840
sg14
g4830
sVid
p4841
VT16
p4842
sa(dp4843
Vcategory
p4844
Vunlabeled
p4845
sg14
g4830
sVid
p4846
VT17
p4847
sa(dp4848
Vcategory
p4849
VHeader/Topic
p4850
sg14
g4830
sVid
p4851
VT10
p4852
sa(dp4853
Vcategory
p4854
Vunlabeled
p4855
sg14
g4830
sVid
p4856
VT11
p4857
sa(dp4858
Vcategory
p4859
VHeader/Topic
p4860
sg14
g4830
sVid
p4861
VT12
p4862
sa(dp4863
Vcategory
p4864
Vunlabeled
p4865
sg14
g4830
sVid
p4866
VT13
p4867
sa(dp4868
Vcategory
p4869
Vunlabeled
p4870
sg14
g4830
sVid
p4871
VT18
p4872
sa(dp4873
Vcategory
p4874
Vunlabeled
p4875
sg14
g4830
sVid
p4876
VT19
p4877
sa(dp4878
Vcategory
p4879
Vunlabeled
p4880
sg14
g4830
sVid
p4881
VT30
p4882
sa(dp4883
Vcategory
p4884
VDiscussion
p4885
sg14
g4830
sVid
p4886
VT8
p4887
sa(dp4888
Vcategory
p4889
Vunlabeled
p4890
sg14
g4830
sVid
p4891
VT9
p4892
sa(dp4893
Vcategory
p4894
VDiscussion
p4895
sg14
g4830
sVid
p4896
VT6
p4897
sa(dp4898
Vcategory
p4899
VDiscussion
p4900
sg14
g4830
sVid
p4901
VT7
p4902
sa(dp4903
Vcategory
p4904
VHeader/Topic
p4905
sg14
g4830
sVid
p4906
VT4
p4907
sa(dp4908
Vcategory
p4909
Vunlabeled
p4910
sg14
g4830
sVid
p4911
VT5
p4912
sa(dp4913
Vcategory
p4914
Vunlabeled
p4915
sg14
g4830
sVid
p4916
VT2
p4917
sa(dp4918
Vcategory
p4919
Vunlabeled
p4920
sg14
g4830
sVid
p4921
VT3
p4922
sa(dp4923
Vcategory
p4924
Vunlabeled
p4925
sg14
g4830
sVid
p4926
VT1
p4927
sa(dp4928
Vcategory
p4929
Vunlabeled
p4930
sg14
g4830
sVid
p4931
VT29
p4932
sa(dp4933
Vcategory
p4934
Vunlabeled
p4935
sg14
g4830
sVid
p4936
VT28
p4937
sa(dp4938
Vcategory
p4939
Vunlabeled
p4940
sg14
g4830
sVid
p4941
VT21
p4942
sa(dp4943
Vcategory
p4944
Vunlabeled
p4945
sg14
g4830
sVid
p4946
VT20
p4947
sa(dp4948
Vcategory
p4949
Vunlabeled
p4950
sg14
g4830
sVid
p4951
VT23
p4952
sa(dp4953
Vcategory
p4954
Vunlabeled
p4955
sg14
g4830
sVid
p4956
VT22
p4957
sa(dp4958
Vcategory
p4959
Vunlabeled
p4960
sg14
g4830
sVid
p4961
VT25
p4962
sa(dp4963
Vcategory
p4964
Vunlabeled
p4965
sg14
g4830
sVid
p4966
VT24
p4967
sa(dp4968
Vcategory
p4969
Vunlabeled
p4970
sg14
g4830
sVid
p4971
VT27
p4972
sa(dp4973
Vcategory
p4974
Vunlabeled
p4975
sg14
g4830
sVid
p4976
VT26
p4977
sassa(dp4978
V3UOUJI6MTDFX6GYHVCRRDOU92HHUXI
p4979
(dp4980
VDaily_Science_Grade_4_Evan_Moor_39.jpeg
p4981
(lp4982
(dp4983
Vcategory
p4984
VAnswer
p4985
sg14
VA3I9WD8P9RBFHR
p4986
sVid
p4987
VT14
p4988
sa(dp4989
Vcategory
p4990
Vunlabeled
p4991
sg14
g4986
sVid
p4992
VT15
p4993
sa(dp4994
Vcategory
p4995
Vunlabeled
p4996
sg14
g4986
sVid
p4997
VT16
p4998
sa(dp4999
Vcategory
p5000
Vunlabeled
p5001
sg14
g4986
sVid
p5002
VT17
p5003
sa(dp5004
Vcategory
p5005
Vunlabeled
p5006
sg14
g4986
sVid
p5007
VT10
p5008
sa(dp5009
Vcategory
p5010
VAnswer
p5011
sg14
g4986
sVid
p5012
VT11
p5013
sa(dp5014
Vcategory
p5015
Vunlabeled
p5016
sg14
g4986
sVid
p5017
VT12
p5018
sa(dp5019
Vcategory
p5020
Vunlabeled
p5021
sg14
g4986
sVid
p5022
VT13
p5023
sa(dp5024
Vcategory
p5025
VAnswer
p5026
sg14
g4986
sVid
p5027
VT18
p5028
sa(dp5029
Vcategory
p5030
VAnswer
p5031
sg14
g4986
sVid
p5032
VT19
p5033
sa(dp5034
Vcategory
p5035
Vunlabeled
p5036
sg14
g4986
sVid
p5037
VT30
p5038
sa(dp5039
Vcategory
p5040
VDiscussion
p5041
sg14
g4986
sVid
p5042
VT8
p5043
sa(dp5044
Vcategory
p5045
VAnswer
p5046
sg14
g4986
sVid
p5047
VT9
p5048
sa(dp5049
Vcategory
p5050
VDiscussion
p5051
sg14
g4986
sVid
p5052
VT6
p5053
sa(dp5054
Vcategory
p5055
Vunlabeled
p5056
sg14
g4986
sVid
p5057
VT7
p5058
sa(dp5059
Vcategory
p5060
VHeader/Topic
p5061
sg14
g4986
sVid
p5062
VT4
p5063
sa(dp5064
Vcategory
p5065
Vunlabeled
p5066
sg14
g4986
sVid
p5067
VT5
p5068
sa(dp5069
Vcategory
p5070
Vunlabeled
p5071
sg14
g4986
sVid
p5072
VT2
p5073
sa(dp5074
Vcategory
p5075
Vunlabeled
p5076
sg14
g4986
sVid
p5077
VT3
p5078
sa(dp5079
Vcategory
p5080
Vunlabeled
p5081
sg14
g4986
sVid
p5082
VT1
p5083
sa(dp5084
Vcategory
p5085
Vunlabeled
p5086
sg14
g4986
sVid
p5087
VT29
p5088
sa(dp5089
Vcategory
p5090
Vunlabeled
p5091
sg14
g4986
sVid
p5092
VT28
p5093
sa(dp5094
Vcategory
p5095
Vunlabeled
p5096
sg14
g4986
sVid
p5097
VT21
p5098
sa(dp5099
Vcategory
p5100
VAnswer
p5101
sg14
g4986
sVid
p5102
VT20
p5103
sa(dp5104
Vcategory
p5105
VAnswer
p5106
sg14
g4986
sVid
p5107
VT23
p5108
sa(dp5109
Vcategory
p5110
VAnswer
p5111
sg14
g4986
sVid
p5112
VT22
p5113
sa(dp5114
Vcategory
p5115
VAnswer
p5116
sg14
g4986
sVid
p5117
VT25
p5118
sa(dp5119
Vcategory
p5120
Vunlabeled
p5121
sg14
g4986
sVid
p5122
VT24
p5123
sa(dp5124
Vcategory
p5125
Vunlabeled
p5126
sg14
g4986
sVid
p5127
VT27
p5128
sa(dp5129
Vcategory
p5130
Vunlabeled
p5131
sg14
g4986
sVid
p5132
VT26
p5133
sassa(dp5134
V38SKSKU7R1YXXVMSNCZPJRBB1DKILC
p5135
(dp5136
VDaily_Science_Grade_4_Evan_Moor_39.jpeg
p5137
(lp5138
(dp5139
Vcategory
p5140
VDiscussion
p5141
sg14
VA3TXJLD6JNR280
p5142
sVid
p5143
VT14
p5144
sa(dp5145
Vcategory
p5146
Vunlabeled
p5147
sg14
g5142
sVid
p5148
VT15
p5149
sa(dp5150
Vcategory
p5151
Vunlabeled
p5152
sg14
g5142
sVid
p5153
VT16
p5154
sa(dp5155
Vcategory
p5156
Vunlabeled
p5157
sg14
g5142
sVid
p5158
VT17
p5159
sa(dp5160
Vcategory
p5161
Vunlabeled
p5162
sg14
g5142
sVid
p5163
VT10
p5164
sa(dp5165
Vcategory
p5166
VDiscussion
p5167
sg14
g5142
sVid
p5168
VT11
p5169
sa(dp5170
Vcategory
p5171
Vunlabeled
p5172
sg14
g5142
sVid
p5173
VT12
p5174
sa(dp5175
Vcategory
p5176
Vunlabeled
p5177
sg14
g5142
sVid
p5178
VT13
p5179
sa(dp5180
Vcategory
p5181
Vunlabeled
p5182
sg14
g5142
sVid
p5183
VT18
p5184
sa(dp5185
Vcategory
p5186
VDiscussion
p5187
sg14
g5142
sVid
p5188
VT19
p5189
sa(dp5190
Vcategory
p5191
Vunlabeled
p5192
sg14
g5142
sVid
p5193
VT30
p5194
sa(dp5195
Vcategory
p5196
VDiscussion
p5197
sg14
g5142
sVid
p5198
VT8
p5199
sa(dp5200
Vcategory
p5201
VDiscussion
p5202
sg14
g5142
sVid
p5203
VT9
p5204
sa(dp5205
Vcategory
p5206
VDiscussion
p5207
sg14
g5142
sVid
p5208
VT6
p5209
sa(dp5210
Vcategory
p5211
Vunlabeled
p5212
sg14
g5142
sVid
p5213
VT7
p5214
sa(dp5215
Vcategory
p5216
VHeader/Topic
p5217
sg14
g5142
sVid
p5218
VT4
p5219
sa(dp5220
Vcategory
p5221
Vunlabeled
p5222
sg14
g5142
sVid
p5223
VT5
p5224
sa(dp5225
Vcategory
p5226
Vunlabeled
p5227
sg14
g5142
sVid
p5228
VT2
p5229
sa(dp5230
Vcategory
p5231
Vunlabeled
p5232
sg14
g5142
sVid
p5233
VT3
p5234
sa(dp5235
Vcategory
p5236
Vunlabeled
p5237
sg14
g5142
sVid
p5238
VT1
p5239
sa(dp5240
Vcategory
p5241
Vunlabeled
p5242
sg14
g5142
sVid
p5243
VT29
p5244
sa(dp5245
Vcategory
p5246
Vunlabeled
p5247
sg14
g5142
sVid
p5248
VT28
p5249
sa(dp5250
Vcategory
p5251
Vunlabeled
p5252
sg14
g5142
sVid
p5253
VT21
p5254
sa(dp5255
Vcategory
p5256
VDiscussion
p5257
sg14
g5142
sVid
p5258
VT20
p5259
sa(dp5260
Vcategory
p5261
VDiscussion
p5262
sg14
g5142
sVid
p5263
VT23
p5264
sa(dp5265
Vcategory
p5266
Vunlabeled
p5267
sg14
g5142
sVid
p5268
VT22
p5269
sa(dp5270
Vcategory
p5271
VDiscussion
p5272
sg14
g5142
sVid
p5273
VT25
p5274
sa(dp5275
Vcategory
p5276
Vunlabeled
p5277
sg14
g5142
sVid
p5278
VT24
p5279
sa(dp5280
Vcategory
p5281
Vunlabeled
p5282
sg14
g5142
sVid
p5283
VT27
p5284
sa(dp5285
Vcategory
p5286
Vunlabeled
p5287
sg14
g5142
sVid
p5288
VT26
p5289
sassasV3RBI0I35XE4ZK7DEVMCRL9GYX9HY37
p5290
(lp5291
(dp5292
V3P1L2B7AD1Q7THXVL7CU3O7XDMBOL5
p5293
(dp5294
VDaily_Science_Grade_6_(Daily_Practice_Books)_Evan_Moor_83.jpeg
p5295
(lp5296
(dp5297
Vcategory
p5298
Vunlabeled
p5299
sg14
VAAC5XT7UY7B2K
p5300
sVid
p5301
VT8
p5302
sa(dp5303
Vcategory
p5304
VDefinition
p5305
sg14
g5300
sVid
p5306
VT9
p5307
sa(dp5308
Vcategory
p5309
VDiscussion
p5310
sg14
g5300
sVid
p5311
VT6
p5312
sa(dp5313
Vcategory
p5314
Vunlabeled
p5315
sg14
g5300
sVid
p5316
VT7
p5317
sa(dp5318
Vcategory
p5319
VHeader/Topic
p5320
sg14
g5300
sVid
p5321
VT4
p5322
sa(dp5323
Vcategory
p5324
Vunlabeled
p5325
sg14
g5300
sVid
p5326
VT5
p5327
sa(dp5328
Vcategory
p5329
Vunlabeled
p5330
sg14
g5300
sVid
p5331
VT2
p5332
sa(dp5333
Vcategory
p5334
Vunlabeled
p5335
sg14
g5300
sVid
p5336
VT3
p5337
sa(dp5338
Vcategory
p5339
Vunlabeled
p5340
sg14
g5300
sVid
p5341
VT1
p5342
sa(dp5343
Vcategory
p5344
VQuestion
p5345
sg14
g5300
sVid
p5346
VT14
p5347
sa(dp5348
Vcategory
p5349
Vunlabeled
p5350
sg14
g5300
sVid
p5351
VT15
p5352
sa(dp5353
Vcategory
p5354
Vunlabeled
p5355
sg14
g5300
sVid
p5356
VT16
p5357
sa(dp5358
Vcategory
p5359
Vunlabeled
p5360
sg14
g5300
sVid
p5361
VT17
p5362
sa(dp5363
Vcategory
p5364
VDefinition
p5365
sg14
g5300
sVid
p5366
VT10
p5367
sa(dp5368
Vcategory
p5369
VQuestion
p5370
sg14
g5300
sVid
p5371
VT11
p5372
sa(dp5373
Vcategory
p5374
VQuestion
p5375
sg14
g5300
sVid
p5376
VT12
p5377
sa(dp5378
Vcategory
p5379
VQuestion
p5380
sg14
g5300
sVid
p5381
VT13
p5382
sa(dp5383
Vcategory
p5384
Vunlabeled
p5385
sg14
g5300
sVid
p5386
VT18
p5387
sa(dp5388
Vcategory
p5389
Vunlabeled
p5390
sg14
g5300
sVid
p5391
VT19
p5392
sassa(dp5393
V3EJPLAJKEMH1908V0CH9U3W47VX6ZP
p5394
(dp5395
VDaily_Science_Grade_6_(Daily_Practice_Books)_Evan_Moor_83.jpeg
p5396
(lp5397
(dp5398
Vcategory
p5399
Vunlabeled
p5400
sg14
VAL8NYDL4JOYL3
p5401
sVid
p5402
VT8
p5403
sa(dp5404
Vcategory
p5405
VDefinition
p5406
sg14
g5401
sVid
p5407
VT9
p5408
sa(dp5409
Vcategory
p5410
VDiscussion
p5411
sg14
g5401
sVid
p5412
VT6
p5413
sa(dp5414
Vcategory
p5415
Vunlabeled
p5416
sg14
g5401
sVid
p5417
VT7
p5418
sa(dp5419
Vcategory
p5420
VHeader/Topic
p5421
sg14
g5401
sVid
p5422
VT4
p5423
sa(dp5424
Vcategory
p5425
Vunlabeled
p5426
sg14
g5401
sVid
p5427
VT5
p5428
sa(dp5429
Vcategory
p5430
Vunlabeled
p5431
sg14
g5401
sVid
p5432
VT2
p5433
sa(dp5434
Vcategory
p5435
Vunlabeled
p5436
sg14
g5401
sVid
p5437
VT3
p5438
sa(dp5439
Vcategory
p5440
Vunlabeled
p5441
sg14
g5401
sVid
p5442
VT1
p5443
sa(dp5444
Vcategory
p5445
VQuestion
p5446
sg14
g5401
sVid
p5447
VT14
p5448
sa(dp5449
Vcategory
p5450
Vunlabeled
p5451
sg14
g5401
sVid
p5452
VT15
p5453
sa(dp5454
Vcategory
p5455
Vunlabeled
p5456
sg14
g5401
sVid
p5457
VT16
p5458
sa(dp5459
Vcategory
p5460
Vunlabeled
p5461
sg14
g5401
sVid
p5462
VT17
p5463
sa(dp5464
Vcategory
p5465
VDefinition
p5466
sg14
g5401
sVid
p5467
VT10
p5468
sa(dp5469
Vcategory
p5470
VQuestion
p5471
sg14
g5401
sVid
p5472
VT11
p5473
sa(dp5474
Vcategory
p5475
VQuestion
p5476
sg14
g5401
sVid
p5477
VT12
p5478
sa(dp5479
Vcategory
p5480
VQuestion
p5481
sg14
g5401
sVid
p5482
VT13
p5483
sa(dp5484
Vcategory
p5485
Vunlabeled
p5486
sg14
g5401
sVid
p5487
VT18
p5488
sa(dp5489
Vcategory
p5490
Vunlabeled
p5491
sg14
g5401
sVid
p5492
VT19
p5493
sassa(dp5494
V3F0BG9B9MPOK8ACVN0KIMANYWCD7YY
p5495
(dp5496
VDaily_Science_Grade_6_(Daily_Practice_Books)_Evan_Moor_83.jpeg
p5497
(lp5498
(dp5499
Vcategory
p5500
VDefinition
p5501
sg14
VA3TXJLD6JNR280
p5502
sVid
p5503
VT8
p5504
sa(dp5505
Vcategory
p5506
VDefinition
p5507
sg14
g5502
sVid
p5508
VT9
p5509
sa(dp5510
Vcategory
p5511
VDiscussion
p5512
sg14
g5502
sVid
p5513
VT6
p5514
sa(dp5515
Vcategory
p5516
Vunlabeled
p5517
sg14
g5502
sVid
p5518
VT7
p5519
sa(dp5520
Vcategory
p5521
VHeader/Topic
p5522
sg14
g5502
sVid
p5523
VT4
p5524
sa(dp5525
Vcategory
p5526
Vunlabeled
p5527
sg14
g5502
sVid
p5528
VT5
p5529
sa(dp5530
Vcategory
p5531
Vunlabeled
p5532
sg14
g5502
sVid
p5533
VT2
p5534
sa(dp5535
Vcategory
p5536
Vunlabeled
p5537
sg14
g5502
sVid
p5538
VT3
p5539
sa(dp5540
Vcategory
p5541
Vunlabeled
p5542
sg14
g5502
sVid
p5543
VT1
p5544
sa(dp5545
Vcategory
p5546
VQuestion
p5547
sg14
g5502
sVid
p5548
VT14
p5549
sa(dp5550
Vcategory
p5551
Vunlabeled
p5552
sg14
g5502
sVid
p5553
VT15
p5554
sa(dp5555
Vcategory
p5556
Vunlabeled
p5557
sg14
g5502
sVid
p5558
VT16
p5559
sa(dp5560
Vcategory
p5561
Vunlabeled
p5562
sg14
g5502
sVid
p5563
VT17
p5564
sa(dp5565
Vcategory
p5566
VDefinition
p5567
sg14
g5502
sVid
p5568
VT10
p5569
sa(dp5570
Vcategory
p5571
VQuestion
p5572
sg14
g5502
sVid
p5573
VT11
p5574
sa(dp5575
Vcategory
p5576
VQuestion
p5577
sg14
g5502
sVid
p5578
VT12
p5579
sa(dp5580
Vcategory
p5581
VQuestion
p5582
sg14
g5502
sVid
p5583
VT13
p5584
sa(dp5585
Vcategory
p5586
Vunlabeled
p5587
sg14
g5502
sVid
p5588
VT18
p5589
sa(dp5590
Vcategory
p5591
Vunlabeled
p5592
sg14
g5502
sVid
p5593
VT19
p5594
sassasV3ZG552ORAM5TVVMQMBB2V07C9EFV2K
p5595
(lp5596
(dp5597
V3X73LLYYQ1FNP0ETT7XJW7EL6V3NHO
p5598
(dp5599
VDaily_Science_Grade_4_Evan_Moor_118.jpeg
p5600
(lp5601
(dp5602
Vcategory
p5603
Vunlabeled
p5604
sg14
VA3I9WD8P9RBFHR
p5605
sVid
p5606
VT8
p5607
sa(dp5608
Vcategory
p5609
VDefinition
p5610
sg14
g5605
sVid
p5611
VT9
p5612
sa(dp5613
Vcategory
p5614
VDiscussion
p5615
sg14
g5605
sVid
p5616
VT6
p5617
sa(dp5618
Vcategory
p5619
Vunlabeled
p5620
sg14
g5605
sVid
p5621
VT7
p5622
sa(dp5623
Vcategory
p5624
VHeader/Topic
p5625
sg14
g5605
sVid
p5626
VT4
p5627
sa(dp5628
Vcategory
p5629
Vunlabeled
p5630
sg14
g5605
sVid
p5631
VT5
p5632
sa(dp5633
Vcategory
p5634
Vunlabeled
p5635
sg14
g5605
sVid
p5636
VT2
p5637
sa(dp5638
Vcategory
p5639
Vunlabeled
p5640
sg14
g5605
sVid
p5641
VT3
p5642
sa(dp5643
Vcategory
p5644
Vunlabeled
p5645
sg14
g5605
sVid
p5646
VT1
p5647
sa(dp5648
Vcategory
p5649
Vunlabeled
p5650
sg14
g5605
sVid
p5651
VT14
p5652
sa(dp5653
Vcategory
p5654
Vunlabeled
p5655
sg14
g5605
sVid
p5656
VT15
p5657
sa(dp5658
Vcategory
p5659
VQuestion
p5660
sg14
g5605
sVid
p5661
VT16
p5662
sa(dp5663
Vcategory
p5664
VQuestion
p5665
sg14
g5605
sVid
p5666
VT17
p5667
sa(dp5668
Vcategory
p5669
VDefinition
p5670
sg14
g5605
sVid
p5671
VT10
p5672
sa(dp5673
Vcategory
p5674
VFigure Label
p5675
sg14
g5605
sVid
p5676
VT11
p5677
sa(dp5678
Vcategory
p5679
VQuestion
p5680
sg14
g5605
sVid
p5681
VT12
p5682
sa(dp5683
Vcategory
p5684
Vunlabeled
p5685
sg14
g5605
sVid
p5686
VT13
p5687
sa(dp5688
Vcategory
p5689
Vunlabeled
p5690
sg14
g5605
sVid
p5691
VT18
p5692
sa(dp5693
Vcategory
p5694
Vunlabeled
p5695
sg14
g5605
sVid
p5696
VT19
p5697
sassa(dp5698
V324G5B4FB39NBFGAFS99UITEKZY07Q
p5699
(dp5700
VDaily_Science_Grade_4_Evan_Moor_118.jpeg
p5701
(lp5702
(dp5703
Vcategory
p5704
Vunlabeled
p5705
sg14
VA36PFUM96J0ES6
p5706
sVid
p5707
VT8
p5708
sa(dp5709
Vcategory
p5710
VDefinition
p5711
sg14
g5706
sVid
p5712
VT9
p5713
sa(dp5714
Vcategory
p5715
VDiscussion
p5716
sg14
g5706
sVid
p5717
VT6
p5718
sa(dp5719
Vcategory
p5720
Vunlabeled
p5721
sg14
g5706
sVid
p5722
VT7
p5723
sa(dp5724
Vcategory
p5725
VHeader/Topic
p5726
sg14
g5706
sVid
p5727
VT4
p5728
sa(dp5729
Vcategory
p5730
Vunlabeled
p5731
sg14
g5706
sVid
p5732
VT5
p5733
sa(dp5734
Vcategory
p5735
Vunlabeled
p5736
sg14
g5706
sVid
p5737
VT2
p5738
sa(dp5739
Vcategory
p5740
Vunlabeled
p5741
sg14
g5706
sVid
p5742
VT3
p5743
sa(dp5744
Vcategory
p5745
Vunlabeled
p5746
sg14
g5706
sVid
p5747
VT1
p5748
sa(dp5749
Vcategory
p5750
Vunlabeled
p5751
sg14
g5706
sVid
p5752
VT14
p5753
sa(dp5754
Vcategory
p5755
Vunlabeled
p5756
sg14
g5706
sVid
p5757
VT15
p5758
sa(dp5759
Vcategory
p5760
VQuestion
p5761
sg14
g5706
sVid
p5762
VT16
p5763
sa(dp5764
Vcategory
p5765
VQuestion
p5766
sg14
g5706
sVid
p5767
VT17
p5768
sa(dp5769
Vcategory
p5770
VDefinition
p5771
sg14
g5706
sVid
p5772
VT10
p5773
sa(dp5774
Vcategory
p5775
VFigure Label
p5776
sg14
g5706
sVid
p5777
VT11
p5778
sa(dp5779
Vcategory
p5780
VQuestion
p5781
sg14
g5706
sVid
p5782
VT12
p5783
sa(dp5784
Vcategory
p5785
Vunlabeled
p5786
sg14
g5706
sVid
p5787
VT13
p5788
sa(dp5789
Vcategory
p5790
Vunlabeled
p5791
sg14
g5706
sVid
p5792
VT18
p5793
sa(dp5794
Vcategory
p5795
Vunlabeled
p5796
sg14
g5706
sVid
p5797
VT19
p5798
sassa(dp5799
V33PPO7FECVGEZJY0AV110E36S4IDIR
p5800
(dp5801
VDaily_Science_Grade_4_Evan_Moor_118.jpeg
p5802
(lp5803
(dp5804
Vcategory
p5805
VDefinition
p5806
sg14
VA3TXJLD6JNR280
p5807
sVid
p5808
VT8
p5809
sa(dp5810
Vcategory
p5811
VDefinition
p5812
sg14
g5807
sVid
p5813
VT9
p5814
sa(dp5815
Vcategory
p5816
VDiscussion
p5817
sg14
g5807
sVid
p5818
VT6
p5819
sa(dp5820
Vcategory
p5821
Vunlabeled
p5822
sg14
g5807
sVid
p5823
VT7
p5824
sa(dp5825
Vcategory
p5826
VHeader/Topic
p5827
sg14
g5807
sVid
p5828
VT4
p5829
sa(dp5830
Vcategory
p5831
Vunlabeled
p5832
sg14
g5807
sVid
p5833
VT5
p5834
sa(dp5835
Vcategory
p5836
Vunlabeled
p5837
sg14
g5807
sVid
p5838
VT2
p5839
sa(dp5840
Vcategory
p5841
Vunlabeled
p5842
sg14
g5807
sVid
p5843
VT3
p5844
sa(dp5845
Vcategory
p5846
Vunlabeled
p5847
sg14
g5807
sVid
p5848
VT1
p5849
sa(dp5850
Vcategory
p5851
Vunlabeled
p5852
sg14
g5807
sVid
p5853
VT14
p5854
sa(dp5855
Vcategory
p5856
Vunlabeled
p5857
sg14
g5807
sVid
p5858
VT15
p5859
sa(dp5860
Vcategory
p5861
VQuestion
p5862
sg14
g5807
sVid
p5863
VT16
p5864
sa(dp5865
Vcategory
p5866
VQuestion
p5867
sg14
g5807
sVid
p5868
VT17
p5869
sa(dp5870
Vcategory
p5871
VDefinition
p5872
sg14
g5807
sVid
p5873
VT10
p5874
sa(dp5875
Vcategory
p5876
VFigure Label
p5877
sg14
g5807
sVid
p5878
VT11
p5879
sa(dp5880
Vcategory
p5881
VQuestion
p5882
sg14
g5807
sVid
p5883
VT12
p5884
sa(dp5885
Vcategory
p5886
Vunlabeled
p5887
sg14
g5807
sVid
p5888
VT13
p5889
sa(dp5890
Vcategory
p5891
Vunlabeled
p5892
sg14
g5807
sVid
p5893
VT18
p5894
sa(dp5895
Vcategory
p5896
Vunlabeled
p5897
sg14
g5807
sVid
p5898
VT19
p5899
sassasV3SNR5F7R92UG45E6GO7KICQ7YFAIED
p5900
(lp5901
(dp5902
V30JNVC0OR9L8SXRL9ZP0019QB6IQH6
p5903
(dp5904
VDaily_Science_Grade_5_Evan_Moor_44.jpeg
p5905
(lp5906
(dp5907
Vcategory
p5908
VQuestion
p5909
sg14
VA3HSGURL7PBDIX
p5910
sVid
p5911
VT14
p5912
sa(dp5913
Vcategory
p5914
VQuestion
p5915
sg14
g5910
sVid
p5916
VT15
p5917
sa(dp5918
Vcategory
p5919
VQuestion
p5920
sg14
g5910
sVid
p5921
VT16
p5922
sa(dp5923
Vcategory
p5924
VQuestion
p5925
sg14
g5910
sVid
p5926
VT17
p5927
sa(dp5928
Vcategory
p5929
VAnswer
p5930
sg14
g5910
sVid
p5931
VT10
p5932
sa(dp5933
Vcategory
p5934
VAnswer
p5935
sg14
g5910
sVid
p5936
VT11
p5937
sa(dp5938
Vcategory
p5939
VAnswer
p5940
sg14
g5910
sVid
p5941
VT12
p5942
sa(dp5943
Vcategory
p5944
VAnswer
p5945
sg14
g5910
sVid
p5946
VT13
p5947
sa(dp5948
Vcategory
p5949
VQuestion
p5950
sg14
g5910
sVid
p5951
VT18
p5952
sa(dp5953
Vcategory
p5954
VQuestion
p5955
sg14
g5910
sVid
p5956
VT19
p5957
sa(dp5958
Vcategory
p5959
VQuestion
p5960
sg14
g5910
sVid
p5961
VT8
p5962
sa(dp5963
Vcategory
p5964
Vunlabeled
p5965
sg14
g5910
sVid
p5966
VT9
p5967
sa(dp5968
Vcategory
p5969
Vunlabeled
p5970
sg14
g5910
sVid
p5971
VT6
p5972
sa(dp5973
Vcategory
p5974
VHeader/Topic
p5975
sg14
g5910
sVid
p5976
VT7
p5977
sa(dp5978
Vcategory
p5979
VHeader/Topic
p5980
sg14
g5910
sVid
p5981
VT4
p5982
sa(dp5983
Vcategory
p5984
VHeader/Topic
p5985
sg14
g5910
sVid
p5986
VT5
p5987
sa(dp5988
Vcategory
p5989
VQuestion
p5990
sg14
g5910
sVid
p5991
VT2
p5992
sa(dp5993
Vcategory
p5994
Vunlabeled
p5995
sg14
g5910
sVid
p5996
VT3
p5997
sa(dp5998
Vcategory
p5999
Vunlabeled
p6000
sg14
g5910
sVid
p6001
VT1
p6002
sa(dp6003
Vcategory
p6004
Vunlabeled
p6005
sg14
g5910
sVid
p6006
VT28
p6007
sa(dp6008
Vcategory
p6009
VQuestion
p6010
sg14
g5910
sVid
p6011
VT21
p6012
sa(dp6013
Vcategory
p6014
VQuestion
p6015
sg14
g5910
sVid
p6016
VT20
p6017
sa(dp6018
Vcategory
p6019
VQuestion
p6020
sg14
g5910
sVid
p6021
VT23
p6022
sa(dp6023
Vcategory
p6024
VDiscussion
p6025
sg14
g5910
sVid
p6026
VT22
p6027
sa(dp6028
Vcategory
p6029
Vunlabeled
p6030
sg14
g5910
sVid
p6031
VT25
p6032
sa(dp6033
Vcategory
p6034
VQuestion
p6035
sg14
g5910
sVid
p6036
VT24
p6037
sa(dp6038
Vcategory
p6039
Vunlabeled
p6040
sg14
g5910
sVid
p6041
VT27
p6042
sa(dp6043
Vcategory
p6044
Vunlabeled
p6045
sg14
g5910
sVid
p6046
VT26
p6047
sassa(dp6048
V3CTOC39K37RUDLHW10JFCN8AJ847J4
p6049
(dp6050
VDaily_Science_Grade_5_Evan_Moor_44.jpeg
p6051
(lp6052
(dp6053
Vcategory
p6054
VQuestion
p6055
sg14
VA2RSOGTSR83XKO
p6056
sVid
p6057
VT14
p6058
sa(dp6059
Vcategory
p6060
VQuestion
p6061
sg14
g6056
sVid
p6062
VT15
p6063
sa(dp6064
Vcategory
p6065
VQuestion
p6066
sg14
g6056
sVid
p6067
VT16
p6068
sa(dp6069
Vcategory
p6070
VQuestion
p6071
sg14
g6056
sVid
p6072
VT17
p6073
sa(dp6074
Vcategory
p6075
VQuestion
p6076
sg14
g6056
sVid
p6077
VT10
p6078
sa(dp6079
Vcategory
p6080
VQuestion
p6081
sg14
g6056
sVid
p6082
VT11
p6083
sa(dp6084
Vcategory
p6085
VQuestion
p6086
sg14
g6056
sVid
p6087
VT12
p6088
sa(dp6089
Vcategory
p6090
VQuestion
p6091
sg14
g6056
sVid
p6092
VT13
p6093
sa(dp6094
Vcategory
p6095
VQuestion
p6096
sg14
g6056
sVid
p6097
VT18
p6098
sa(dp6099
Vcategory
p6100
VQuestion
p6101
sg14
g6056
sVid
p6102
VT19
p6103
sa(dp6104
Vcategory
p6105
VQuestion
p6106
sg14
g6056
sVid
p6107
VT8
p6108
sa(dp6109
Vcategory
p6110
Vunlabeled
p6111
sg14
g6056
sVid
p6112
VT9
p6113
sa(dp6114
Vcategory
p6115
Vunlabeled
p6116
sg14
g6056
sVid
p6117
VT6
p6118
sa(dp6119
Vcategory
p6120
VHeader/Topic
p6121
sg14
g6056
sVid
p6122
VT7
p6123
sa(dp6124
Vcategory
p6125
Vunlabeled
p6126
sg14
g6056
sVid
p6127
VT4
p6128
sa(dp6129
Vcategory
p6130
Vunlabeled
p6131
sg14
g6056
sVid
p6132
VT5
p6133
sa(dp6134
Vcategory
p6135
Vunlabeled
p6136
sg14
g6056
sVid
p6137
VT2
p6138
sa(dp6139
Vcategory
p6140
Vunlabeled
p6141
sg14
g6056
sVid
p6142
VT3
p6143
sa(dp6144
Vcategory
p6145
Vunlabeled
p6146
sg14
g6056
sVid
p6147
VT1
p6148
sa(dp6149
Vcategory
p6150
Vunlabeled
p6151
sg14
g6056
sVid
p6152
VT28
p6153
sa(dp6154
Vcategory
p6155
VQuestion
p6156
sg14
g6056
sVid
p6157
VT21
p6158
sa(dp6159
Vcategory
p6160
VQuestion
p6161
sg14
g6056
sVid
p6162
VT20
p6163
sa(dp6164
Vcategory
p6165
VQuestion
p6166
sg14
g6056
sVid
p6167
VT23
p6168
sa(dp6169
Vcategory
p6170
VQuestion
p6171
sg14
g6056
sVid
p6172
VT22
p6173
sa(dp6174
Vcategory
p6175
Vunlabeled
p6176
sg14
g6056
sVid
p6177
VT25
p6178
sa(dp6179
Vcategory
p6180
VQuestion
p6181
sg14
g6056
sVid
p6182
VT24
p6183
sa(dp6184
Vcategory
p6185
Vunlabeled
p6186
sg14
g6056
sVid
p6187
VT27
p6188
sa(dp6189
Vcategory
p6190
Vunlabeled
p6191
sg14
g6056
sVid
p6192
VT26
p6193
sassa(dp6194
V351SEKWQS0I0V2ORVAZTS7AN9DZDM4
p6195
(dp6196
VDaily_Science_Grade_5_Evan_Moor_44.jpeg
p6197
(lp6198
(dp6199
Vcategory
p6200
VQuestion
p6201
sg14
VA3TXJLD6JNR280
p6202
sVid
p6203
VT14
p6204
sa(dp6205
Vcategory
p6206
VQuestion
p6207
sg14
g6202
sVid
p6208
VT15
p6209
sa(dp6210
Vcategory
p6211
VQuestion
p6212
sg14
g6202
sVid
p6213
VT16
p6214
sa(dp6215
Vcategory
p6216
VQuestion
p6217
sg14
g6202
sVid
p6218
VT17
p6219
sa(dp6220
Vcategory
p6221
VQuestion
p6222
sg14
g6202
sVid
p6223
VT10
p6224
sa(dp6225
Vcategory
p6226
VQuestion
p6227
sg14
g6202
sVid
p6228
VT11
p6229
sa(dp6230
Vcategory
p6231
VQuestion
p6232
sg14
g6202
sVid
p6233
VT12
p6234
sa(dp6235
Vcategory
p6236
VQuestion
p6237
sg14
g6202
sVid
p6238
VT13
p6239
sa(dp6240
Vcategory
p6241
VQuestion
p6242
sg14
g6202
sVid
p6243
VT18
p6244
sa(dp6245
Vcategory
p6246
VQuestion
p6247
sg14
g6202
sVid
p6248
VT19
p6249
sa(dp6250
Vcategory
p6251
VQuestion
p6252
sg14
g6202
sVid
p6253
VT8
p6254
sa(dp6255
Vcategory
p6256
Vunlabeled
p6257
sg14
g6202
sVid
p6258
VT9
p6259
sa(dp6260
Vcategory
p6261
Vunlabeled
p6262
sg14
g6202
sVid
p6263
VT6
p6264
sa(dp6265
Vcategory
p6266
VHeader/Topic
p6267
sg14
g6202
sVid
p6268
VT7
p6269
sa(dp6270
Vcategory
p6271
Vunlabeled
p6272
sg14
g6202
sVid
p6273
VT4
p6274
sa(dp6275
Vcategory
p6276
Vunlabeled
p6277
sg14
g6202
sVid
p6278
VT5
p6279
sa(dp6280
Vcategory
p6281
Vunlabeled
p6282
sg14
g6202
sVid
p6283
VT2
p6284
sa(dp6285
Vcategory
p6286
Vunlabeled
p6287
sg14
g6202
sVid
p6288
VT3
p6289
sa(dp6290
Vcategory
p6291
Vunlabeled
p6292
sg14
g6202
sVid
p6293
VT1
p6294
sa(dp6295
Vcategory
p6296
Vunlabeled
p6297
sg14
g6202
sVid
p6298
VT28
p6299
sa(dp6300
Vcategory
p6301
VQuestion
p6302
sg14
g6202
sVid
p6303
VT21
p6304
sa(dp6305
Vcategory
p6306
VQuestion
p6307
sg14
g6202
sVid
p6308
VT20
p6309
sa(dp6310
Vcategory
p6311
VQuestion
p6312
sg14
g6202
sVid
p6313
VT23
p6314
sa(dp6315
Vcategory
p6316
VQuestion
p6317
sg14
g6202
sVid
p6318
VT22
p6319
sa(dp6320
Vcategory
p6321
Vunlabeled
p6322
sg14
g6202
sVid
p6323
VT25
p6324
sa(dp6325
Vcategory
p6326
VQuestion
p6327
sg14
g6202
sVid
p6328
VT24
p6329
sa(dp6330
Vcategory
p6331
Vunlabeled
p6332
sg14
g6202
sVid
p6333
VT27
p6334
sa(dp6335
Vcategory
p6336
Vunlabeled
p6337
sg14
g6202
sVid
p6338
VT26
p6339
sassasV3JMQI2OLFZ63Q0BXH99SH243K23DNV
p6340
(lp6341
(dp6342
V3K4J6M3CXEU25LPT0XAWP1IKSOKAGL
p6343
(dp6344
VDaily_Science_Grade_6_(Daily_Practice_Books)_Evan_Moor_42.jpeg
p6345
(lp6346
(dp6347
Vcategory
p6348
VDefinition
p6349
sg14
VA36PFUM96J0ES6
p6350
sVid
p6351
VT8
p6352
sa(dp6353
Vcategory
p6354
VQuestion
p6355
sg14
g6350
sVid
p6356
VT9
p6357
sa(dp6358
Vcategory
p6359
VDiscussion
p6360
sg14
g6350
sVid
p6361
VT6
p6362
sa(dp6363
Vcategory
p6364
Vunlabeled
p6365
sg14
g6350
sVid
p6366
VT7
p6367
sa(dp6368
Vcategory
p6369
VHeader/Topic
p6370
sg14
g6350
sVid
p6371
VT4
p6372
sa(dp6373
Vcategory
p6374
Vunlabeled
p6375
sg14
g6350
sVid
p6376
VT5
p6377
sa(dp6378
Vcategory
p6379
Vunlabeled
p6380
sg14
g6350
sVid
p6381
VT2
p6382
sa(dp6383
Vcategory
p6384
Vunlabeled
p6385
sg14
g6350
sVid
p6386
VT3
p6387
sa(dp6388
Vcategory
p6389
Vunlabeled
p6390
sg14
g6350
sVid
p6391
VT1
p6392
sa(dp6393
Vcategory
p6394
VQuestion
p6395
sg14
g6350
sVid
p6396
VT14
p6397
sa(dp6398
Vcategory
p6399
Vunlabeled
p6400
sg14
g6350
sVid
p6401
VT15
p6402
sa(dp6403
Vcategory
p6404
Vunlabeled
p6405
sg14
g6350
sVid
p6406
VT16
p6407
sa(dp6408
Vcategory
p6409
Vunlabeled
p6410
sg14
g6350
sVid
p6411
VT17
p6412
sa(dp6413
Vcategory
p6414
VQuestion
p6415
sg14
g6350
sVid
p6416
VT10
p6417
sa(dp6418
Vcategory
p6419
VQuestion
p6420
sg14
g6350
sVid
p6421
VT11
p6422
sa(dp6423
Vcategory
p6424
VQuestion
p6425
sg14
g6350
sVid
p6426
VT12
p6427
sa(dp6428
Vcategory
p6429
VQuestion
p6430
sg14
g6350
sVid
p6431
VT13
p6432
sa(dp6433
Vcategory
p6434
Vunlabeled
p6435
sg14
g6350
sVid
p6436
VT18
p6437
sassa(dp6438
V3C2NJ6JBKAIJAABBAMUC938JHCKN25
p6439
(dp6440
VDaily_Science_Grade_6_(Daily_Practice_Books)_Evan_Moor_42.jpeg
p6441
(lp6442
(dp6443
Vcategory
p6444
VDefinition
p6445
sg14
VAK0FB4XV3SBMB
p6446
sVid
p6447
VT8
p6448
sa(dp6449
Vcategory
p6450
VQuestion
p6451
sg14
g6446
sVid
p6452
VT9
p6453
sa(dp6454
Vcategory
p6455
VDiscussion
p6456
sg14
g6446
sVid
p6457
VT6
p6458
sa(dp6459
Vcategory
p6460
Vunlabeled
p6461
sg14
g6446
sVid
p6462
VT7
p6463
sa(dp6464
Vcategory
p6465
VHeader/Topic
p6466
sg14
g6446
sVid
p6467
VT4
p6468
sa(dp6469
Vcategory
p6470
Vunlabeled
p6471
sg14
g6446
sVid
p6472
VT5
p6473
sa(dp6474
Vcategory
p6475
Vunlabeled
p6476
sg14
g6446
sVid
p6477
VT2
p6478
sa(dp6479
Vcategory
p6480
Vunlabeled
p6481
sg14
g6446
sVid
p6482
VT3
p6483
sa(dp6484
Vcategory
p6485
Vunlabeled
p6486
sg14
g6446
sVid
p6487
VT1
p6488
sa(dp6489
Vcategory
p6490
VQuestion
p6491
sg14
g6446
sVid
p6492
VT14
p6493
sa(dp6494
Vcategory
p6495
Vunlabeled
p6496
sg14
g6446
sVid
p6497
VT15
p6498
sa(dp6499
Vcategory
p6500
Vunlabeled
p6501
sg14
g6446
sVid
p6502
VT16
p6503
sa(dp6504
Vcategory
p6505
Vunlabeled
p6506
sg14
g6446
sVid
p6507
VT17
p6508
sa(dp6509
Vcategory
p6510
VQuestion
p6511
sg14
g6446
sVid
p6512
VT10
p6513
sa(dp6514
Vcategory
p6515
VQuestion
p6516
sg14
g6446
sVid
p6517
VT11
p6518
sa(dp6519
Vcategory
p6520
VQuestion
p6521
sg14
g6446
sVid
p6522
VT12
p6523
sa(dp6524
Vcategory
p6525
VQuestion
p6526
sg14
g6446
sVid
p6527
VT13
p6528
sa(dp6529
Vcategory
p6530
Vunlabeled
p6531
sg14
g6446
sVid
p6532
VT18
p6533
sassa(dp6534
V3CCZ6YKWR7KQK5Q4RVD5P9GBWXV95U
p6535
(dp6536
VDaily_Science_Grade_6_(Daily_Practice_Books)_Evan_Moor_42.jpeg
p6537
(lp6538
(dp6539
Vcategory
p6540
VDefinition
p6541
sg14
VA3TXJLD6JNR280
p6542
sVid
p6543
VT8
p6544
sa(dp6545
Vcategory
p6546
VQuestion
p6547
sg14
g6542
sVid
p6548
VT9
p6549
sa(dp6550
Vcategory
p6551
VDiscussion
p6552
sg14
g6542
sVid
p6553
VT6
p6554
sa(dp6555
Vcategory
p6556
Vunlabeled
p6557
sg14
g6542
sVid
p6558
VT7
p6559
sa(dp6560
Vcategory
p6561
VHeader/Topic
p6562
sg14
g6542
sVid
p6563
VT4
p6564
sa(dp6565
Vcategory
p6566
Vunlabeled
p6567
sg14
g6542
sVid
p6568
VT5
p6569
sa(dp6570
Vcategory
p6571
Vunlabeled
p6572
sg14
g6542
sVid
p6573
VT2
p6574
sa(dp6575
Vcategory
p6576
Vunlabeled
p6577
sg14
g6542
sVid
p6578
VT3
p6579
sa(dp6580
Vcategory
p6581
Vunlabeled
p6582
sg14
g6542
sVid
p6583
VT1
p6584
sa(dp6585
Vcategory
p6586
VQuestion
p6587
sg14
g6542
sVid
p6588
VT14
p6589
sa(dp6590
Vcategory
p6591
Vunlabeled
p6592
sg14
g6542
sVid
p6593
VT15
p6594
sa(dp6595
Vcategory
p6596
Vunlabeled
p6597
sg14
g6542
sVid
p6598
VT16
p6599
sa(dp6600
Vcategory
p6601
Vunlabeled
p6602
sg14
g6542
sVid
p6603
VT17
p6604
sa(dp6605
Vcategory
p6606
Vunlabeled
p6607
sg14
g6542
sVid
p6608
VT10
p6609
sa(dp6610
Vcategory
p6611
Vunlabeled
p6612
sg14
g6542
sVid
p6613
VT11
p6614
sa(dp6615
Vcategory
p6616
VQuestion
p6617
sg14
g6542
sVid
p6618
VT12
p6619
sa(dp6620
Vcategory
p6621
Vunlabeled
p6622
sg14
g6542
sVid
p6623
VT13
p6624
sa(dp6625
Vcategory
p6626
Vunlabeled
p6627
sg14
g6542
sVid
p6628
VT18
p6629
sassasV33CLA8O0MICL3IHL1MLZEMCYXC8RF8
p6630
(lp6631
(dp6632
V36U2A8VAG1083PJF6U9RQFSK2W7YKP
p6633
(dp6634
VDaily_Science_Grade_6_(Daily_Practice_Books)_Evan_Moor_116.jpeg
p6635
(lp6636
(dp6637
Vcategory
p6638
VQuestion
p6639
sg14
VA3OKWRLKLYVH4F
p6640
sVid
p6641
VT14
p6642
sa(dp6643
Vcategory
p6644
VQuestion
p6645
sg14
g6640
sVid
p6646
VT15
p6647
sa(dp6648
Vcategory
p6649
VQuestion
p6650
sg14
g6640
sVid
p6651
VT16
p6652
sa(dp6653
Vcategory
p6654
VQuestion
p6655
sg14
g6640
sVid
p6656
VT17
p6657
sa(dp6658
Vcategory
p6659
VQuestion
p6660
sg14
g6640
sVid
p6661
VT10
p6662
sa(dp6663
Vcategory
p6664
VQuestion
p6665
sg14
g6640
sVid
p6666
VT11
p6667
sa(dp6668
Vcategory
p6669
VQuestion
p6670
sg14
g6640
sVid
p6671
VT12
p6672
sa(dp6673
Vcategory
p6674
VQuestion
p6675
sg14
g6640
sVid
p6676
VT13
p6677
sa(dp6678
Vcategory
p6679
Vunlabeled
p6680
sg14
g6640
sVid
p6681
VT34
p6682
sa(dp6683
Vcategory
p6684
Vunlabeled
p6685
sg14
g6640
sVid
p6686
VT35
p6687
sa(dp6688
Vcategory
p6689
VQuestion
p6690
sg14
g6640
sVid
p6691
VT18
p6692
sa(dp6693
Vcategory
p6694
VQuestion
p6695
sg14
g6640
sVid
p6696
VT19
p6697
sa(dp6698
Vcategory
p6699
VQuestion
p6700
sg14
g6640
sVid
p6701
VT30
p6702
sa(dp6703
Vcategory
p6704
VQuestion
p6705
sg14
g6640
sVid
p6706
VT31
p6707
sa(dp6708
Vcategory
p6709
VQuestion
p6710
sg14
g6640
sVid
p6711
VT32
p6712
sa(dp6713
Vcategory
p6714
VQuestion
p6715
sg14
g6640
sVid
p6716
VT33
p6717
sa(dp6718
Vcategory
p6719
VQuestion
p6720
sg14
g6640
sVid
p6721
VT8
p6722
sa(dp6723
Vcategory
p6724
VQuestion
p6725
sg14
g6640
sVid
p6726
VT9
p6727
sa(dp6728
Vcategory
p6729
VQuestion
p6730
sg14
g6640
sVid
p6731
VT6
p6732
sa(dp6733
Vcategory
p6734
Vunlabeled
p6735
sg14
g6640
sVid
p6736
VT7
p6737
sa(dp6738
Vcategory
p6739
VHeader/Topic
p6740
sg14
g6640
sVid
p6741
VT4
p6742
sa(dp6743
Vcategory
p6744
Vunlabeled
p6745
sg14
g6640
sVid
p6746
VT5
p6747
sa(dp6748
Vcategory
p6749
Vunlabeled
p6750
sg14
g6640
sVid
p6751
VT2
p6752
sa(dp6753
Vcategory
p6754
Vunlabeled
p6755
sg14
g6640
sVid
p6756
VT3
p6757
sa(dp6758
Vcategory
p6759
Vunlabeled
p6760
sg14
g6640
sVid
p6761
VT1
p6762
sa(dp6763
Vcategory
p6764
VQuestion
p6765
sg14
g6640
sVid
p6766
VT29
p6767
sa(dp6768
Vcategory
p6769
VQuestion
p6770
sg14
g6640
sVid
p6771
VT28
p6772
sa(dp6773
Vcategory
p6774
VQuestion
p6775
sg14
g6640
sVid
p6776
VT21
p6777
sa(dp6778
Vcategory
p6779
VQuestion
p6780
sg14
g6640
sVid
p6781
VT20
p6782
sa(dp6783
Vcategory
p6784
VQuestion
p6785
sg14
g6640
sVid
p6786
VT23
p6787
sa(dp6788
Vcategory
p6789
VQuestion
p6790
sg14
g6640
sVid
p6791
VT22
p6792
sa(dp6793
Vcategory
p6794
VQuestion
p6795
sg14
g6640
sVid
p6796
VT25
p6797
sa(dp6798
Vcategory
p6799
VQuestion
p6800
sg14
g6640
sVid
p6801
VT24
p6802
sa(dp6803
Vcategory
p6804
VQuestion
p6805
sg14
g6640
sVid
p6806
VT27
p6807
sa(dp6808
Vcategory
p6809
VQuestion
p6810
sg14
g6640
sVid
p6811
VT26
p6812
sassa(dp6813
V3ZAZR5XV01JQPHHWA3UCG3OE3H7CZM
p6814
(dp6815
VDaily_Science_Grade_6_(Daily_Practice_Books)_Evan_Moor_116.jpeg
p6816
(lp6817
(dp6818
Vcategory
p6819
VQuestion
p6820
sg14
VA3I9WD8P9RBFHR
p6821
sVid
p6822
VT14
p6823
sa(dp6824
Vcategory
p6825
VQuestion
p6826
sg14
g6821
sVid
p6827
VT15
p6828
sa(dp6829
Vcategory
p6830
VQuestion
p6831
sg14
g6821
sVid
p6832
VT16
p6833
sa(dp6834
Vcategory
p6835
VQuestion
p6836
sg14
g6821
sVid
p6837
VT17
p6838
sa(dp6839
Vcategory
p6840
VAnswer
p6841
sg14
g6821
sVid
p6842
VT10
p6843
sa(dp6844
Vcategory
p6845
VQuestion
p6846
sg14
g6821
sVid
p6847
VT11
p6848
sa(dp6849
Vcategory
p6850
VQuestion
p6851
sg14
g6821
sVid
p6852
VT12
p6853
sa(dp6854
Vcategory
p6855
VQuestion
p6856
sg14
g6821
sVid
p6857
VT13
p6858
sa(dp6859
Vcategory
p6860
Vunlabeled
p6861
sg14
g6821
sVid
p6862
VT34
p6863
sa(dp6864
Vcategory
p6865
Vunlabeled
p6866
sg14
g6821
sVid
p6867
VT35
p6868
sa(dp6869
Vcategory
p6870
VQuestion
p6871
sg14
g6821
sVid
p6872
VT18
p6873
sa(dp6874
Vcategory
p6875
VQuestion
p6876
sg14
g6821
sVid
p6877
VT19
p6878
sa(dp6879
Vcategory
p6880
VQuestion
p6881
sg14
g6821
sVid
p6882
VT30
p6883
sa(dp6884
Vcategory
p6885
VQuestion
p6886
sg14
g6821
sVid
p6887
VT31
p6888
sa(dp6889
Vcategory
p6890
VQuestion
p6891
sg14
g6821
sVid
p6892
VT32
p6893
sa(dp6894
Vcategory
p6895
VQuestion
p6896
sg14
g6821
sVid
p6897
VT33
p6898
sa(dp6899
Vcategory
p6900
VAnswer
p6901
sg14
g6821
sVid
p6902
VT8
p6903
sa(dp6904
Vcategory
p6905
VAnswer
p6906
sg14
g6821
sVid
p6907
VT9
p6908
sa(dp6909
Vcategory
p6910
VQuestion
p6911
sg14
g6821
sVid
p6912
VT6
p6913
sa(dp6914
Vcategory
p6915
Vunlabeled
p6916
sg14
g6821
sVid
p6917
VT7
p6918
sa(dp6919
Vcategory
p6920
VHeader/Topic
p6921
sg14
g6821
sVid
p6922
VT4
p6923
sa(dp6924
Vcategory
p6925
Vunlabeled
p6926
sg14
g6821
sVid
p6927
VT5
p6928
sa(dp6929
Vcategory
p6930
Vunlabeled
p6931
sg14
g6821
sVid
p6932
VT2
p6933
sa(dp6934
Vcategory
p6935
Vunlabeled
p6936
sg14
g6821
sVid
p6937
VT3
p6938
sa(dp6939
Vcategory
p6940
Vunlabeled
p6941
sg14
g6821
sVid
p6942
VT1
p6943
sa(dp6944
Vcategory
p6945
VQuestion
p6946
sg14
g6821
sVid
p6947
VT29
p6948
sa(dp6949
Vcategory
p6950
VQuestion
p6951
sg14
g6821
sVid
p6952
VT28
p6953
sa(dp6954
Vcategory
p6955
VQuestion
p6956
sg14
g6821
sVid
p6957
VT21
p6958
sa(dp6959
Vcategory
p6960
VQuestion
p6961
sg14
g6821
sVid
p6962
VT20
p6963
sa(dp6964
Vcategory
p6965
VQuestion
p6966
sg14
g6821
sVid
p6967
VT23
p6968
sa(dp6969
Vcategory
p6970
VQuestion
p6971
sg14
g6821
sVid
p6972
VT22
p6973
sa(dp6974
Vcategory
p6975
VQuestion
p6976
sg14
g6821
sVid
p6977
VT25
p6978
sa(dp6979
Vcategory
p6980
VQuestion
p6981
sg14
g6821
sVid
p6982
VT24
p6983
sa(dp6984
Vcategory
p6985
VQuestion
p6986
sg14
g6821
sVid
p6987
VT27
p6988
sa(dp6989
Vcategory
p6990
VQuestion
p6991
sg14
g6821
sVid
p6992
VT26
p6993
sassa(dp6994
V39RP059MEHU7G5Q7HE8NXHMN7TQBM1
p6995
(dp6996
VDaily_Science_Grade_6_(Daily_Practice_Books)_Evan_Moor_116.jpeg
p6997
(lp6998
(dp6999
Vcategory
p7000
VQuestion
p7001
sg14
VA03922113RU44GENR8ATX
p7002
sVid
p7003
VT14
p7004
sa(dp7005
Vcategory
p7006
VQuestion
p7007
sg14
g7002
sVid
p7008
VT15
p7009
sa(dp7010
Vcategory
p7011
VQuestion
p7012
sg14
g7002
sVid
p7013
VT16
p7014
sa(dp7015
Vcategory
p7016
VQuestion
p7017
sg14
g7002
sVid
p7018
VT17
p7019
sa(dp7020
Vcategory
p7021
VQuestion
p7022
sg14
g7002
sVid
p7023
VT10
p7024
sa(dp7025
Vcategory
p7026
VQuestion
p7027
sg14
g7002
sVid
p7028
VT11
p7029
sa(dp7030
Vcategory
p7031
VQuestion
p7032
sg14
g7002
sVid
p7033
VT12
p7034
sa(dp7035
Vcategory
p7036
VQuestion
p7037
sg14
g7002
sVid
p7038
VT13
p7039
sa(dp7040
Vcategory
p7041
Vunlabeled
p7042
sg14
g7002
sVid
p7043
VT34
p7044
sa(dp7045
Vcategory
p7046
Vunlabeled
p7047
sg14
g7002
sVid
p7048
VT35
p7049
sa(dp7050
Vcategory
p7051
VQuestion
p7052
sg14
g7002
sVid
p7053
VT18
p7054
sa(dp7055
Vcategory
p7056
VQuestion
p7057
sg14
g7002
sVid
p7058
VT19
p7059
sa(dp7060
Vcategory
p7061
VQuestion
p7062
sg14
g7002
sVid
p7063
VT30
p7064
sa(dp7065
Vcategory
p7066
VQuestion
p7067
sg14
g7002
sVid
p7068
VT31
p7069
sa(dp7070
Vcategory
p7071
VQuestion
p7072
sg14
g7002
sVid
p7073
VT32
p7074
sa(dp7075
Vcategory
p7076
VQuestion
p7077
sg14
g7002
sVid
p7078
VT33
p7079
sa(dp7080
Vcategory
p7081
VQuestion
p7082
sg14
g7002
sVid
p7083
VT8
p7084
sa(dp7085
Vcategory
p7086
VQuestion
p7087
sg14
g7002
sVid
p7088
VT9
p7089
sa(dp7090
Vcategory
p7091
VQuestion
p7092
sg14
g7002
sVid
p7093
VT6
p7094
sa(dp7095
Vcategory
p7096
Vunlabeled
p7097
sg14
g7002
sVid
p7098
VT7
p7099
sa(dp7100
Vcategory
p7101
VHeader/Topic
p7102
sg14
g7002
sVid
p7103
VT4
p7104
sa(dp7105
Vcategory
p7106
Vunlabeled
p7107
sg14
g7002
sVid
p7108
VT5
p7109
sa(dp7110
Vcategory
p7111
Vunlabeled
p7112
sg14
g7002
sVid
p7113
VT2
p7114
sa(dp7115
Vcategory
p7116
Vunlabeled
p7117
sg14
g7002
sVid
p7118
VT3
p7119
sa(dp7120
Vcategory
p7121
Vunlabeled
p7122
sg14
g7002
sVid
p7123
VT1
p7124
sa(dp7125
Vcategory
p7126
VQuestion
p7127
sg14
g7002
sVid
p7128
VT29
p7129
sa(dp7130
Vcategory
p7131
VQuestion
p7132
sg14
g7002
sVid
p7133
VT28
p7134
sa(dp7135
Vcategory
p7136
VQuestion
p7137
sg14
g7002
sVid
p7138
VT21
p7139
sa(dp7140
Vcategory
p7141
VQuestion
p7142
sg14
g7002
sVid
p7143
VT20
p7144
sa(dp7145
Vcategory
p7146
VQuestion
p7147
sg14
g7002
sVid
p7148
VT23
p7149
sa(dp7150
Vcategory
p7151
VQuestion
p7152
sg14
g7002
sVid
p7153
VT22
p7154
sa(dp7155
Vcategory
p7156
VQuestion
p7157
sg14
g7002
sVid
p7158
VT25
p7159
sa(dp7160
Vcategory
p7161
VQuestion
p7162
sg14
g7002
sVid
p7163
VT24
p7164
sa(dp7165
Vcategory
p7166
VQuestion
p7167
sg14
g7002
sVid
p7168
VT27
p7169
sa(dp7170
Vcategory
p7171
VQuestion
p7172
sg14
g7002
sVid
p7173
VT26
p7174
sassasV3AJA9FLWSCZ8AJE2BZRQ0UB7AGPIFV
p7175
(lp7176
(dp7177
V3TMSXRD2X6128J2TJJLL03B5II0W1E
p7178
(dp7179
VDaily_Science_Grade_5_Evan_Moor_53.jpeg
p7180
(lp7181
(dp7182
Vcategory
p7183
VFigure Label
p7184
sg14
VA3GNQDFPZALU92
p7185
sVid
p7186
VT14
p7187
sa(dp7188
Vcategory
p7189
VFigure Label
p7190
sg14
g7185
sVid
p7191
VT15
p7192
sa(dp7193
Vcategory
p7194
VFigure Label
p7195
sg14
g7185
sVid
p7196
VT16
p7197
sa(dp7198
Vcategory
p7199
VQuestion
p7200
sg14
g7185
sVid
p7201
VT17
p7202
sa(dp7203
Vcategory
p7204
VDefinition
p7205
sg14
g7185
sVid
p7206
VT10
p7207
sa(dp7208
Vcategory
p7209
Vunlabeled
p7210
sg14
g7185
sVid
p7211
VT11
p7212
sa(dp7213
Vcategory
p7214
VQuestion
p7215
sg14
g7185
sVid
p7216
VT12
p7217
sa(dp7218
Vcategory
p7219
VDefinition
p7220
sg14
g7185
sVid
p7221
VT13
p7222
sa(dp7223
Vcategory
p7224
Vunlabeled
p7225
sg14
g7185
sVid
p7226
VT18
p7227
sa(dp7228
Vcategory
p7229
Vunlabeled
p7230
sg14
g7185
sVid
p7231
VT19
p7232
sa(dp7233
Vcategory
p7234
VDefinition
p7235
sg14
g7185
sVid
p7236
VT8
p7237
sa(dp7238
Vcategory
p7239
VDiscussion
p7240
sg14
g7185
sVid
p7241
VT9
p7242
sa(dp7243
Vcategory
p7244
VDiscussion
p7245
sg14
g7185
sVid
p7246
VT6
p7247
sa(dp7248
Vcategory
p7249
VHeader/Topic
p7250
sg14
g7185
sVid
p7251
VT7
p7252
sa(dp7253
Vcategory
p7254
VHeader/Topic
p7255
sg14
g7185
sVid
p7256
VT4
p7257
sa(dp7258
Vcategory
p7259
VHeader/Topic
p7260
sg14
g7185
sVid
p7261
VT5
p7262
sa(dp7263
Vcategory
p7264
Vunlabeled
p7265
sg14
g7185
sVid
p7266
VT2
p7267
sa(dp7268
Vcategory
p7269
VHeader/Topic
p7270
sg14
g7185
sVid
p7271
VT3
p7272
sa(dp7273
Vcategory
p7274
VHeader/Topic
p7275
sg14
g7185
sVid
p7276
VT1
p7277
sa(dp7278
Vcategory
p7279
Vunlabeled
p7280
sg14
g7185
sVid
p7281
VT21
p7282
sa(dp7283
Vcategory
p7284
Vunlabeled
p7285
sg14
g7185
sVid
p7286
VT20
p7287
sa(dp7288
Vcategory
p7289
VHeader/Topic
p7290
sg14
g7185
sVid
p7291
VT23
p7292
sa(dp7293
Vcategory
p7294
VHeader/Topic
p7295
sg14
g7185
sVid
p7296
VT22
p7297
sa(dp7298
Vcategory
p7299
VHeader/Topic
p7300
sg14
g7185
sVid
p7301
VT25
p7302
sa(dp7303
Vcategory
p7304
VHeader/Topic
p7305
sg14
g7185
sVid
p7306
VT24
p7307
sa(dp7308
Vcategory
p7309
VHeader/Topic
p7310
sg14
g7185
sVid
p7311
VT26
p7312
sassa(dp7313
V3L4PIM1GQTHUQTWAWEIORREYXO4RYE
p7314
(dp7315
VDaily_Science_Grade_5_Evan_Moor_53.jpeg
p7316
(lp7317
(dp7318
Vcategory
p7319
VFigure Label
p7320
sg14
VA3OKWRLKLYVH4F
p7321
sVid
p7322
VT14
p7323
sa(dp7324
Vcategory
p7325
VFigure Label
p7326
sg14
g7321
sVid
p7327
VT15
p7328
sa(dp7329
Vcategory
p7330
VFigure Label
p7331
sg14
g7321
sVid
p7332
VT16
p7333
sa(dp7334
Vcategory
p7335
VQuestion
p7336
sg14
g7321
sVid
p7337
VT17
p7338
sa(dp7339
Vcategory
p7340
VDefinition
p7341
sg14
g7321
sVid
p7342
VT10
p7343
sa(dp7344
Vcategory
p7345
VDefinition
p7346
sg14
g7321
sVid
p7347
VT11
p7348
sa(dp7349
Vcategory
p7350
VQuestion
p7351
sg14
g7321
sVid
p7352
VT12
p7353
sa(dp7354
Vcategory
p7355
VDefinition
p7356
sg14
g7321
sVid
p7357
VT13
p7358
sa(dp7359
Vcategory
p7360
VQuestion
p7361
sg14
g7321
sVid
p7362
VT18
p7363
sa(dp7364
Vcategory
p7365
VQuestion
p7366
sg14
g7321
sVid
p7367
VT19
p7368
sa(dp7369
Vcategory
p7370
Vunlabeled
p7371
sg14
g7321
sVid
p7372
VT8
p7373
sa(dp7374
Vcategory
p7375
VDiscussion
p7376
sg14
g7321
sVid
p7377
VT9
p7378
sa(dp7379
Vcategory
p7380
VDiscussion
p7381
sg14
g7321
sVid
p7382
VT6
p7383
sa(dp7384
Vcategory
p7385
Vunlabeled
p7386
sg14
g7321
sVid
p7387
VT7
p7388
sa(dp7389
Vcategory
p7390
VHeader/Topic
p7391
sg14
g7321
sVid
p7392
VT4
p7393
sa(dp7394
Vcategory
p7395
Vunlabeled
p7396
sg14
g7321
sVid
p7397
VT5
p7398
sa(dp7399
Vcategory
p7400
Vunlabeled
p7401
sg14
g7321
sVid
p7402
VT2
p7403
sa(dp7404
Vcategory
p7405
Vunlabeled
p7406
sg14
g7321
sVid
p7407
VT3
p7408
sa(dp7409
Vcategory
p7410
Vunlabeled
p7411
sg14
g7321
sVid
p7412
VT1
p7413
sa(dp7414
Vcategory
p7415
Vunlabeled
p7416
sg14
g7321
sVid
p7417
VT21
p7418
sa(dp7419
Vcategory
p7420
VQuestion
p7421
sg14
g7321
sVid
p7422
VT20
p7423
sa(dp7424
Vcategory
p7425
Vunlabeled
p7426
sg14
g7321
sVid
p7427
VT23
p7428
sa(dp7429
Vcategory
p7430
Vunlabeled
p7431
sg14
g7321
sVid
p7432
VT22
p7433
sa(dp7434
Vcategory
p7435
Vunlabeled
p7436
sg14
g7321
sVid
p7437
VT25
p7438
sa(dp7439
Vcategory
p7440
Vunlabeled
p7441
sg14
g7321
sVid
p7442
VT24
p7443
sa(dp7444
Vcategory
p7445
Vunlabeled
p7446
sg14
g7321
sVid
p7447
VT26
p7448
sassa(dp7449
V3AWETUDC92TH2K3W2DQYR6M9GMPIZS
p7450
(dp7451
VDaily_Science_Grade_5_Evan_Moor_53.jpeg
p7452
(lp7453
(dp7454
Vcategory
p7455
VFigure Label
p7456
sg14
VA3TXJLD6JNR280
p7457
sVid
p7458
VT14
p7459
sa(dp7460
Vcategory
p7461
VFigure Label
p7462
sg14
g7457
sVid
p7463
VT15
p7464
sa(dp7465
Vcategory
p7466
VFigure Label
p7467
sg14
g7457
sVid
p7468
VT16
p7469
sa(dp7470
Vcategory
p7471
VQuestion
p7472
sg14
g7457
sVid
p7473
VT17
p7474
sa(dp7475
Vcategory
p7476
VDefinition
p7477
sg14
g7457
sVid
p7478
VT10
p7479
sa(dp7480
Vcategory
p7481
Vunlabeled
p7482
sg14
g7457
sVid
p7483
VT11
p7484
sa(dp7485
Vcategory
p7486
VQuestion
p7487
sg14
g7457
sVid
p7488
VT12
p7489
sa(dp7490
Vcategory
p7491
VDefinition
p7492
sg14
g7457
sVid
p7493
VT13
p7494
sa(dp7495
Vcategory
p7496
Vunlabeled
p7497
sg14
g7457
sVid
p7498
VT18
p7499
sa(dp7500
Vcategory
p7501
Vunlabeled
p7502
sg14
g7457
sVid
p7503
VT19
p7504
sa(dp7505
Vcategory
p7506
VDefinition
p7507
sg14
g7457
sVid
p7508
VT8
p7509
sa(dp7510
Vcategory
p7511
VDiscussion
p7512
sg14
g7457
sVid
p7513
VT9
p7514
sa(dp7515
Vcategory
p7516
VDiscussion
p7517
sg14
g7457
sVid
p7518
VT6
p7519
sa(dp7520
Vcategory
p7521
Vunlabeled
p7522
sg14
g7457
sVid
p7523
VT7
p7524
sa(dp7525
Vcategory
p7526
VHeader/Topic
p7527
sg14
g7457
sVid
p7528
VT4
p7529
sa(dp7530
Vcategory
p7531
Vunlabeled
p7532
sg14
g7457
sVid
p7533
VT5
p7534
sa(dp7535
Vcategory
p7536
Vunlabeled
p7537
sg14
g7457
sVid
p7538
VT2
p7539
sa(dp7540
Vcategory
p7541
Vunlabeled
p7542
sg14
g7457
sVid
p7543
VT3
p7544
sa(dp7545
Vcategory
p7546
Vunlabeled
p7547
sg14
g7457
sVid
p7548
VT1
p7549
sa(dp7550
Vcategory
p7551
Vunlabeled
p7552
sg14
g7457
sVid
p7553
VT21
p7554
sa(dp7555
Vcategory
p7556
Vunlabeled
p7557
sg14
g7457
sVid
p7558
VT20
p7559
sa(dp7560
Vcategory
p7561
Vunlabeled
p7562
sg14
g7457
sVid
p7563
VT23
p7564
sa(dp7565
Vcategory
p7566
Vunlabeled
p7567
sg14
g7457
sVid
p7568
VT22
p7569
sa(dp7570
Vcategory
p7571
Vunlabeled
p7572
sg14
g7457
sVid
p7573
VT25
p7574
sa(dp7575
Vcategory
p7576
Vunlabeled
p7577
sg14
g7457
sVid
p7578
VT24
p7579
sa(dp7580
Vcategory
p7581
Vunlabeled
p7582
sg14
g7457
sVid
p7583
VT26
p7584
sassasV33TGB4G0LPIFJJLY55WGK8DNP20XTH
p7585
(lp7586
(dp7587
V3SEPORI8WN02W2KYQPYLA8YQ3EDAZ9
p7588
(dp7589
VDaily_Science_Grade_5_Evan_Moor_97.jpeg
p7590
(lp7591
(dp7592
Vcategory
p7593
VDefinition
p7594
sg14
VA3GNQDFPZALU92
p7595
sVid
p7596
VT8
p7597
sa(dp7598
Vcategory
p7599
VDiscussion
p7600
sg14
g7595
sVid
p7601
VT9
p7602
sa(dp7603
Vcategory
p7604
VDiscussion
p7605
sg14
g7595
sVid
p7606
VT6
p7607
sa(dp7608
Vcategory
p7609
VDiscussion
p7610
sg14
g7595
sVid
p7611
VT7
p7612
sa(dp7613
Vcategory
p7614
VDiscussion
p7615
sg14
g7595
sVid
p7616
VT4
p7617
sa(dp7618
Vcategory
p7619
VHeader/Topic
p7620
sg14
g7595
sVid
p7621
VT5
p7622
sa(dp7623
Vcategory
p7624
Vunlabeled
p7625
sg14
g7595
sVid
p7626
VT2
p7627
sa(dp7628
Vcategory
p7629
VDiscussion
p7630
sg14
g7595
sVid
p7631
VT3
p7632
sa(dp7633
Vcategory
p7634
VHeader/Topic
p7635
sg14
g7595
sVid
p7636
VT1
p7637
sa(dp7638
Vcategory
p7639
Vunlabeled
p7640
sg14
g7595
sVid
p7641
VT14
p7642
sa(dp7643
Vcategory
p7644
Vunlabeled
p7645
sg14
g7595
sVid
p7646
VT15
p7647
sa(dp7648
Vcategory
p7649
Vunlabeled
p7650
sg14
g7595
sVid
p7651
VT16
p7652
sa(dp7653
Vcategory
p7654
Vunlabeled
p7655
sg14
g7595
sVid
p7656
VT17
p7657
sa(dp7658
Vcategory
p7659
VDefinition
p7660
sg14
g7595
sVid
p7661
VT10
p7662
sa(dp7663
Vcategory
p7664
VDefinition
p7665
sg14
g7595
sVid
p7666
VT11
p7667
sa(dp7668
Vcategory
p7669
Vunlabeled
p7670
sg14
g7595
sVid
p7671
VT12
p7672
sa(dp7673
Vcategory
p7674
VDefinition
p7675
sg14
g7595
sVid
p7676
VT13
p7677
sa(dp7678
Vcategory
p7679
Vunlabeled
p7680
sg14
g7595
sVid
p7681
VT18
p7682
sassa(dp7683
V3NXNZ5RS1AY5794NFOS2NTU7N3S97B
p7684
(dp7685
VDaily_Science_Grade_5_Evan_Moor_97.jpeg
p7686
(lp7687
(dp7688
Vcategory
p7689
VQuestion
p7690
sg14
VA3I9WD8P9RBFHR
p7691
sVid
p7692
VT8
p7693
sa(dp7694
Vcategory
p7695
VAnswer
p7696
sg14
g7691
sVid
p7697
VT9
p7698
sa(dp7699
Vcategory
p7700
VDiscussion
p7701
sg14
g7691
sVid
p7702
VT6
p7703
sa(dp7704
Vcategory
p7705
VDiscussion
p7706
sg14
g7691
sVid
p7707
VT7
p7708
sa(dp7709
Vcategory
p7710
VDiscussion
p7711
sg14
g7691
sVid
p7712
VT4
p7713
sa(dp7714
Vcategory
p7715
VHeader/Topic
p7716
sg14
g7691
sVid
p7717
VT5
p7718
sa(dp7719
Vcategory
p7720
Vunlabeled
p7721
sg14
g7691
sVid
p7722
VT2
p7723
sa(dp7724
Vcategory
p7725
VDiscussion
p7726
sg14
g7691
sVid
p7727
VT3
p7728
sa(dp7729
Vcategory
p7730
VHeader/Topic
p7731
sg14
g7691
sVid
p7732
VT1
p7733
sa(dp7734
Vcategory
p7735
Vunlabeled
p7736
sg14
g7691
sVid
p7737
VT14
p7738
sa(dp7739
Vcategory
p7740
Vunlabeled
p7741
sg14
g7691
sVid
p7742
VT15
p7743
sa(dp7744
Vcategory
p7745
Vunlabeled
p7746
sg14
g7691
sVid
p7747
VT16
p7748
sa(dp7749
Vcategory
p7750
Vunlabeled
p7751
sg14
g7691
sVid
p7752
VT17
p7753
sa(dp7754
Vcategory
p7755
VQuestion
p7756
sg14
g7691
sVid
p7757
VT10
p7758
sa(dp7759
Vcategory
p7760
VQuestion
p7761
sg14
g7691
sVid
p7762
VT11
p7763
sa(dp7764
Vcategory
p7765
VAnswer
p7766
sg14
g7691
sVid
p7767
VT12
p7768
sa(dp7769
Vcategory
p7770
VQuestion
p7771
sg14
g7691
sVid
p7772
VT13
p7773
sa(dp7774
Vcategory
p7775
Vunlabeled
p7776
sg14
g7691
sVid
p7777
VT18
p7778
sassa(dp7779
V35H6S234SA132MO6TOAT5ZP96WQ65J
p7780
(dp7781
VDaily_Science_Grade_5_Evan_Moor_97.jpeg
p7782
(lp7783
(dp7784
Vcategory
p7785
VDiscussion
p7786
sg14
VA3TXJLD6JNR280
p7787
sVid
p7788
VT8
p7789
sa(dp7790
Vcategory
p7791
VDiscussion
p7792
sg14
g7787
sVid
p7793
VT9
p7794
sa(dp7795
Vcategory
p7796
VDiscussion
p7797
sg14
g7787
sVid
p7798
VT6
p7799
sa(dp7800
Vcategory
p7801
VDiscussion
p7802
sg14
g7787
sVid
p7803
VT7
p7804
sa(dp7805
Vcategory
p7806
Vunlabeled
p7807
sg14
g7787
sVid
p7808
VT4
p7809
sa(dp7810
Vcategory
p7811
VHeader/Topic
p7812
sg14
g7787
sVid
p7813
VT5
p7814
sa(dp7815
Vcategory
p7816
Vunlabeled
p7817
sg14
g7787
sVid
p7818
VT2
p7819
sa(dp7820
Vcategory
p7821
Vunlabeled
p7822
sg14
g7787
sVid
p7823
VT3
p7824
sa(dp7825
Vcategory
p7826
Vunlabeled
p7827
sg14
g7787
sVid
p7828
VT1
p7829
sa(dp7830
Vcategory
p7831
Vunlabeled
p7832
sg14
g7787
sVid
p7833
VT14
p7834
sa(dp7835
Vcategory
p7836
Vunlabeled
p7837
sg14
g7787
sVid
p7838
VT15
p7839
sa(dp7840
Vcategory
p7841
Vunlabeled
p7842
sg14
g7787
sVid
p7843
VT16
p7844
sa(dp7845
Vcategory
p7846
Vunlabeled
p7847
sg14
g7787
sVid
p7848
VT17
p7849
sa(dp7850
Vcategory
p7851
VDiscussion
p7852
sg14
g7787
sVid
p7853
VT10
p7854
sa(dp7855
Vcategory
p7856
VDiscussion
p7857
sg14
g7787
sVid
p7858
VT11
p7859
sa(dp7860
Vcategory
p7861
Vunlabeled
p7862
sg14
g7787
sVid
p7863
VT12
p7864
sa(dp7865
Vcategory
p7866
VDiscussion
p7867
sg14
g7787
sVid
p7868
VT13
p7869
sa(dp7870
Vcategory
p7871
Vunlabeled
p7872
sg14
g7787
sVid
p7873
VT18
p7874
sassasV37MQ8Z1JQEXAZPHVRMYM2ZB6RVI2Y1
p7875
(lp7876
(dp7877
V3R3YRB5GRF4LA3QOK2ZDTGJB1W0UA6
p7878
(dp7879
VDaily_Science_Grade_4_Evan_Moor_90.jpeg
p7880
(lp7881
(dp7882
Vcategory
p7883
Vunlabeled
p7884
sg14
VA2RSOGTSR83XKO
p7885
sVid
p7886
VT8
p7887
sa(dp7888
Vcategory
p7889
VQuestion
p7890
sg14
g7885
sVid
p7891
VT9
p7892
sa(dp7893
Vcategory
p7894
Vunlabeled
p7895
sg14
g7885
sVid
p7896
VT6
p7897
sa(dp7898
Vcategory
p7899
VDiscussion
p7900
sg14
g7885
sVid
p7901
VT7
p7902
sa(dp7903
Vcategory
p7904
VHeader/Topic
p7905
sg14
g7885
sVid
p7906
VT4
p7907
sa(dp7908
Vcategory
p7909
Vunlabeled
p7910
sg14
g7885
sVid
p7911
VT5
p7912
sa(dp7913
Vcategory
p7914
Vunlabeled
p7915
sg14
g7885
sVid
p7916
VT2
p7917
sa(dp7918
Vcategory
p7919
Vunlabeled
p7920
sg14
g7885
sVid
p7921
VT3
p7922
sa(dp7923
Vcategory
p7924
Vunlabeled
p7925
sg14
g7885
sVid
p7926
VT1
p7927
sa(dp7928
Vcategory
p7929
VQuestion
p7930
sg14
g7885
sVid
p7931
VT14
p7932
sa(dp7933
Vcategory
p7934
VQuestion
p7935
sg14
g7885
sVid
p7936
VT15
p7937
sa(dp7938
Vcategory
p7939
VQuestion
p7940
sg14
g7885
sVid
p7941
VT16
p7942
sa(dp7943
Vcategory
p7944
Vunlabeled
p7945
sg14
g7885
sVid
p7946
VT17
p7947
sa(dp7948
Vcategory
p7949
Vunlabeled
p7950
sg14
g7885
sVid
p7951
VT10
p7952
sa(dp7953
Vcategory
p7954
Vunlabeled
p7955
sg14
g7885
sVid
p7956
VT11
p7957
sa(dp7958
Vcategory
p7959
VQuestion
p7960
sg14
g7885
sVid
p7961
VT12
p7962
sa(dp7963
Vcategory
p7964
VQuestion
p7965
sg14
g7885
sVid
p7966
VT13
p7967
sa(dp7968
Vcategory
p7969
Vunlabeled
p7970
sg14
g7885
sVid
p7971
VT20
p7972
sa(dp7973
Vcategory
p7974
Vunlabeled
p7975
sg14
g7885
sVid
p7976
VT18
p7977
sa(dp7978
Vcategory
p7979
Vunlabeled
p7980
sg14
g7885
sVid
p7981
VT19
p7982
sassa(dp7983
V32M8BPYGATNHB38RCL296Z635WUGI0
p7984
(dp7985
VDaily_Science_Grade_4_Evan_Moor_90.jpeg
p7986
(lp7987
(dp7988
Vcategory
p7989
Vunlabeled
p7990
sg14
VA36PFUM96J0ES6
p7991
sVid
p7992
VT8
p7993
sa(dp7994
Vcategory
p7995
VQuestion
p7996
sg14
g7991
sVid
p7997
VT9
p7998
sa(dp7999
Vcategory
p8000
Vunlabeled
p8001
sg14
g7991
sVid
p8002
VT6
p8003
sa(dp8004
Vcategory
p8005
VDiscussion
p8006
sg14
g7991
sVid
p8007
VT7
p8008
sa(dp8009
Vcategory
p8010
VHeader/Topic
p8011
sg14
g7991
sVid
p8012
VT4
p8013
sa(dp8014
Vcategory
p8015
Vunlabeled
p8016
sg14
g7991
sVid
p8017
VT5
p8018
sa(dp8019
Vcategory
p8020
Vunlabeled
p8021
sg14
g7991
sVid
p8022
VT2
p8023
sa(dp8024
Vcategory
p8025
Vunlabeled
p8026
sg14
g7991
sVid
p8027
VT3
p8028
sa(dp8029
Vcategory
p8030
Vunlabeled
p8031
sg14
g7991
sVid
p8032
VT1
p8033
sa(dp8034
Vcategory
p8035
VQuestion
p8036
sg14
g7991
sVid
p8037
VT14
p8038
sa(dp8039
Vcategory
p8040
VQuestion
p8041
sg14
g7991
sVid
p8042
VT15
p8043
sa(dp8044
Vcategory
p8045
VQuestion
p8046
sg14
g7991
sVid
p8047
VT16
p8048
sa(dp8049
Vcategory
p8050
Vunlabeled
p8051
sg14
g7991
sVid
p8052
VT17
p8053
sa(dp8054
Vcategory
p8055
Vunlabeled
p8056
sg14
g7991
sVid
p8057
VT10
p8058
sa(dp8059
Vcategory
p8060
Vunlabeled
p8061
sg14
g7991
sVid
p8062
VT11
p8063
sa(dp8064
Vcategory
p8065
VQuestion
p8066
sg14
g7991
sVid
p8067
VT12
p8068
sa(dp8069
Vcategory
p8070
VQuestion
p8071
sg14
g7991
sVid
p8072
VT13
p8073
sa(dp8074
Vcategory
p8075
Vunlabeled
p8076
sg14
g7991
sVid
p8077
VT20
p8078
sa(dp8079
Vcategory
p8080
Vunlabeled
p8081
sg14
g7991
sVid
p8082
VT18
p8083
sa(dp8084
Vcategory
p8085
Vunlabeled
p8086
sg14
g7991
sVid
p8087
VT19
p8088
sassa(dp8089
V3RXPCZQMQPC6BXCT4EH3E0PHOUMG1B
p8090
(dp8091
VDaily_Science_Grade_4_Evan_Moor_90.jpeg
p8092
(lp8093
(dp8094
Vcategory
p8095
Vunlabeled
p8096
sg14
VA3TXJLD6JNR280
p8097
sVid
p8098
VT8
p8099
sa(dp8100
Vcategory
p8101
VQuestion
p8102
sg14
g8097
sVid
p8103
VT9
p8104
sa(dp8105
Vcategory
p8106
Vunlabeled
p8107
sg14
g8097
sVid
p8108
VT6
p8109
sa(dp8110
Vcategory
p8111
VDiscussion
p8112
sg14
g8097
sVid
p8113
VT7
p8114
sa(dp8115
Vcategory
p8116
VHeader/Topic
p8117
sg14
g8097
sVid
p8118
VT4
p8119
sa(dp8120
Vcategory
p8121
Vunlabeled
p8122
sg14
g8097
sVid
p8123
VT5
p8124
sa(dp8125
Vcategory
p8126
Vunlabeled
p8127
sg14
g8097
sVid
p8128
VT2
p8129
sa(dp8130
Vcategory
p8131
Vunlabeled
p8132
sg14
g8097
sVid
p8133
VT3
p8134
sa(dp8135
Vcategory
p8136
Vunlabeled
p8137
sg14
g8097
sVid
p8138
VT1
p8139
sa(dp8140
Vcategory
p8141
VQuestion
p8142
sg14
g8097
sVid
p8143
VT14
p8144
sa(dp8145
Vcategory
p8146
VQuestion
p8147
sg14
g8097
sVid
p8148
VT15
p8149
sa(dp8150
Vcategory
p8151
VQuestion
p8152
sg14
g8097
sVid
p8153
VT16
p8154
sa(dp8155
Vcategory
p8156
Vunlabeled
p8157
sg14
g8097
sVid
p8158
VT17
p8159
sa(dp8160
Vcategory
p8161
Vunlabeled
p8162
sg14
g8097
sVid
p8163
VT10
p8164
sa(dp8165
Vcategory
p8166
Vunlabeled
p8167
sg14
g8097
sVid
p8168
VT11
p8169
sa(dp8170
Vcategory
p8171
VQuestion
p8172
sg14
g8097
sVid
p8173
VT12
p8174
sa(dp8175
Vcategory
p8176
VQuestion
p8177
sg14
g8097
sVid
p8178
VT13
p8179
sa(dp8180
Vcategory
p8181
Vunlabeled
p8182
sg14
g8097
sVid
p8183
VT20
p8184
sa(dp8185
Vcategory
p8186
Vunlabeled
p8187
sg14
g8097
sVid
p8188
VT18
p8189
sa(dp8190
Vcategory
p8191
Vunlabeled
p8192
sg14
g8097
sVid
p8193
VT19
p8194
sassasV36AZSFEYZ41NJ8MM544DWTAG3KSBV2
p8195
(lp8196
(dp8197
V31LVTDXBL7BAQUPBDZTYXJC2O92LRI
p8198
(dp8199
VDaily_Science_Grade_4_Evan_Moor_19.jpeg
p8200
(lp8201
(dp8202
Vcategory
p8203
VFigure Label
p8204
sg14
VA3I9WD8P9RBFHR
p8205
sVid
p8206
VT14
p8207
sa(dp8208
Vcategory
p8209
VFigure Label
p8210
sg14
g8205
sVid
p8211
VT15
p8212
sa(dp8213
Vcategory
p8214
VQuestion
p8215
sg14
g8205
sVid
p8216
VT16
p8217
sa(dp8218
Vcategory
p8219
VQuestion
p8220
sg14
g8205
sVid
p8221
VT17
p8222
sa(dp8223
Vcategory
p8224
Vunlabeled
p8225
sg14
g8205
sVid
p8226
VT10
p8227
sa(dp8228
Vcategory
p8229
VDiscussion
p8230
sg14
g8205
sVid
p8231
VT11
p8232
sa(dp8233
Vcategory
p8234
Vunlabeled
p8235
sg14
g8205
sVid
p8236
VT12
p8237
sa(dp8238
Vcategory
p8239
VDefinition
p8240
sg14
g8205
sVid
p8241
VT13
p8242
sa(dp8243
Vcategory
p8244
VQuestion
p8245
sg14
g8205
sVid
p8246
VT18
p8247
sa(dp8248
Vcategory
p8249
VQuestion
p8250
sg14
g8205
sVid
p8251
VT19
p8252
sa(dp8253
Vcategory
p8254
Vunlabeled
p8255
sg14
g8205
sVid
p8256
VT8
p8257
sa(dp8258
Vcategory
p8259
VDefinition
p8260
sg14
g8205
sVid
p8261
VT9
p8262
sa(dp8263
Vcategory
p8264
VDiscussion
p8265
sg14
g8205
sVid
p8266
VT6
p8267
sa(dp8268
Vcategory
p8269
Vunlabeled
p8270
sg14
g8205
sVid
p8271
VT7
p8272
sa(dp8273
Vcategory
p8274
VHeader/Topic
p8275
sg14
g8205
sVid
p8276
VT4
p8277
sa(dp8278
Vcategory
p8279
Vunlabeled
p8280
sg14
g8205
sVid
p8281
VT5
p8282
sa(dp8283
Vcategory
p8284
Vunlabeled
p8285
sg14
g8205
sVid
p8286
VT2
p8287
sa(dp8288
Vcategory
p8289
Vunlabeled
p8290
sg14
g8205
sVid
p8291
VT3
p8292
sa(dp8293
Vcategory
p8294
Vunlabeled
p8295
sg14
g8205
sVid
p8296
VT1
p8297
sa(dp8298
Vcategory
p8299
Vunlabeled
p8300
sg14
g8205
sVid
p8301
VT28
p8302
sa(dp8303
Vcategory
p8304
VQuestion
p8305
sg14
g8205
sVid
p8306
VT21
p8307
sa(dp8308
Vcategory
p8309
VQuestion
p8310
sg14
g8205
sVid
p8311
VT20
p8312
sa(dp8313
Vcategory
p8314
VQuestion
p8315
sg14
g8205
sVid
p8316
VT23
p8317
sa(dp8318
Vcategory
p8319
VQuestion
p8320
sg14
g8205
sVid
p8321
VT22
p8322
sa(dp8323
Vcategory
p8324
Vunlabeled
p8325
sg14
g8205
sVid
p8326
VT25
p8327
sa(dp8328
Vcategory
p8329
VQuestion
p8330
sg14
g8205
sVid
p8331
VT24
p8332
sa(dp8333
Vcategory
p8334
Vunlabeled
p8335
sg14
g8205
sVid
p8336
VT27
p8337
sa(dp8338
Vcategory
p8339
Vunlabeled
p8340
sg14
g8205
sVid
p8341
VT26
p8342
sassa(dp8343
V38YMOXR4MU0XF53QPPX2VZ2MQTUW6Q
p8344
(dp8345
VDaily_Science_Grade_4_Evan_Moor_19.jpeg
p8346
(lp8347
(dp8348
Vcategory
p8349
VFigure Label
p8350
sg14
VA36PFUM96J0ES6
p8351
sVid
p8352
VT14
p8353
sa(dp8354
Vcategory
p8355
VFigure Label
p8356
sg14
g8351
sVid
p8357
VT15
p8358
sa(dp8359
Vcategory
p8360
VQuestion
p8361
sg14
g8351
sVid
p8362
VT16
p8363
sa(dp8364
Vcategory
p8365
VQuestion
p8366
sg14
g8351
sVid
p8367
VT17
p8368
sa(dp8369
Vcategory
p8370
Vunlabeled
p8371
sg14
g8351
sVid
p8372
VT10
p8373
sa(dp8374
Vcategory
p8375
VDiscussion
p8376
sg14
g8351
sVid
p8377
VT11
p8378
sa(dp8379
Vcategory
p8380
Vunlabeled
p8381
sg14
g8351
sVid
p8382
VT12
p8383
sa(dp8384
Vcategory
p8385
VDefinition
p8386
sg14
g8351
sVid
p8387
VT13
p8388
sa(dp8389
Vcategory
p8390
VQuestion
p8391
sg14
g8351
sVid
p8392
VT18
p8393
sa(dp8394
Vcategory
p8395
VQuestion
p8396
sg14
g8351
sVid
p8397
VT19
p8398
sa(dp8399
Vcategory
p8400
Vunlabeled
p8401
sg14
g8351
sVid
p8402
VT8
p8403
sa(dp8404
Vcategory
p8405
VDefinition
p8406
sg14
g8351
sVid
p8407
VT9
p8408
sa(dp8409
Vcategory
p8410
VDiscussion
p8411
sg14
g8351
sVid
p8412
VT6
p8413
sa(dp8414
Vcategory
p8415
Vunlabeled
p8416
sg14
g8351
sVid
p8417
VT7
p8418
sa(dp8419
Vcategory
p8420
VHeader/Topic
p8421
sg14
g8351
sVid
p8422
VT4
p8423
sa(dp8424
Vcategory
p8425
Vunlabeled
p8426
sg14
g8351
sVid
p8427
VT5
p8428
sa(dp8429
Vcategory
p8430
Vunlabeled
p8431
sg14
g8351
sVid
p8432
VT2
p8433
sa(dp8434
Vcategory
p8435
Vunlabeled
p8436
sg14
g8351
sVid
p8437
VT3
p8438
sa(dp8439
Vcategory
p8440
Vunlabeled
p8441
sg14
g8351
sVid
p8442
VT1
p8443
sa(dp8444
Vcategory
p8445
Vunlabeled
p8446
sg14
g8351
sVid
p8447
VT28
p8448
sa(dp8449
Vcategory
p8450
VQuestion
p8451
sg14
g8351
sVid
p8452
VT21
p8453
sa(dp8454
Vcategory
p8455
VQuestion
p8456
sg14
g8351
sVid
p8457
VT20
p8458
sa(dp8459
Vcategory
p8460
Vunlabeled
p8461
sg14
g8351
sVid
p8462
VT23
p8463
sa(dp8464
Vcategory
p8465
VQuestion
p8466
sg14
g8351
sVid
p8467
VT22
p8468
sa(dp8469
Vcategory
p8470
Vunlabeled
p8471
sg14
g8351
sVid
p8472
VT25
p8473
sa(dp8474
Vcategory
p8475
Vunlabeled
p8476
sg14
g8351
sVid
p8477
VT24
p8478
sa(dp8479
Vcategory
p8480
Vunlabeled
p8481
sg14
g8351
sVid
p8482
VT27
p8483
sa(dp8484
Vcategory
p8485
Vunlabeled
p8486
sg14
g8351
sVid
p8487
VT26
p8488
sassa(dp8489
V3ZR9AIQJUBAQSSYRDUB2R694TX4406
p8490
(dp8491
VDaily_Science_Grade_4_Evan_Moor_19.jpeg
p8492
(lp8493
(dp8494
Vcategory
p8495
VFigure Label
p8496
sg14
VAPLQSM4J9E6LR
p8497
sVid
p8498
VT14
p8499
sa(dp8500
Vcategory
p8501
VFigure Label
p8502
sg14
g8497
sVid
p8503
VT15
p8504
sa(dp8505
Vcategory
p8506
VQuestion
p8507
sg14
g8497
sVid
p8508
VT16
p8509
sa(dp8510
Vcategory
p8511
VQuestion
p8512
sg14
g8497
sVid
p8513
VT17
p8514
sa(dp8515
Vcategory
p8516
Vunlabeled
p8517
sg14
g8497
sVid
p8518
VT10
p8519
sa(dp8520
Vcategory
p8521
VDiscussion
p8522
sg14
g8497
sVid
p8523
VT11
p8524
sa(dp8525
Vcategory
p8526
Vunlabeled
p8527
sg14
g8497
sVid
p8528
VT12
p8529
sa(dp8530
Vcategory
p8531
VDefinition
p8532
sg14
g8497
sVid
p8533
VT13
p8534
sa(dp8535
Vcategory
p8536
VQuestion
p8537
sg14
g8497
sVid
p8538
VT18
p8539
sa(dp8540
Vcategory
p8541
VQuestion
p8542
sg14
g8497
sVid
p8543
VT19
p8544
sa(dp8545
Vcategory
p8546
VDefinition
p8547
sg14
g8497
sVid
p8548
VT8
p8549
sa(dp8550
Vcategory
p8551
VDefinition
p8552
sg14
g8497
sVid
p8553
VT9
p8554
sa(dp8555
Vcategory
p8556
VDiscussion
p8557
sg14
g8497
sVid
p8558
VT6
p8559
sa(dp8560
Vcategory
p8561
Vunlabeled
p8562
sg14
g8497
sVid
p8563
VT7
p8564
sa(dp8565
Vcategory
p8566
VHeader/Topic
p8567
sg14
g8497
sVid
p8568
VT4
p8569
sa(dp8570
Vcategory
p8571
Vunlabeled
p8572
sg14
g8497
sVid
p8573
VT5
p8574
sa(dp8575
Vcategory
p8576
Vunlabeled
p8577
sg14
g8497
sVid
p8578
VT2
p8579
sa(dp8580
Vcategory
p8581
Vunlabeled
p8582
sg14
g8497
sVid
p8583
VT3
p8584
sa(dp8585
Vcategory
p8586
Vunlabeled
p8587
sg14
g8497
sVid
p8588
VT1
p8589
sa(dp8590
Vcategory
p8591
Vunlabeled
p8592
sg14
g8497
sVid
p8593
VT28
p8594
sa(dp8595
Vcategory
p8596
VQuestion
p8597
sg14
g8497
sVid
p8598
VT21
p8599
sa(dp8600
Vcategory
p8601
VQuestion
p8602
sg14
g8497
sVid
p8603
VT20
p8604
sa(dp8605
Vcategory
p8606
Vunlabeled
p8607
sg14
g8497
sVid
p8608
VT23
p8609
sa(dp8610
Vcategory
p8611
VQuestion
p8612
sg14
g8497
sVid
p8613
VT22
p8614
sa(dp8615
Vcategory
p8616
Vunlabeled
p8617
sg14
g8497
sVid
p8618
VT25
p8619
sa(dp8620
Vcategory
p8621
Vunlabeled
p8622
sg14
g8497
sVid
p8623
VT24
p8624
sa(dp8625
Vcategory
p8626
Vunlabeled
p8627
sg14
g8497
sVid
p8628
VT27
p8629
sa(dp8630
Vcategory
p8631
Vunlabeled
p8632
sg14
g8497
sVid
p8633
VT26
p8634
sassasV30Z7M1Q8UYLKPMLHRXT79462A47A82
p8635
(lp8636
(dp8637
V39ASUFLU6X8GHK1V5CCM9686GTGEXE
p8638
(dp8639
VDaily_Science_Grade_3_(Daily_Practice_Books)_Evan_Moore_174.jpeg
p8640
(lp8641
(dp8642
Vcategory
p8643
Vunlabeled
p8644
sg14
VA2RSOGTSR83XKO
p8645
sVid
p8646
VT8
p8647
sa(dp8648
Vcategory
p8649
VDiscussion
p8650
sg14
g8645
sVid
p8651
VT9
p8652
sa(dp8653
Vcategory
p8654
Vunlabeled
p8655
sg14
g8645
sVid
p8656
VT6
p8657
sa(dp8658
Vcategory
p8659
VDiscussion
p8660
sg14
g8645
sVid
p8661
VT7
p8662
sa(dp8663
Vcategory
p8664
Vunlabeled
p8665
sg14
g8645
sVid
p8666
VT4
p8667
sa(dp8668
Vcategory
p8669
VHeader/Topic
p8670
sg14
g8645
sVid
p8671
VT5
p8672
sa(dp8673
Vcategory
p8674
Vunlabeled
p8675
sg14
g8645
sVid
p8676
VT2
p8677
sa(dp8678
Vcategory
p8679
Vunlabeled
p8680
sg14
g8645
sVid
p8681
VT3
p8682
sa(dp8683
Vcategory
p8684
Vunlabeled
p8685
sg14
g8645
sVid
p8686
VT1
p8687
sa(dp8688
Vcategory
p8689
VQuestion
p8690
sg14
g8645
sVid
p8691
VT14
p8692
sa(dp8693
Vcategory
p8694
VQuestion
p8695
sg14
g8645
sVid
p8696
VT15
p8697
sa(dp8698
Vcategory
p8699
VQuestion
p8700
sg14
g8645
sVid
p8701
VT16
p8702
sa(dp8703
Vcategory
p8704
Vunlabeled
p8705
sg14
g8645
sVid
p8706
VT17
p8707
sa(dp8708
Vcategory
p8709
VDefinition
p8710
sg14
g8645
sVid
p8711
VT10
p8712
sa(dp8713
Vcategory
p8714
VDefinition
p8715
sg14
g8645
sVid
p8716
VT11
p8717
sa(dp8718
Vcategory
p8719
VDiscussion
p8720
sg14
g8645
sVid
p8721
VT12
p8722
sa(dp8723
Vcategory
p8724
VQuestion
p8725
sg14
g8645
sVid
p8726
VT13
p8727
sa(dp8728
Vcategory
p8729
Vunlabeled
p8730
sg14
g8645
sVid
p8731
VT18
p8732
sa(dp8733
Vcategory
p8734
Vunlabeled
p8735
sg14
g8645
sVid
p8736
VT19
p8737
sassa(dp8738
V31QNSG6A5RU5T4LDAWMONXZW3X787I
p8739
(dp8740
VDaily_Science_Grade_3_(Daily_Practice_Books)_Evan_Moore_174.jpeg
p8741
(lp8742
(dp8743
Vcategory
p8744
Vunlabeled
p8745
sg14
VA3TXJLD6JNR280
p8746
sVid
p8747
VT8
p8748
sa(dp8749
Vcategory
p8750
VDiscussion
p8751
sg14
g8746
sVid
p8752
VT9
p8753
sa(dp8754
Vcategory
p8755
Vunlabeled
p8756
sg14
g8746
sVid
p8757
VT6
p8758
sa(dp8759
Vcategory
p8760
VDiscussion
p8761
sg14
g8746
sVid
p8762
VT7
p8763
sa(dp8764
Vcategory
p8765
Vunlabeled
p8766
sg14
g8746
sVid
p8767
VT4
p8768
sa(dp8769
Vcategory
p8770
VHeader/Topic
p8771
sg14
g8746
sVid
p8772
VT5
p8773
sa(dp8774
Vcategory
p8775
Vunlabeled
p8776
sg14
g8746
sVid
p8777
VT2
p8778
sa(dp8779
Vcategory
p8780
Vunlabeled
p8781
sg14
g8746
sVid
p8782
VT3
p8783
sa(dp8784
Vcategory
p8785
Vunlabeled
p8786
sg14
g8746
sVid
p8787
VT1
p8788
sa(dp8789
Vcategory
p8790
VQuestion
p8791
sg14
g8746
sVid
p8792
VT14
p8793
sa(dp8794
Vcategory
p8795
VQuestion
p8796
sg14
g8746
sVid
p8797
VT15
p8798
sa(dp8799
Vcategory
p8800
VQuestion
p8801
sg14
g8746
sVid
p8802
VT16
p8803
sa(dp8804
Vcategory
p8805
Vunlabeled
p8806
sg14
g8746
sVid
p8807
VT17
p8808
sa(dp8809
Vcategory
p8810
Vunlabeled
p8811
sg14
g8746
sVid
p8812
VT10
p8813
sa(dp8814
Vcategory
p8815
VDefinition
p8816
sg14
g8746
sVid
p8817
VT11
p8818
sa(dp8819
Vcategory
p8820
VDiscussion
p8821
sg14
g8746
sVid
p8822
VT12
p8823
sa(dp8824
Vcategory
p8825
VQuestion
p8826
sg14
g8746
sVid
p8827
VT13
p8828
sa(dp8829
Vcategory
p8830
Vunlabeled
p8831
sg14
g8746
sVid
p8832
VT18
p8833
sa(dp8834
Vcategory
p8835
Vunlabeled
p8836
sg14
g8746
sVid
p8837
VT19
p8838
sassa(dp8839
V3JNQLM5FT4NTMA8QY9EXWB4UDIZL2J
p8840
(dp8841
VDaily_Science_Grade_3_(Daily_Practice_Books)_Evan_Moore_174.jpeg
p8842
(lp8843
(dp8844
Vcategory
p8845
Vunlabeled
p8846
sg14
VA3KIE6ZNXVEIAY
p8847
sVid
p8848
VT8
p8849
sa(dp8850
Vcategory
p8851
VDiscussion
p8852
sg14
g8847
sVid
p8853
VT9
p8854
sa(dp8855
Vcategory
p8856
Vunlabeled
p8857
sg14
g8847
sVid
p8858
VT6
p8859
sa(dp8860
Vcategory
p8861
VDiscussion
p8862
sg14
g8847
sVid
p8863
VT7
p8864
sa(dp8865
Vcategory
p8866
Vunlabeled
p8867
sg14
g8847
sVid
p8868
VT4
p8869
sa(dp8870
Vcategory
p8871
VHeader/Topic
p8872
sg14
g8847
sVid
p8873
VT5
p8874
sa(dp8875
Vcategory
p8876
Vunlabeled
p8877
sg14
g8847
sVid
p8878
VT2
p8879
sa(dp8880
Vcategory
p8881
Vunlabeled
p8882
sg14
g8847
sVid
p8883
VT3
p8884
sa(dp8885
Vcategory
p8886
Vunlabeled
p8887
sg14
g8847
sVid
p8888
VT1
p8889
sa(dp8890
Vcategory
p8891
VQuestion
p8892
sg14
g8847
sVid
p8893
VT14
p8894
sa(dp8895
Vcategory
p8896
VQuestion
p8897
sg14
g8847
sVid
p8898
VT15
p8899
sa(dp8900
Vcategory
p8901
VQuestion
p8902
sg14
g8847
sVid
p8903
VT16
p8904
sa(dp8905
Vcategory
p8906
Vunlabeled
p8907
sg14
g8847
sVid
p8908
VT17
p8909
sa(dp8910
Vcategory
p8911
Vunlabeled
p8912
sg14
g8847
sVid
p8913
VT10
p8914
sa(dp8915
Vcategory
p8916
VDefinition
p8917
sg14
g8847
sVid
p8918
VT11
p8919
sa(dp8920
Vcategory
p8921
VDiscussion
p8922
sg14
g8847
sVid
p8923
VT12
p8924
sa(dp8925
Vcategory
p8926
VQuestion
p8927
sg14
g8847
sVid
p8928
VT13
p8929
sa(dp8930
Vcategory
p8931
Vunlabeled
p8932
sg14
g8847
sVid
p8933
VT18
p8934
sa(dp8935
Vcategory
p8936
Vunlabeled
p8937
sg14
g8847
sVid
p8938
VT19
p8939
sassasV3D17ECOUOEW2U12BJX5I7M5OQO931F
p8940
(lp8941
(dp8942
V3YW4XOSQKQMPGFDOOJ6KIFQ8X2S1UN
p8943
(dp8944
VDaily_Science_Grade_4_Evan_Moor_126.jpeg
p8945
(lp8946
(dp8947
Vcategory
p8948
Vunlabeled
p8949
sg14
VA333VJ2K6O6R79
p8950
sVid
p8951
VT14
p8952
sa(dp8953
Vcategory
p8954
Vunlabeled
p8955
sg14
g8950
sVid
p8956
VT15
p8957
sa(dp8958
Vcategory
p8959
Vunlabeled
p8960
sg14
g8950
sVid
p8961
VT16
p8962
sa(dp8963
Vcategory
p8964
VQuestion
p8965
sg14
g8950
sVid
p8966
VT17
p8967
sa(dp8968
Vcategory
p8969
Vunlabeled
p8970
sg14
g8950
sVid
p8971
VT10
p8972
sa(dp8973
Vcategory
p8974
Vunlabeled
p8975
sg14
g8950
sVid
p8976
VT11
p8977
sa(dp8978
Vcategory
p8979
Vunlabeled
p8980
sg14
g8950
sVid
p8981
VT12
p8982
sa(dp8983
Vcategory
p8984
Vunlabeled
p8985
sg14
g8950
sVid
p8986
VT13
p8987
sa(dp8988
Vcategory
p8989
VQuestion
p8990
sg14
g8950
sVid
p8991
VT18
p8992
sa(dp8993
Vcategory
p8994
VQuestion
p8995
sg14
g8950
sVid
p8996
VT19
p8997
sa(dp8998
Vcategory
p8999
Vunlabeled
p9000
sg14
g8950
sVid
p9001
VT8
p9002
sa(dp9003
Vcategory
p9004
Vunlabeled
p9005
sg14
g8950
sVid
p9006
VT9
p9007
sa(dp9008
Vcategory
p9009
Vunlabeled
p9010
sg14
g8950
sVid
p9011
VT6
p9012
sa(dp9013
Vcategory
p9014
VDiscussion
p9015
sg14
g8950
sVid
p9016
VT7
p9017
sa(dp9018
Vcategory
p9019
Vunlabeled
p9020
sg14
g8950
sVid
p9021
VT4
p9022
sa(dp9023
Vcategory
p9024
VHeader/Topic
p9025
sg14
g8950
sVid
p9026
VT5
p9027
sa(dp9028
Vcategory
p9029
Vunlabeled
p9030
sg14
g8950
sVid
p9031
VT2
p9032
sa(dp9033
Vcategory
p9034
Vunlabeled
p9035
sg14
g8950
sVid
p9036
VT3
p9037
sa(dp9038
Vcategory
p9039
Vunlabeled
p9040
sg14
g8950
sVid
p9041
VT1
p9042
sa(dp9043
Vcategory
p9044
Vunlabeled
p9045
sg14
g8950
sVid
p9046
VT21
p9047
sa(dp9048
Vcategory
p9049
Vunlabeled
p9050
sg14
g8950
sVid
p9051
VT20
p9052
sa(dp9053
Vcategory
p9054
Vunlabeled
p9055
sg14
g8950
sVid
p9056
VT23
p9057
sa(dp9058
Vcategory
p9059
Vunlabeled
p9060
sg14
g8950
sVid
p9061
VT22
p9062
sassa(dp9063
V3STRJBFXOWSCM3KLWOMSIY05NUSKTP
p9064
(dp9065
VDaily_Science_Grade_4_Evan_Moor_126.jpeg
p9066
(lp9067
(dp9068
Vcategory
p9069
VQuestion
p9070
sg14
VAK0FB4XV3SBMB
p9071
sVid
p9072
VT14
p9073
sa(dp9074
Vcategory
p9075
VQuestion
p9076
sg14
g9071
sVid
p9077
VT15
p9078
sa(dp9079
Vcategory
p9080
Vunlabeled
p9081
sg14
g9071
sVid
p9082
VT16
p9083
sa(dp9084
Vcategory
p9085
VQuestion
p9086
sg14
g9071
sVid
p9087
VT17
p9088
sa(dp9089
Vcategory
p9090
VQuestion
p9091
sg14
g9071
sVid
p9092
VT10
p9093
sa(dp9094
Vcategory
p9095
VQuestion
p9096
sg14
g9071
sVid
p9097
VT11
p9098
sa(dp9099
Vcategory
p9100
VQuestion
p9101
sg14
g9071
sVid
p9102
VT12
p9103
sa(dp9104
Vcategory
p9105
VQuestion
p9106
sg14
g9071
sVid
p9107
VT13
p9108
sa(dp9109
Vcategory
p9110
VQuestion
p9111
sg14
g9071
sVid
p9112
VT18
p9113
sa(dp9114
Vcategory
p9115
VQuestion
p9116
sg14
g9071
sVid
p9117
VT19
p9118
sa(dp9119
Vcategory
p9120
Vunlabeled
p9121
sg14
g9071
sVid
p9122
VT8
p9123
sa(dp9124
Vcategory
p9125
VQuestion
p9126
sg14
g9071
sVid
p9127
VT9
p9128
sa(dp9129
Vcategory
p9130
Vunlabeled
p9131
sg14
g9071
sVid
p9132
VT6
p9133
sa(dp9134
Vcategory
p9135
VQuestion
p9136
sg14
g9071
sVid
p9137
VT7
p9138
sa(dp9139
Vcategory
p9140
Vunlabeled
p9141
sg14
g9071
sVid
p9142
VT4
p9143
sa(dp9144
Vcategory
p9145
VHeader/Topic
p9146
sg14
g9071
sVid
p9147
VT5
p9148
sa(dp9149
Vcategory
p9150
Vunlabeled
p9151
sg14
g9071
sVid
p9152
VT2
p9153
sa(dp9154
Vcategory
p9155
Vunlabeled
p9156
sg14
g9071
sVid
p9157
VT3
p9158
sa(dp9159
Vcategory
p9160
Vunlabeled
p9161
sg14
g9071
sVid
p9162
VT1
p9163
sa(dp9164
Vcategory
p9165
Vunlabeled
p9166
sg14
g9071
sVid
p9167
VT21
p9168
sa(dp9169
Vcategory
p9170
Vunlabeled
p9171
sg14
g9071
sVid
p9172
VT20
p9173
sa(dp9174
Vcategory
p9175
Vunlabeled
p9176
sg14
g9071
sVid
p9177
VT23
p9178
sa(dp9179
Vcategory
p9180
Vunlabeled
p9181
sg14
g9071
sVid
p9182
VT22
p9183
sassa(dp9184
V3GU1KF0O4I2D18NK9U0FELGIBXXBPQ
p9185
(dp9186
VDaily_Science_Grade_4_Evan_Moor_126.jpeg
p9187
(lp9188
(dp9189
Vcategory
p9190
VDiscussion
p9191
sg14
VAPLQSM4J9E6LR
p9192
sVid
p9193
VT14
p9194
sa(dp9195
Vcategory
p9196
Vunlabeled
p9197
sg14
g9192
sVid
p9198
VT15
p9199
sa(dp9200
Vcategory
p9201
VQuestion
p9202
sg14
g9192
sVid
p9203
VT16
p9204
sa(dp9205
Vcategory
p9206
VQuestion
p9207
sg14
g9192
sVid
p9208
VT17
p9209
sa(dp9210
Vcategory
p9211
VDiscussion
p9212
sg14
g9192
sVid
p9213
VT10
p9214
sa(dp9215
Vcategory
p9216
VDiscussion
p9217
sg14
g9192
sVid
p9218
VT11
p9219
sa(dp9220
Vcategory
p9221
VDiscussion
p9222
sg14
g9192
sVid
p9223
VT12
p9224
sa(dp9225
Vcategory
p9226
VDiscussion
p9227
sg14
g9192
sVid
p9228
VT13
p9229
sa(dp9230
Vcategory
p9231
VQuestion
p9232
sg14
g9192
sVid
p9233
VT18
p9234
sa(dp9235
Vcategory
p9236
VQuestion
p9237
sg14
g9192
sVid
p9238
VT19
p9239
sa(dp9240
Vcategory
p9241
Vunlabeled
p9242
sg14
g9192
sVid
p9243
VT8
p9244
sa(dp9245
Vcategory
p9246
VDiscussion
p9247
sg14
g9192
sVid
p9248
VT9
p9249
sa(dp9250
Vcategory
p9251
Vunlabeled
p9252
sg14
g9192
sVid
p9253
VT6
p9254
sa(dp9255
Vcategory
p9256
VDiscussion
p9257
sg14
g9192
sVid
p9258
VT7
p9259
sa(dp9260
Vcategory
p9261
Vunlabeled
p9262
sg14
g9192
sVid
p9263
VT4
p9264
sa(dp9265
Vcategory
p9266
VHeader/Topic
p9267
sg14
g9192
sVid
p9268
VT5
p9269
sa(dp9270
Vcategory
p9271
Vunlabeled
p9272
sg14
g9192
sVid
p9273
VT2
p9274
sa(dp9275
Vcategory
p9276
Vunlabeled
p9277
sg14
g9192
sVid
p9278
VT3
p9279
sa(dp9280
Vcategory
p9281
Vunlabeled
p9282
sg14
g9192
sVid
p9283
VT1
p9284
sa(dp9285
Vcategory
p9286
Vunlabeled
p9287
sg14
g9192
sVid
p9288
VT21
p9289
sa(dp9290
Vcategory
p9291
Vunlabeled
p9292
sg14
g9192
sVid
p9293
VT20
p9294
sa(dp9295
Vcategory
p9296
Vunlabeled
p9297
sg14
g9192
sVid
p9298
VT23
p9299
sa(dp9300
Vcategory
p9301
Vunlabeled
p9302
sg14
g9192
sVid
p9303
VT22
p9304
sassasV3PCPFX4U40RLRH2LO7WZ9W2T1Q6FQV
p9305
(lp9306
(dp9307
V3SNVL38CI4TV0MIAA2R2TO01Z8OKC2
p9308
(dp9309
VDaily_Science_Grade_4_Evan_Moor_132.jpeg
p9310
(lp9311
(dp9312
Vcategory
p9313
VQuestion
p9314
sg14
VA36PFUM96J0ES6
p9315
sVid
p9316
VT14
p9317
sa(dp9318
Vcategory
p9319
VQuestion
p9320
sg14
g9315
sVid
p9321
VT15
p9322
sa(dp9323
Vcategory
p9324
VQuestion
p9325
sg14
g9315
sVid
p9326
VT16
p9327
sa(dp9328
Vcategory
p9329
VQuestion
p9330
sg14
g9315
sVid
p9331
VT17
p9332
sa(dp9333
Vcategory
p9334
VDefinition
p9335
sg14
g9315
sVid
p9336
VT10
p9337
sa(dp9338
Vcategory
p9339
VDefinition
p9340
sg14
g9315
sVid
p9341
VT11
p9342
sa(dp9343
Vcategory
p9344
VQuestion
p9345
sg14
g9315
sVid
p9346
VT12
p9347
sa(dp9348
Vcategory
p9349
VQuestion
p9350
sg14
g9315
sVid
p9351
VT13
p9352
sa(dp9353
Vcategory
p9354
Vunlabeled
p9355
sg14
g9315
sVid
p9356
VT18
p9357
sa(dp9358
Vcategory
p9359
Vunlabeled
p9360
sg14
g9315
sVid
p9361
VT19
p9362
sa(dp9363
Vcategory
p9364
Vunlabeled
p9365
sg14
g9315
sVid
p9366
VT8
p9367
sa(dp9368
Vcategory
p9369
Vunlabeled
p9370
sg14
g9315
sVid
p9371
VT9
p9372
sa(dp9373
Vcategory
p9374
Vunlabeled
p9375
sg14
g9315
sVid
p9376
VT6
p9377
sa(dp9378
Vcategory
p9379
VDiscussion
p9380
sg14
g9315
sVid
p9381
VT7
p9382
sa(dp9383
Vcategory
p9384
VHeader/Topic
p9385
sg14
g9315
sVid
p9386
VT4
p9387
sa(dp9388
Vcategory
p9389
Vunlabeled
p9390
sg14
g9315
sVid
p9391
VT5
p9392
sa(dp9393
Vcategory
p9394
Vunlabeled
p9395
sg14
g9315
sVid
p9396
VT2
p9397
sa(dp9398
Vcategory
p9399
Vunlabeled
p9400
sg14
g9315
sVid
p9401
VT3
p9402
sa(dp9403
Vcategory
p9404
Vunlabeled
p9405
sg14
g9315
sVid
p9406
VT1
p9407
sa(dp9408
Vcategory
p9409
Vunlabeled
p9410
sg14
g9315
sVid
p9411
VT21
p9412
sa(dp9413
Vcategory
p9414
Vunlabeled
p9415
sg14
g9315
sVid
p9416
VT20
p9417
sa(dp9418
Vcategory
p9419
Vunlabeled
p9420
sg14
g9315
sVid
p9421
VT23
p9422
sa(dp9423
Vcategory
p9424
Vunlabeled
p9425
sg14
g9315
sVid
p9426
VT22
p9427
sassa(dp9428
V3ON104KXQKXJ0IZC614NY1I8U2OW45
p9429
(dp9430
VDaily_Science_Grade_4_Evan_Moor_132.jpeg
p9431
(lp9432
(dp9433
Vcategory
p9434
VQuestion
p9435
sg14
VA03922113RU44GENR8ATX
p9436
sVid
p9437
VT14
p9438
sa(dp9439
Vcategory
p9440
VQuestion
p9441
sg14
g9436
sVid
p9442
VT15
p9443
sa(dp9444
Vcategory
p9445
VQuestion
p9446
sg14
g9436
sVid
p9447
VT16
p9448
sa(dp9449
Vcategory
p9450
VQuestion
p9451
sg14
g9436
sVid
p9452
VT17
p9453
sa(dp9454
Vcategory
p9455
VDefinition
p9456
sg14
g9436
sVid
p9457
VT10
p9458
sa(dp9459
Vcategory
p9460
VDefinition
p9461
sg14
g9436
sVid
p9462
VT11
p9463
sa(dp9464
Vcategory
p9465
VQuestion
p9466
sg14
g9436
sVid
p9467
VT12
p9468
sa(dp9469
Vcategory
p9470
VQuestion
p9471
sg14
g9436
sVid
p9472
VT13
p9473
sa(dp9474
Vcategory
p9475
VQuestion
p9476
sg14
g9436
sVid
p9477
VT18
p9478
sa(dp9479
Vcategory
p9480
VQuestion
p9481
sg14
g9436
sVid
p9482
VT19
p9483
sa(dp9484
Vcategory
p9485
Vunlabeled
p9486
sg14
g9436
sVid
p9487
VT8
p9488
sa(dp9489
Vcategory
p9490
Vunlabeled
p9491
sg14
g9436
sVid
p9492
VT9
p9493
sa(dp9494
Vcategory
p9495
Vunlabeled
p9496
sg14
g9436
sVid
p9497
VT6
p9498
sa(dp9499
Vcategory
p9500
VDiscussion
p9501
sg14
g9436
sVid
p9502
VT7
p9503
sa(dp9504
Vcategory
p9505
VHeader/Topic
p9506
sg14
g9436
sVid
p9507
VT4
p9508
sa(dp9509
Vcategory
p9510
Vunlabeled
p9511
sg14
g9436
sVid
p9512
VT5
p9513
sa(dp9514
Vcategory
p9515
Vunlabeled
p9516
sg14
g9436
sVid
p9517
VT2
p9518
sa(dp9519
Vcategory
p9520
Vunlabeled
p9521
sg14
g9436
sVid
p9522
VT3
p9523
sa(dp9524
Vcategory
p9525
Vunlabeled
p9526
sg14
g9436
sVid
p9527
VT1
p9528
sa(dp9529
Vcategory
p9530
Vunlabeled
p9531
sg14
g9436
sVid
p9532
VT21
p9533
sa(dp9534
Vcategory
p9535
Vunlabeled
p9536
sg14
g9436
sVid
p9537
VT20
p9538
sa(dp9539
Vcategory
p9540
Vunlabeled
p9541
sg14
g9436
sVid
p9542
VT23
p9543
sa(dp9544
Vcategory
p9545
Vunlabeled
p9546
sg14
g9436
sVid
p9547
VT22
p9548
sassa(dp9549
V3L4D84MILZTR6AN8E95R30X4XBWHJC
p9550
(dp9551
VDaily_Science_Grade_4_Evan_Moor_132.jpeg
p9552
(lp9553
(dp9554
Vcategory
p9555
VQuestion
p9556
sg14
VAPLQSM4J9E6LR
p9557
sVid
p9558
VT14
p9559
sa(dp9560
Vcategory
p9561
VQuestion
p9562
sg14
g9557
sVid
p9563
VT15
p9564
sa(dp9565
Vcategory
p9566
VQuestion
p9567
sg14
g9557
sVid
p9568
VT16
p9569
sa(dp9570
Vcategory
p9571
VQuestion
p9572
sg14
g9557
sVid
p9573
VT17
p9574
sa(dp9575
Vcategory
p9576
VDefinition
p9577
sg14
g9557
sVid
p9578
VT10
p9579
sa(dp9580
Vcategory
p9581
VDefinition
p9582
sg14
g9557
sVid
p9583
VT11
p9584
sa(dp9585
Vcategory
p9586
VQuestion
p9587
sg14
g9557
sVid
p9588
VT12
p9589
sa(dp9590
Vcategory
p9591
VQuestion
p9592
sg14
g9557
sVid
p9593
VT13
p9594
sa(dp9595
Vcategory
p9596
Vunlabeled
p9597
sg14
g9557
sVid
p9598
VT18
p9599
sa(dp9600
Vcategory
p9601
Vunlabeled
p9602
sg14
g9557
sVid
p9603
VT19
p9604
sa(dp9605
Vcategory
p9606
Vunlabeled
p9607
sg14
g9557
sVid
p9608
VT8
p9609
sa(dp9610
Vcategory
p9611
VDefinition
p9612
sg14
g9557
sVid
p9613
VT9
p9614
sa(dp9615
Vcategory
p9616
Vunlabeled
p9617
sg14
g9557
sVid
p9618
VT6
p9619
sa(dp9620
Vcategory
p9621
VDiscussion
p9622
sg14
g9557
sVid
p9623
VT7
p9624
sa(dp9625
Vcategory
p9626
VHeader/Topic
p9627
sg14
g9557
sVid
p9628
VT4
p9629
sa(dp9630
Vcategory
p9631
Vunlabeled
p9632
sg14
g9557
sVid
p9633
VT5
p9634
sa(dp9635
Vcategory
p9636
Vunlabeled
p9637
sg14
g9557
sVid
p9638
VT2
p9639
sa(dp9640
Vcategory
p9641
Vunlabeled
p9642
sg14
g9557
sVid
p9643
VT3
p9644
sa(dp9645
Vcategory
p9646
Vunlabeled
p9647
sg14
g9557
sVid
p9648
VT1
p9649
sa(dp9650
Vcategory
p9651
Vunlabeled
p9652
sg14
g9557
sVid
p9653
VT21
p9654
sa(dp9655
Vcategory
p9656
Vunlabeled
p9657
sg14
g9557
sVid
p9658
VT20
p9659
sa(dp9660
Vcategory
p9661
Vunlabeled
p9662
sg14
g9557
sVid
p9663
VT23
p9664
sa(dp9665
Vcategory
p9666
Vunlabeled
p9667
sg14
g9557
sVid
p9668
VT22
p9669
sassasV3LXX8KJXPWA95VYS6843AVLIJRTO94
p9670
(lp9671
(dp9672
V3FPRZHYEPY8L3XG3GDU82U7O9TNV36
p9673
(dp9674
VDaily_Science_Grade_5_Evan_Moor_156.jpeg
p9675
(lp9676
(dp9677
Vcategory
p9678
VDiscussion
p9679
sg14
VA3GNQDFPZALU92
p9680
sVid
p9681
VT14
p9682
sa(dp9683
Vcategory
p9684
VDiscussion
p9685
sg14
g9680
sVid
p9686
VT15
p9687
sa(dp9688
Vcategory
p9689
VDiscussion
p9690
sg14
g9680
sVid
p9691
VT16
p9692
sa(dp9693
Vcategory
p9694
VQuestion
p9695
sg14
g9680
sVid
p9696
VT17
p9697
sa(dp9698
Vcategory
p9699
VDiscussion
p9700
sg14
g9680
sVid
p9701
VT10
p9702
sa(dp9703
Vcategory
p9704
VDiscussion
p9705
sg14
g9680
sVid
p9706
VT11
p9707
sa(dp9708
Vcategory
p9709
VDiscussion
p9710
sg14
g9680
sVid
p9711
VT12
p9712
sa(dp9713
Vcategory
p9714
VDiscussion
p9715
sg14
g9680
sVid
p9716
VT13
p9717
sa(dp9718
Vcategory
p9719
VQuestion
p9720
sg14
g9680
sVid
p9721
VT18
p9722
sa(dp9723
Vcategory
p9724
VQuestion
p9725
sg14
g9680
sVid
p9726
VT19
p9727
sa(dp9728
Vcategory
p9729
Vunlabeled
p9730
sg14
g9680
sVid
p9731
VT8
p9732
sa(dp9733
Vcategory
p9734
VDiscussion
p9735
sg14
g9680
sVid
p9736
VT9
p9737
sa(dp9738
Vcategory
p9739
Vunlabeled
p9740
sg14
g9680
sVid
p9741
VT6
p9742
sa(dp9743
Vcategory
p9744
VDiscussion
p9745
sg14
g9680
sVid
p9746
VT7
p9747
sa(dp9748
Vcategory
p9749
VHeader/Topic
p9750
sg14
g9680
sVid
p9751
VT4
p9752
sa(dp9753
Vcategory
p9754
VHeader/Topic
p9755
sg14
g9680
sVid
p9756
VT5
p9757
sa(dp9758
Vcategory
p9759
Vunlabeled
p9760
sg14
g9680
sVid
p9761
VT2
p9762
sa(dp9763
Vcategory
p9764
Vunlabeled
p9765
sg14
g9680
sVid
p9766
VT3
p9767
sa(dp9768
Vcategory
p9769
Vunlabeled
p9770
sg14
g9680
sVid
p9771
VT1
p9772
sa(dp9773
Vcategory
p9774
VQuestion
p9775
sg14
g9680
sVid
p9776
VT21
p9777
sa(dp9778
Vcategory
p9779
VQuestion
p9780
sg14
g9680
sVid
p9781
VT20
p9782
sa(dp9783
Vcategory
p9784
Vunlabeled
p9785
sg14
g9680
sVid
p9786
VT23
p9787
sa(dp9788
Vcategory
p9789
Vunlabeled
p9790
sg14
g9680
sVid
p9791
VT22
p9792
sa(dp9793
Vcategory
p9794
Vunlabeled
p9795
sg14
g9680
sVid
p9796
VT24
p9797
sassa(dp9798
V33LK57MYLT66WY6S7PKCV8SWPKUSZX
p9799
(dp9800
VDaily_Science_Grade_5_Evan_Moor_156.jpeg
p9801
(lp9802
(dp9803
Vcategory
p9804
VDiscussion
p9805
sg14
VA3I9WD8P9RBFHR
p9806
sVid
p9807
VT14
p9808
sa(dp9809
Vcategory
p9810
VDiscussion
p9811
sg14
g9806
sVid
p9812
VT15
p9813
sa(dp9814
Vcategory
p9815
VDiscussion
p9816
sg14
g9806
sVid
p9817
VT16
p9818
sa(dp9819
Vcategory
p9820
VQuestion
p9821
sg14
g9806
sVid
p9822
VT17
p9823
sa(dp9824
Vcategory
p9825
VDiscussion
p9826
sg14
g9806
sVid
p9827
VT10
p9828
sa(dp9829
Vcategory
p9830
VDiscussion
p9831
sg14
g9806
sVid
p9832
VT11
p9833
sa(dp9834
Vcategory
p9835
VDiscussion
p9836
sg14
g9806
sVid
p9837
VT12
p9838
sa(dp9839
Vcategory
p9840
VDiscussion
p9841
sg14
g9806
sVid
p9842
VT13
p9843
sa(dp9844
Vcategory
p9845
VQuestion
p9846
sg14
g9806
sVid
p9847
VT18
p9848
sa(dp9849
Vcategory
p9850
VQuestion
p9851
sg14
g9806
sVid
p9852
VT19
p9853
sa(dp9854
Vcategory
p9855
Vunlabeled
p9856
sg14
g9806
sVid
p9857
VT8
p9858
sa(dp9859
Vcategory
p9860
Vunlabeled
p9861
sg14
g9806
sVid
p9862
VT9
p9863
sa(dp9864
Vcategory
p9865
Vunlabeled
p9866
sg14
g9806
sVid
p9867
VT6
p9868
sa(dp9869
Vcategory
p9870
VDiscussion
p9871
sg14
g9806
sVid
p9872
VT7
p9873
sa(dp9874
Vcategory
p9875
Vunlabeled
p9876
sg14
g9806
sVid
p9877
VT4
p9878
sa(dp9879
Vcategory
p9880
VHeader/Topic
p9881
sg14
g9806
sVid
p9882
VT5
p9883
sa(dp9884
Vcategory
p9885
Vunlabeled
p9886
sg14
g9806
sVid
p9887
VT2
p9888
sa(dp9889
Vcategory
p9890
Vunlabeled
p9891
sg14
g9806
sVid
p9892
VT3
p9893
sa(dp9894
Vcategory
p9895
Vunlabeled
p9896
sg14
g9806
sVid
p9897
VT1
p9898
sa(dp9899
Vcategory
p9900
VQuestion
p9901
sg14
g9806
sVid
p9902
VT21
p9903
sa(dp9904
Vcategory
p9905
VQuestion
p9906
sg14
g9806
sVid
p9907
VT20
p9908
sa(dp9909
Vcategory
p9910
Vunlabeled
p9911
sg14
g9806
sVid
p9912
VT23
p9913
sa(dp9914
Vcategory
p9915
Vunlabeled
p9916
sg14
g9806
sVid
p9917
VT22
p9918
sa(dp9919
Vcategory
p9920
Vunlabeled
p9921
sg14
g9806
sVid
p9922
VT24
p9923
sassa(dp9924
V31LM9EDVOLTJG69JH7048KU0JN8NJU
p9925
(dp9926
VDaily_Science_Grade_5_Evan_Moor_156.jpeg
p9927
(lp9928
(dp9929
Vcategory
p9930
Vunlabeled
p9931
sg14
VA3TXJLD6JNR280
p9932
sVid
p9933
VT14
p9934
sa(dp9935
Vcategory
p9936
Vunlabeled
p9937
sg14
g9932
sVid
p9938
VT15
p9939
sa(dp9940
Vcategory
p9941
VDiscussion
p9942
sg14
g9932
sVid
p9943
VT16
p9944
sa(dp9945
Vcategory
p9946
Vunlabeled
p9947
sg14
g9932
sVid
p9948
VT17
p9949
sa(dp9950
Vcategory
p9951
VQuestion
p9952
sg14
g9932
sVid
p9953
VT10
p9954
sa(dp9955
Vcategory
p9956
VDiscussion
p9957
sg14
g9932
sVid
p9958
VT11
p9959
sa(dp9960
Vcategory
p9961
VQuestion
p9962
sg14
g9932
sVid
p9963
VT12
p9964
sa(dp9965
Vcategory
p9966
VQuestion
p9967
sg14
g9932
sVid
p9968
VT13
p9969
sa(dp9970
Vcategory
p9971
VQuestion
p9972
sg14
g9932
sVid
p9973
VT18
p9974
sa(dp9975
Vcategory
p9976
VQuestion
p9977
sg14
g9932
sVid
p9978
VT19
p9979
sa(dp9980
Vcategory
p9981
Vunlabeled
p9982
sg14
g9932
sVid
p9983
VT8
p9984
sa(dp9985
Vcategory
p9986
VDiscussion
p9987
sg14
g9932
sVid
p9988
VT9
p9989
sa(dp9990
Vcategory
p9991
Vunlabeled
p9992
sg14
g9932
sVid
p9993
VT6
p9994
sa(dp9995
Vcategory
p9996
VDiscussion
p9997
sg14
g9932
sVid
p9998
VT7
p9999
sa(dp10000
Vcategory
p10001
Vunlabeled
p10002
sg14
g9932
sVid
p10003
VT4
p10004
sa(dp10005
Vcategory
p10006
VHeader/Topic
p10007
sg14
g9932
sVid
p10008
VT5
p10009
sa(dp10010
Vcategory
p10011
Vunlabeled
p10012
sg14
g9932
sVid
p10013
VT2
p10014
sa(dp10015
Vcategory
p10016
Vunlabeled
p10017
sg14
g9932
sVid
p10018
VT3
p10019
sa(dp10020
Vcategory
p10021
Vunlabeled
p10022
sg14
g9932
sVid
p10023
VT1
p10024
sa(dp10025
Vcategory
p10026
VQuestion
p10027
sg14
g9932
sVid
p10028
VT21
p10029
sa(dp10030
Vcategory
p10031
VQuestion
p10032
sg14
g9932
sVid
p10033
VT20
p10034
sa(dp10035
Vcategory
p10036
Vunlabeled
p10037
sg14
g9932
sVid
p10038
VT23
p10039
sa(dp10040
Vcategory
p10041
Vunlabeled
p10042
sg14
g9932
sVid
p10043
VT22
p10044
sa(dp10045
Vcategory
p10046
Vunlabeled
p10047
sg14
g9932
sVid
p10048
VT24
p10049
sassasV3OID399FXG8R28YGJLQF9XVUIBHDFO
p10050
(lp10051
(dp10052
V3WYP994K17S14AYQ4QFQGWN211O6YT
p10053
(dp10054
VDaily_Science_Grade_5_Evan_Moor_30.jpeg
p10055
(lp10056
(dp10057
Vcategory
p10058
VQuestion
p10059
sg14
VA36PFUM96J0ES6
p10060
sVid
p10061
VT14
p10062
sa(dp10063
Vcategory
p10064
VQuestion
p10065
sg14
g10060
sVid
p10066
VT15
p10067
sa(dp10068
Vcategory
p10069
VQuestion
p10070
sg14
g10060
sVid
p10071
VT16
p10072
sa(dp10073
Vcategory
p10074
VQuestion
p10075
sg14
g10060
sVid
p10076
VT17
p10077
sa(dp10078
Vcategory
p10079
VDefinition
p10080
sg14
g10060
sVid
p10081
VT10
p10082
sa(dp10083
Vcategory
p10084
VFigure Label
p10085
sg14
g10060
sVid
p10086
VT11
p10087
sa(dp10088
Vcategory
p10089
VFigure Label
p10090
sg14
g10060
sVid
p10091
VT12
p10092
sa(dp10093
Vcategory
p10094
VQuestion
p10095
sg14
g10060
sVid
p10096
VT13
p10097
sa(dp10098
Vcategory
p10099
VQuestion
p10100
sg14
g10060
sVid
p10101
VT18
p10102
sa(dp10103
Vcategory
p10104
VQuestion
p10105
sg14
g10060
sVid
p10106
VT19
p10107
sa(dp10108
Vcategory
p10109
VDefinition
p10110
sg14
g10060
sVid
p10111
VT8
p10112
sa(dp10113
Vcategory
p10114
Vunlabeled
p10115
sg14
g10060
sVid
p10116
VT9
p10117
sa(dp10118
Vcategory
p10119
VDiscussion
p10120
sg14
g10060
sVid
p10121
VT6
p10122
sa(dp10123
Vcategory
p10124
Vunlabeled
p10125
sg14
g10060
sVid
p10126
VT7
p10127
sa(dp10128
Vcategory
p10129
VHeader/Topic
p10130
sg14
g10060
sVid
p10131
VT4
p10132
sa(dp10133
Vcategory
p10134
Vunlabeled
p10135
sg14
g10060
sVid
p10136
VT5
p10137
sa(dp10138
Vcategory
p10139
Vunlabeled
p10140
sg14
g10060
sVid
p10141
VT2
p10142
sa(dp10143
Vcategory
p10144
Vunlabeled
p10145
sg14
g10060
sVid
p10146
VT3
p10147
sa(dp10148
Vcategory
p10149
Vunlabeled
p10150
sg14
g10060
sVid
p10151
VT1
p10152
sa(dp10153
Vcategory
p10154
VQuestion
p10155
sg14
g10060
sVid
p10156
VT21
p10157
sa(dp10158
Vcategory
p10159
VQuestion
p10160
sg14
g10060
sVid
p10161
VT20
p10162
sa(dp10163
Vcategory
p10164
Vunlabeled
p10165
sg14
g10060
sVid
p10166
VT23
p10167
sa(dp10168
Vcategory
p10169
VQuestion
p10170
sg14
g10060
sVid
p10171
VT22
p10172
sa(dp10173
Vcategory
p10174
Vunlabeled
p10175
sg14
g10060
sVid
p10176
VT25
p10177
sa(dp10178
Vcategory
p10179
Vunlabeled
p10180
sg14
g10060
sVid
p10181
VT24
p10182
sa(dp10183
Vcategory
p10184
Vunlabeled
p10185
sg14
g10060
sVid
p10186
VT26
p10187
sassa(dp10188
V3AAPLD8UCCILKDJDQ3JV56KDVDPHTJ
p10189
(dp10190
VDaily_Science_Grade_5_Evan_Moor_30.jpeg
p10191
(lp10192
(dp10193
Vcategory
p10194
VQuestion
p10195
sg14
VA2D3TM156X7Y61
p10196
sVid
p10197
VT14
p10198
sa(dp10199
Vcategory
p10200
VQuestion
p10201
sg14
g10196
sVid
p10202
VT15
p10203
sa(dp10204
Vcategory
p10205
VQuestion
p10206
sg14
g10196
sVid
p10207
VT16
p10208
sa(dp10209
Vcategory
p10210
VQuestion
p10211
sg14
g10196
sVid
p10212
VT17
p10213
sa(dp10214
Vcategory
p10215
VDefinition
p10216
sg14
g10196
sVid
p10217
VT10
p10218
sa(dp10219
Vcategory
p10220
VFigure Label
p10221
sg14
g10196
sVid
p10222
VT11
p10223
sa(dp10224
Vcategory
p10225
VFigure Label
p10226
sg14
g10196
sVid
p10227
VT12
p10228
sa(dp10229
Vcategory
p10230
VQuestion
p10231
sg14
g10196
sVid
p10232
VT13
p10233
sa(dp10234
Vcategory
p10235
VQuestion
p10236
sg14
g10196
sVid
p10237
VT18
p10238
sa(dp10239
Vcategory
p10240
VQuestion
p10241
sg14
g10196
sVid
p10242
VT19
p10243
sa(dp10244
Vcategory
p10245
VDefinition
p10246
sg14
g10196
sVid
p10247
VT8
p10248
sa(dp10249
Vcategory
p10250
Vunlabeled
p10251
sg14
g10196
sVid
p10252
VT9
p10253
sa(dp10254
Vcategory
p10255
VDiscussion
p10256
sg14
g10196
sVid
p10257
VT6
p10258
sa(dp10259
Vcategory
p10260
Vunlabeled
p10261
sg14
g10196
sVid
p10262
VT7
p10263
sa(dp10264
Vcategory
p10265
VHeader/Topic
p10266
sg14
g10196
sVid
p10267
VT4
p10268
sa(dp10269
Vcategory
p10270
Vunlabeled
p10271
sg14
g10196
sVid
p10272
VT5
p10273
sa(dp10274
Vcategory
p10275
Vunlabeled
p10276
sg14
g10196
sVid
p10277
VT2
p10278
sa(dp10279
Vcategory
p10280
Vunlabeled
p10281
sg14
g10196
sVid
p10282
VT3
p10283
sa(dp10284
Vcategory
p10285
Vunlabeled
p10286
sg14
g10196
sVid
p10287
VT1
p10288
sa(dp10289
Vcategory
p10290
VQuestion
p10291
sg14
g10196
sVid
p10292
VT21
p10293
sa(dp10294
Vcategory
p10295
VQuestion
p10296
sg14
g10196
sVid
p10297
VT20
p10298
sa(dp10299
Vcategory
p10300
Vunlabeled
p10301
sg14
g10196
sVid
p10302
VT23
p10303
sa(dp10304
Vcategory
p10305
VQuestion
p10306
sg14
g10196
sVid
p10307
VT22
p10308
sa(dp10309
Vcategory
p10310
Vunlabeled
p10311
sg14
g10196
sVid
p10312
VT25
p10313
sa(dp10314
Vcategory
p10315
Vunlabeled
p10316
sg14
g10196
sVid
p10317
VT24
p10318
sa(dp10319
Vcategory
p10320
Vunlabeled
p10321
sg14
g10196
sVid
p10322
VT26
p10323
sassa(dp10324
V3JJVG1YBEBY98Y51PFR1GFB1LYC5BH
p10325
(dp10326
VDaily_Science_Grade_5_Evan_Moor_30.jpeg
p10327
(lp10328
(dp10329
Vcategory
p10330
VQuestion
p10331
sg14
VA3KIE6ZNXVEIAY
p10332
sVid
p10333
VT14
p10334
sa(dp10335
Vcategory
p10336
VQuestion
p10337
sg14
g10332
sVid
p10338
VT15
p10339
sa(dp10340
Vcategory
p10341
VQuestion
p10342
sg14
g10332
sVid
p10343
VT16
p10344
sa(dp10345
Vcategory
p10346
VQuestion
p10347
sg14
g10332
sVid
p10348
VT17
p10349
sa(dp10350
Vcategory
p10351
VDefinition
p10352
sg14
g10332
sVid
p10353
VT10
p10354
sa(dp10355
Vcategory
p10356
VFigure Label
p10357
sg14
g10332
sVid
p10358
VT11
p10359
sa(dp10360
Vcategory
p10361
VFigure Label
p10362
sg14
g10332
sVid
p10363
VT12
p10364
sa(dp10365
Vcategory
p10366
VQuestion
p10367
sg14
g10332
sVid
p10368
VT13
p10369
sa(dp10370
Vcategory
p10371
VQuestion
p10372
sg14
g10332
sVid
p10373
VT18
p10374
sa(dp10375
Vcategory
p10376
VQuestion
p10377
sg14
g10332
sVid
p10378
VT19
p10379
sa(dp10380
Vcategory
p10381
VDefinition
p10382
sg14
g10332
sVid
p10383
VT8
p10384
sa(dp10385
Vcategory
p10386
Vunlabeled
p10387
sg14
g10332
sVid
p10388
VT9
p10389
sa(dp10390
Vcategory
p10391
VDiscussion
p10392
sg14
g10332
sVid
p10393
VT6
p10394
sa(dp10395
Vcategory
p10396
Vunlabeled
p10397
sg14
g10332
sVid
p10398
VT7
p10399
sa(dp10400
Vcategory
p10401
VHeader/Topic
p10402
sg14
g10332
sVid
p10403
VT4
p10404
sa(dp10405
Vcategory
p10406
Vunlabeled
p10407
sg14
g10332
sVid
p10408
VT5
p10409
sa(dp10410
Vcategory
p10411
Vunlabeled
p10412
sg14
g10332
sVid
p10413
VT2
p10414
sa(dp10415
Vcategory
p10416
Vunlabeled
p10417
sg14
g10332
sVid
p10418
VT3
p10419
sa(dp10420
Vcategory
p10421
Vunlabeled
p10422
sg14
g10332
sVid
p10423
VT1
p10424
sa(dp10425
Vcategory
p10426
VQuestion
p10427
sg14
g10332
sVid
p10428
VT21
p10429
sa(dp10430
Vcategory
p10431
VQuestion
p10432
sg14
g10332
sVid
p10433
VT20
p10434
sa(dp10435
Vcategory
p10436
Vunlabeled
p10437
sg14
g10332
sVid
p10438
VT23
p10439
sa(dp10440
Vcategory
p10441
VQuestion
p10442
sg14
g10332
sVid
p10443
VT22
p10444
sa(dp10445
Vcategory
p10446
Vunlabeled
p10447
sg14
g10332
sVid
p10448
VT25
p10449
sa(dp10450
Vcategory
p10451
Vunlabeled
p10452
sg14
g10332
sVid
p10453
VT24
p10454
sa(dp10455
Vcategory
p10456
Vunlabeled
p10457
sg14
g10332
sVid
p10458
VT26
p10459
sassasV3Y3CZJSZ9KUT1LOWVA8QSALL8IUR5P
p10460
(lp10461
(dp10462
V33OOO72IVHMU358X4B5UUFNXILHTCJ
p10463
(dp10464
VDaily_Science_Grade_5_Evan_Moor_172.jpeg
p10465
(lp10466
(dp10467
Vcategory
p10468
VFigure Label
p10469
sg14
VA2RSOGTSR83XKO
p10470
sVid
p10471
VT14
p10472
sa(dp10473
Vcategory
p10474
VFigure Label
p10475
sg14
g10470
sVid
p10476
VT15
p10477
sa(dp10478
Vcategory
p10479
VFigure Label
p10480
sg14
g10470
sVid
p10481
VT16
p10482
sa(dp10483
Vcategory
p10484
VFigure Label
p10485
sg14
g10470
sVid
p10486
VT17
p10487
sa(dp10488
Vcategory
p10489
Vunlabeled
p10490
sg14
g10470
sVid
p10491
VT10
p10492
sa(dp10493
Vcategory
p10494
VDefinition
p10495
sg14
g10470
sVid
p10496
VT11
p10497
sa(dp10498
Vcategory
p10499
Vunlabeled
p10500
sg14
g10470
sVid
p10501
VT12
p10502
sa(dp10503
Vcategory
p10504
VFigure Label
p10505
sg14
g10470
sVid
p10506
VT13
p10507
sa(dp10508
Vcategory
p10509
VQuestion
p10510
sg14
g10470
sVid
p10511
VT18
p10512
sa(dp10513
Vcategory
p10514
VQuestion
p10515
sg14
g10470
sVid
p10516
VT19
p10517
sa(dp10518
Vcategory
p10519
VDiscussion
p10520
sg14
g10470
sVid
p10521
VT8
p10522
sa(dp10523
Vcategory
p10524
Vunlabeled
p10525
sg14
g10470
sVid
p10526
VT9
p10527
sa(dp10528
Vcategory
p10529
Vunlabeled
p10530
sg14
g10470
sVid
p10531
VT6
p10532
sa(dp10533
Vcategory
p10534
VHeader/Topic
p10535
sg14
g10470
sVid
p10536
VT7
p10537
sa(dp10538
Vcategory
p10539
Vunlabeled
p10540
sg14
g10470
sVid
p10541
VT4
p10542
sa(dp10543
Vcategory
p10544
Vunlabeled
p10545
sg14
g10470
sVid
p10546
VT5
p10547
sa(dp10548
Vcategory
p10549
Vunlabeled
p10550
sg14
g10470
sVid
p10551
VT2
p10552
sa(dp10553
Vcategory
p10554
Vunlabeled
p10555
sg14
g10470
sVid
p10556
VT3
p10557
sa(dp10558
Vcategory
p10559
Vunlabeled
p10560
sg14
g10470
sVid
p10561
VT1
p10562
sa(dp10563
Vcategory
p10564
Vunlabeled
p10565
sg14
g10470
sVid
p10566
VT28
p10567
sa(dp10568
Vcategory
p10569
VQuestion
p10570
sg14
g10470
sVid
p10571
VT21
p10572
sa(dp10573
Vcategory
p10574
VQuestion
p10575
sg14
g10470
sVid
p10576
VT20
p10577
sa(dp10578
Vcategory
p10579
VQuestion
p10580
sg14
g10470
sVid
p10581
VT23
p10582
sa(dp10583
Vcategory
p10584
VQuestion
p10585
sg14
g10470
sVid
p10586
VT22
p10587
sa(dp10588
Vcategory
p10589
VQuestion
p10590
sg14
g10470
sVid
p10591
VT25
p10592
sa(dp10593
Vcategory
p10594
VQuestion
p10595
sg14
g10470
sVid
p10596
VT24
p10597
sa(dp10598
Vcategory
p10599
Vunlabeled
p10600
sg14
g10470
sVid
p10601
VT27
p10602
sa(dp10603
Vcategory
p10604
Vunlabeled
p10605
sg14
g10470
sVid
p10606
VT26
p10607
sassa(dp10608
V3QY7M81QH7NPO5NEJLJRD28NYX4K7G
p10609
(dp10610
VDaily_Science_Grade_5_Evan_Moor_172.jpeg
p10611
(lp10612
(dp10613
Vcategory
p10614
VFigure Label
p10615
sg14
VA03922113RU44GENR8ATX
p10616
sVid
p10617
VT14
p10618
sa(dp10619
Vcategory
p10620
VFigure Label
p10621
sg14
g10616
sVid
p10622
VT15
p10623
sa(dp10624
Vcategory
p10625
VFigure Label
p10626
sg14
g10616
sVid
p10627
VT16
p10628
sa(dp10629
Vcategory
p10630
VFigure Label
p10631
sg14
g10616
sVid
p10632
VT17
p10633
sa(dp10634
Vcategory
p10635
Vunlabeled
p10636
sg14
g10616
sVid
p10637
VT10
p10638
sa(dp10639
Vcategory
p10640
VDefinition
p10641
sg14
g10616
sVid
p10642
VT11
p10643
sa(dp10644
Vcategory
p10645
Vunlabeled
p10646
sg14
g10616
sVid
p10647
VT12
p10648
sa(dp10649
Vcategory
p10650
VFigure Label
p10651
sg14
g10616
sVid
p10652
VT13
p10653
sa(dp10654
Vcategory
p10655
VQuestion
p10656
sg14
g10616
sVid
p10657
VT18
p10658
sa(dp10659
Vcategory
p10660
VQuestion
p10661
sg14
g10616
sVid
p10662
VT19
p10663
sa(dp10664
Vcategory
p10665
VDiscussion
p10666
sg14
g10616
sVid
p10667
VT8
p10668
sa(dp10669
Vcategory
p10670
Vunlabeled
p10671
sg14
g10616
sVid
p10672
VT9
p10673
sa(dp10674
Vcategory
p10675
Vunlabeled
p10676
sg14
g10616
sVid
p10677
VT6
p10678
sa(dp10679
Vcategory
p10680
VHeader/Topic
p10681
sg14
g10616
sVid
p10682
VT7
p10683
sa(dp10684
Vcategory
p10685
Vunlabeled
p10686
sg14
g10616
sVid
p10687
VT4
p10688
sa(dp10689
Vcategory
p10690
Vunlabeled
p10691
sg14
g10616
sVid
p10692
VT5
p10693
sa(dp10694
Vcategory
p10695
Vunlabeled
p10696
sg14
g10616
sVid
p10697
VT2
p10698
sa(dp10699
Vcategory
p10700
Vunlabeled
p10701
sg14
g10616
sVid
p10702
VT3
p10703
sa(dp10704
Vcategory
p10705
Vunlabeled
p10706
sg14
g10616
sVid
p10707
VT1
p10708
sa(dp10709
Vcategory
p10710
Vunlabeled
p10711
sg14
g10616
sVid
p10712
VT28
p10713
sa(dp10714
Vcategory
p10715
VQuestion
p10716
sg14
g10616
sVid
p10717
VT21
p10718
sa(dp10719
Vcategory
p10720
VQuestion
p10721
sg14
g10616
sVid
p10722
VT20
p10723
sa(dp10724
Vcategory
p10725
VQuestion
p10726
sg14
g10616
sVid
p10727
VT23
p10728
sa(dp10729
Vcategory
p10730
VQuestion
p10731
sg14
g10616
sVid
p10732
VT22
p10733
sa(dp10734
Vcategory
p10735
VQuestion
p10736
sg14
g10616
sVid
p10737
VT25
p10738
sa(dp10739
Vcategory
p10740
VQuestion
p10741
sg14
g10616
sVid
p10742
VT24
p10743
sa(dp10744
Vcategory
p10745
Vunlabeled
p10746
sg14
g10616
sVid
p10747
VT27
p10748
sa(dp10749
Vcategory
p10750
Vunlabeled
p10751
sg14
g10616
sVid
p10752
VT26
p10753
sassa(dp10754
V3CFVK00FWLMH4BRRLBQ0MOL6SMPL6L
p10755
(dp10756
VDaily_Science_Grade_5_Evan_Moor_172.jpeg
p10757
(lp10758
(dp10759
Vcategory
p10760
VFigure Label
p10761
sg14
VA3TXJLD6JNR280
p10762
sVid
p10763
VT14
p10764
sa(dp10765
Vcategory
p10766
VFigure Label
p10767
sg14
g10762
sVid
p10768
VT15
p10769
sa(dp10770
Vcategory
p10771
VFigure Label
p10772
sg14
g10762
sVid
p10773
VT16
p10774
sa(dp10775
Vcategory
p10776
VFigure Label
p10777
sg14
g10762
sVid
p10778
VT17
p10779
sa(dp10780
Vcategory
p10781
VDefinition
p10782
sg14
g10762
sVid
p10783
VT10
p10784
sa(dp10785
Vcategory
p10786
VDefinition
p10787
sg14
g10762
sVid
p10788
VT11
p10789
sa(dp10790
Vcategory
p10791
Vunlabeled
p10792
sg14
g10762
sVid
p10793
VT12
p10794
sa(dp10795
Vcategory
p10796
VFigure Label
p10797
sg14
g10762
sVid
p10798
VT13
p10799
sa(dp10800
Vcategory
p10801
VQuestion
p10802
sg14
g10762
sVid
p10803
VT18
p10804
sa(dp10805
Vcategory
p10806
VQuestion
p10807
sg14
g10762
sVid
p10808
VT19
p10809
sa(dp10810
Vcategory
p10811
VDiscussion
p10812
sg14
g10762
sVid
p10813
VT8
p10814
sa(dp10815
Vcategory
p10816
Vunlabeled
p10817
sg14
g10762
sVid
p10818
VT9
p10819
sa(dp10820
Vcategory
p10821
Vunlabeled
p10822
sg14
g10762
sVid
p10823
VT6
p10824
sa(dp10825
Vcategory
p10826
VHeader/Topic
p10827
sg14
g10762
sVid
p10828
VT7
p10829
sa(dp10830
Vcategory
p10831
Vunlabeled
p10832
sg14
g10762
sVid
p10833
VT4
p10834
sa(dp10835
Vcategory
p10836
Vunlabeled
p10837
sg14
g10762
sVid
p10838
VT5
p10839
sa(dp10840
Vcategory
p10841
Vunlabeled
p10842
sg14
g10762
sVid
p10843
VT2
p10844
sa(dp10845
Vcategory
p10846
Vunlabeled
p10847
sg14
g10762
sVid
p10848
VT3
p10849
sa(dp10850
Vcategory
p10851
Vunlabeled
p10852
sg14
g10762
sVid
p10853
VT1
p10854
sa(dp10855
Vcategory
p10856
Vunlabeled
p10857
sg14
g10762
sVid
p10858
VT28
p10859
sa(dp10860
Vcategory
p10861
VQuestion
p10862
sg14
g10762
sVid
p10863
VT21
p10864
sa(dp10865
Vcategory
p10866
VQuestion
p10867
sg14
g10762
sVid
p10868
VT20
p10869
sa(dp10870
Vcategory
p10871
Vunlabeled
p10872
sg14
g10762
sVid
p10873
VT23
p10874
sa(dp10875
Vcategory
p10876
VQuestion
p10877
sg14
g10762
sVid
p10878
VT22
p10879
sa(dp10880
Vcategory
p10881
Vunlabeled
p10882
sg14
g10762
sVid
p10883
VT25
p10884
sa(dp10885
Vcategory
p10886
Vunlabeled
p10887
sg14
g10762
sVid
p10888
VT24
p10889
sa(dp10890
Vcategory
p10891
Vunlabeled
p10892
sg14
g10762
sVid
p10893
VT27
p10894
sa(dp10895
Vcategory
p10896
Vunlabeled
p10897
sg14
g10762
sVid
p10898
VT26
p10899
sassasV3UUSLRKAUL4ENFJA12S3L5IDKNYD7K
p10900
(lp10901
(dp10902
V3EO896NRAWWHBJE3E3MGHJ0S85OJTL
p10903
(dp10904
VDaily_Science_Grade_3_(Daily_Practice_Books)_Evan_Moore_182.jpeg
p10905
(lp10906
(dp10907
Vcategory
p10908
VQuestion
p10909
sg14
VARMGNUJBUW582
p10910
sVid
p10911
VT14
p10912
sa(dp10913
Vcategory
p10914
VQuestion
p10915
sg14
g10910
sVid
p10916
VT15
p10917
sa(dp10918
Vcategory
p10919
VQuestion
p10920
sg14
g10910
sVid
p10921
VT16
p10922
sa(dp10923
Vcategory
p10924
VQuestion
p10925
sg14
g10910
sVid
p10926
VT17
p10927
sa(dp10928
Vcategory
p10929
VQuestion
p10930
sg14
g10910
sVid
p10931
VT10
p10932
sa(dp10933
Vcategory
p10934
VQuestion
p10935
sg14
g10910
sVid
p10936
VT11
p10937
sa(dp10938
Vcategory
p10939
VQuestion
p10940
sg14
g10910
sVid
p10941
VT12
p10942
sa(dp10943
Vcategory
p10944
VQuestion
p10945
sg14
g10910
sVid
p10946
VT13
p10947
sa(dp10948
Vcategory
p10949
VQuestion
p10950
sg14
g10910
sVid
p10951
VT18
p10952
sa(dp10953
Vcategory
p10954
VQuestion
p10955
sg14
g10910
sVid
p10956
VT19
p10957
sa(dp10958
Vcategory
p10959
VAnswer
p10960
sg14
g10910
sVid
p10961
VT8
p10962
sa(dp10963
Vcategory
p10964
VQuestion
p10965
sg14
g10910
sVid
p10966
VT9
p10967
sa(dp10968
Vcategory
p10969
VQuestion
p10970
sg14
g10910
sVid
p10971
VT6
p10972
sa(dp10973
Vcategory
p10974
Vunlabeled
p10975
sg14
g10910
sVid
p10976
VT7
p10977
sa(dp10978
Vcategory
p10979
VHeader/Topic
p10980
sg14
g10910
sVid
p10981
VT4
p10982
sa(dp10983
Vcategory
p10984
Vunlabeled
p10985
sg14
g10910
sVid
p10986
VT5
p10987
sa(dp10988
Vcategory
p10989
Vunlabeled
p10990
sg14
g10910
sVid
p10991
VT2
p10992
sa(dp10993
Vcategory
p10994
Vunlabeled
p10995
sg14
g10910
sVid
p10996
VT3
p10997
sa(dp10998
Vcategory
p10999
Vunlabeled
p11000
sg14
g10910
sVid
p11001
VT1
p11002
sa(dp11003
Vcategory
p11004
Vunlabeled
p11005
sg14
g10910
sVid
p11006
VT21
p11007
sa(dp11008
Vcategory
p11009
VQuestion
p11010
sg14
g10910
sVid
p11011
VT20
p11012
sa(dp11013
Vcategory
p11014
Vunlabeled
p11015
sg14
g10910
sVid
p11016
VT22
p11017
sassa(dp11018
V3E47SOBEYQX4URSMAZ6QG8LO740ICQ
p11019
(dp11020
VDaily_Science_Grade_3_(Daily_Practice_Books)_Evan_Moore_182.jpeg
p11021
(lp11022
(dp11023
Vcategory
p11024
VQuestion
p11025
sg14
VAGBA9QNP2BKR1
p11026
sVid
p11027
VT14
p11028
sa(dp11029
Vcategory
p11030
VQuestion
p11031
sg14
g11026
sVid
p11032
VT15
p11033
sa(dp11034
Vcategory
p11035
VQuestion
p11036
sg14
g11026
sVid
p11037
VT16
p11038
sa(dp11039
Vcategory
p11040
VQuestion
p11041
sg14
g11026
sVid
p11042
VT17
p11043
sa(dp11044
Vcategory
p11045
VQuestion
p11046
sg14
g11026
sVid
p11047
VT10
p11048
sa(dp11049
Vcategory
p11050
VQuestion
p11051
sg14
g11026
sVid
p11052
VT11
p11053
sa(dp11054
Vcategory
p11055
VQuestion
p11056
sg14
g11026
sVid
p11057
VT12
p11058
sa(dp11059
Vcategory
p11060
VQuestion
p11061
sg14
g11026
sVid
p11062
VT13
p11063
sa(dp11064
Vcategory
p11065
VQuestion
p11066
sg14
g11026
sVid
p11067
VT18
p11068
sa(dp11069
Vcategory
p11070
VQuestion
p11071
sg14
g11026
sVid
p11072
VT19
p11073
sa(dp11074
Vcategory
p11075
VQuestion
p11076
sg14
g11026
sVid
p11077
VT8
p11078
sa(dp11079
Vcategory
p11080
VQuestion
p11081
sg14
g11026
sVid
p11082
VT9
p11083
sa(dp11084
Vcategory
p11085
VQuestion
p11086
sg14
g11026
sVid
p11087
VT6
p11088
sa(dp11089
Vcategory
p11090
Vunlabeled
p11091
sg14
g11026
sVid
p11092
VT7
p11093
sa(dp11094
Vcategory
p11095
VHeader/Topic
p11096
sg14
g11026
sVid
p11097
VT4
p11098
sa(dp11099
Vcategory
p11100
Vunlabeled
p11101
sg14
g11026
sVid
p11102
VT5
p11103
sa(dp11104
Vcategory
p11105
Vunlabeled
p11106
sg14
g11026
sVid
p11107
VT2
p11108
sa(dp11109
Vcategory
p11110
Vunlabeled
p11111
sg14
g11026
sVid
p11112
VT3
p11113
sa(dp11114
Vcategory
p11115
Vunlabeled
p11116
sg14
g11026
sVid
p11117
VT1
p11118
sa(dp11119
Vcategory
p11120
Vunlabeled
p11121
sg14
g11026
sVid
p11122
VT21
p11123
sa(dp11124
Vcategory
p11125
VQuestion
p11126
sg14
g11026
sVid
p11127
VT20
p11128
sa(dp11129
Vcategory
p11130
Vunlabeled
p11131
sg14
g11026
sVid
p11132
VT22
p11133
sassa(dp11134
V3JC6VJ2SABK4PO09J1R5L4RV3GR5AM
p11135
(dp11136
VDaily_Science_Grade_3_(Daily_Practice_Books)_Evan_Moore_182.jpeg
p11137
(lp11138
(dp11139
Vcategory
p11140
VQuestion
p11141
sg14
VA3KIE6ZNXVEIAY
p11142
sVid
p11143
VT14
p11144
sa(dp11145
Vcategory
p11146
VQuestion
p11147
sg14
g11142
sVid
p11148
VT15
p11149
sa(dp11150
Vcategory
p11151
VQuestion
p11152
sg14
g11142
sVid
p11153
VT16
p11154
sa(dp11155
Vcategory
p11156
VQuestion
p11157
sg14
g11142
sVid
p11158
VT17
p11159
sa(dp11160
Vcategory
p11161
VQuestion
p11162
sg14
g11142
sVid
p11163
VT10
p11164
sa(dp11165
Vcategory
p11166
VQuestion
p11167
sg14
g11142
sVid
p11168
VT11
p11169
sa(dp11170
Vcategory
p11171
VQuestion
p11172
sg14
g11142
sVid
p11173
VT12
p11174
sa(dp11175
Vcategory
p11176
VQuestion
p11177
sg14
g11142
sVid
p11178
VT13
p11179
sa(dp11180
Vcategory
p11181
VQuestion
p11182
sg14
g11142
sVid
p11183
VT18
p11184
sa(dp11185
Vcategory
p11186
VQuestion
p11187
sg14
g11142
sVid
p11188
VT19
p11189
sa(dp11190
Vcategory
p11191
VQuestion
p11192
sg14
g11142
sVid
p11193
VT8
p11194
sa(dp11195
Vcategory
p11196
VQuestion
p11197
sg14
g11142
sVid
p11198
VT9
p11199
sa(dp11200
Vcategory
p11201
VQuestion
p11202
sg14
g11142
sVid
p11203
VT6
p11204
sa(dp11205
Vcategory
p11206
Vunlabeled
p11207
sg14
g11142
sVid
p11208
VT7
p11209
sa(dp11210
Vcategory
p11211
VHeader/Topic
p11212
sg14
g11142
sVid
p11213
VT4
p11214
sa(dp11215
Vcategory
p11216
Vunlabeled
p11217
sg14
g11142
sVid
p11218
VT5
p11219
sa(dp11220
Vcategory
p11221
Vunlabeled
p11222
sg14
g11142
sVid
p11223
VT2
p11224
sa(dp11225
Vcategory
p11226
Vunlabeled
p11227
sg14
g11142
sVid
p11228
VT3
p11229
sa(dp11230
Vcategory
p11231
Vunlabeled
p11232
sg14
g11142
sVid
p11233
VT1
p11234
sa(dp11235
Vcategory
p11236
Vunlabeled
p11237
sg14
g11142
sVid
p11238
VT21
p11239
sa(dp11240
Vcategory
p11241
VQuestion
p11242
sg14
g11142
sVid
p11243
VT20
p11244
sa(dp11245
Vcategory
p11246
Vunlabeled
p11247
sg14
g11142
sVid
p11248
VT22
p11249
sassas.