(lp0
ccopy_reg
_reconstructor
p1
(cboto.mturk.connection
HIT
p2
c__builtin__
object
p3
Ntp4
Rp5
(dp6
S'HIT'
p7
S''
p8
sS'HITId'
p9
V37G6BXQPLQMTL32PTWCTREHTPPRQEO
p10
sbag1
(g2
g3
Ntp11
Rp12
(dp13
g7
g8
sg9
V3YOAVL4CA0IK7T6NRMJT9LH6H3I4ZQ
p14
sbag1
(g2
g3
Ntp15
Rp16
(dp17
g7
g8
sg9
V3G57RS03HH6CX17BGKTPR2DDWQE52O
p18
sbag1
(g2
g3
Ntp19
Rp20
(dp21
g7
g8
sg9
V362E9TQF2HREOJAXMJX8IFBJBVPIGU
p22
sbag1
(g2
g3
Ntp23
Rp24
(dp25
g7
g8
sg9
V3JVP4ZJHDPTHDFZC8H85XNO34E00I9
p26
sbag1
(g2
g3
Ntp27
Rp28
(dp29
g7
g8
sg9
V3ZQX1VYFTD69RQFI1GYPAZQ7ZLBO8F
p30
sbag1
(g2
g3
Ntp31
Rp32
(dp33
g7
g8
sg9
V31MCUE39BKNZYGSE1GQLE99USDS3GF
p34
sbag1
(g2
g3
Ntp35
Rp36
(dp37
g7
g8
sg9
V356TQKY9XFY26KNJKUHNZD4C9W1879
p38
sbag1
(g2
g3
Ntp39
Rp40
(dp41
g7
g8
sg9
V3X52SWXE0X6J82EX9E54TFZCSEVWC5
p42
sba.