ccollections
defaultdict
p0
(c__builtin__
list
p1
tp2
Rp3
V356TQKY9XFY26KNJKUHNZD4C9W1879
p4
(lp5
(dp6
V38F5OAUN5NDYMFM6D0GU0ASV6G0H79
p7
(dp8
VDaily_Science_Grade_6_(Daily_Practice_Books)_Evan_Moor_69.jpeg
p9
(lp10
(dp11
Vcategory
p12
Vunlabeled
p13
sS'worker_id'
p14
VA3I9WD8P9RBFHR
p15
sVid
p16
VT14
p17
sa(dp18
Vcategory
p19
Vunlabeled
p20
sg14
g15
sVid
p21
VT15
p22
sa(dp23
Vcategory
p24
VAnswer
p25
sg14
g15
sVid
p26
VT16
p27
sa(dp28
Vcategory
p29
Vunlabeled
p30
sg14
g15
sVid
p31
VT17
p32
sa(dp33
Vcategory
p34
Vunlabeled
p35
sg14
g15
sVid
p36
VT10
p37
sa(dp38
Vcategory
p39
VAnswer
p40
sg14
g15
sVid
p41
VT11
p42
sa(dp43
Vcategory
p44
Vunlabeled
p45
sg14
g15
sVid
p46
VT12
p47
sa(dp48
Vcategory
p49
Vunlabeled
p50
sg14
g15
sVid
p51
VT13
p52
sa(dp53
Vcategory
p54
VAnswer
p55
sg14
g15
sVid
p56
VT18
p57
sa(dp58
Vcategory
p59
Vunlabeled
p60
sg14
g15
sVid
p61
VT19
p62
sa(dp63
Vcategory
p64
VAnswer
p65
sg14
g15
sVid
p66
VT8
p67
sa(dp68
Vcategory
p69
Vunlabeled
p70
sg14
g15
sVid
p71
VT9
p72
sa(dp73
Vcategory
p74
VAnswer
p75
sg14
g15
sVid
p76
VT6
p77
sa(dp78
Vcategory
p79
Vunlabeled
p80
sg14
g15
sVid
p81
VT7
p82
sa(dp83
Vcategory
p84
VQuestion
p85
sg14
g15
sVid
p86
VT4
p87
sa(dp88
Vcategory
p89
Vunlabeled
p90
sg14
g15
sVid
p91
VT5
p92
sa(dp93
Vcategory
p94
VHeader/Topic
p95
sg14
g15
sVid
p96
VT2
p97
sa(dp98
Vcategory
p99
Vunlabeled
p100
sg14
g15
sVid
p101
VT3
p102
sa(dp103
Vcategory
p104
Vunlabeled
p105
sg14
g15
sVid
p106
VT1
p107
sa(dp108
Vcategory
p109
VAnswer
p110
sg14
g15
sVid
p111
VT21
p112
sa(dp113
Vcategory
p114
Vunlabeled
p115
sg14
g15
sVid
p116
VT20
p117
sa(dp118
Vcategory
p119
Vunlabeled
p120
sg14
g15
sVid
p121
VT23
p122
sa(dp123
Vcategory
p124
Vunlabeled
p125
sg14
g15
sVid
p126
VT22
p127
sa(dp128
Vcategory
p129
Vunlabeled
p130
sg14
g15
sVid
p131
VT25
p132
sa(dp133
Vcategory
p134
Vunlabeled
p135
sg14
g15
sVid
p136
VT24
p137
sassa(dp138
V3RXPCZQMQPC6BXCT4EH3E0PHOUO1GY
p139
(dp140
VDaily_Science_Grade_6_(Daily_Practice_Books)_Evan_Moor_69.jpeg
p141
(lp142
(dp143
Vcategory
p144
Vunlabeled
p145
sg14
VA3RJ8NZQ8BRTZM
p146
sVid
p147
VT14
p148
sa(dp149
Vcategory
p150
Vunlabeled
p151
sg14
g146
sVid
p152
VT15
p153
sa(dp154
Vcategory
p155
Vunlabeled
p156
sg14
g146
sVid
p157
VT16
p158
sa(dp159
Vcategory
p160
Vunlabeled
p161
sg14
g146
sVid
p162
VT17
p163
sa(dp164
Vcategory
p165
Vunlabeled
p166
sg14
g146
sVid
p167
VT10
p168
sa(dp169
Vcategory
p170
Vunlabeled
p171
sg14
g146
sVid
p172
VT11
p173
sa(dp174
Vcategory
p175
Vunlabeled
p176
sg14
g146
sVid
p177
VT12
p178
sa(dp179
Vcategory
p180
Vunlabeled
p181
sg14
g146
sVid
p182
VT13
p183
sa(dp184
Vcategory
p185
Vunlabeled
p186
sg14
g146
sVid
p187
VT18
p188
sa(dp189
Vcategory
p190
Vunlabeled
p191
sg14
g146
sVid
p192
VT19
p193
sa(dp194
Vcategory
p195
Vunlabeled
p196
sg14
g146
sVid
p197
VT8
p198
sa(dp199
Vcategory
p200
Vunlabeled
p201
sg14
g146
sVid
p202
VT9
p203
sa(dp204
Vcategory
p205
Vunlabeled
p206
sg14
g146
sVid
p207
VT6
p208
sa(dp209
Vcategory
p210
Vunlabeled
p211
sg14
g146
sVid
p212
VT7
p213
sa(dp214
Vcategory
p215
VHeader/Topic
p216
sg14
g146
sVid
p217
VT4
p218
sa(dp219
Vcategory
p220
Vunlabeled
p221
sg14
g146
sVid
p222
VT5
p223
sa(dp224
Vcategory
p225
Vunlabeled
p226
sg14
g146
sVid
p227
VT2
p228
sa(dp229
Vcategory
p230
Vunlabeled
p231
sg14
g146
sVid
p232
VT3
p233
sa(dp234
Vcategory
p235
Vunlabeled
p236
sg14
g146
sVid
p237
VT1
p238
sa(dp239
Vcategory
p240
Vunlabeled
p241
sg14
g146
sVid
p242
VT21
p243
sa(dp244
Vcategory
p245
Vunlabeled
p246
sg14
g146
sVid
p247
VT20
p248
sa(dp249
Vcategory
p250
Vunlabeled
p251
sg14
g146
sVid
p252
VT23
p253
sa(dp254
Vcategory
p255
Vunlabeled
p256
sg14
g146
sVid
p257
VT22
p258
sa(dp259
Vcategory
p260
Vunlabeled
p261
sg14
g146
sVid
p262
VT25
p263
sa(dp264
Vcategory
p265
Vunlabeled
p266
sg14
g146
sVid
p267
VT24
p268
sassa(dp269
V3NOKK93PR197BKAEA7MULHNZ1PZEE4
p270
(dp271
VDaily_Science_Grade_6_(Daily_Practice_Books)_Evan_Moor_69.jpeg
p272
(lp273
(dp274
Vcategory
p275
Vunlabeled
p276
sg14
VA03922113RU44GENR8ATX
p277
sVid
p278
VT14
p279
sa(dp280
Vcategory
p281
Vunlabeled
p282
sg14
g277
sVid
p283
VT15
p284
sa(dp285
Vcategory
p286
Vunlabeled
p287
sg14
g277
sVid
p288
VT16
p289
sa(dp290
Vcategory
p291
Vunlabeled
p292
sg14
g277
sVid
p293
VT17
p294
sa(dp295
Vcategory
p296
Vunlabeled
p297
sg14
g277
sVid
p298
VT10
p299
sa(dp300
Vcategory
p301
Vunlabeled
p302
sg14
g277
sVid
p303
VT11
p304
sa(dp305
Vcategory
p306
Vunlabeled
p307
sg14
g277
sVid
p308
VT12
p309
sa(dp310
Vcategory
p311
Vunlabeled
p312
sg14
g277
sVid
p313
VT13
p314
sa(dp315
Vcategory
p316
Vunlabeled
p317
sg14
g277
sVid
p318
VT18
p319
sa(dp320
Vcategory
p321
Vunlabeled
p322
sg14
g277
sVid
p323
VT19
p324
sa(dp325
Vcategory
p326
Vunlabeled
p327
sg14
g277
sVid
p328
VT8
p329
sa(dp330
Vcategory
p331
Vunlabeled
p332
sg14
g277
sVid
p333
VT9
p334
sa(dp335
Vcategory
p336
VDiscussion
p337
sg14
g277
sVid
p338
VT6
p339
sa(dp340
Vcategory
p341
Vunlabeled
p342
sg14
g277
sVid
p343
VT7
p344
sa(dp345
Vcategory
p346
VHeader/Topic
p347
sg14
g277
sVid
p348
VT4
p349
sa(dp350
Vcategory
p351
Vunlabeled
p352
sg14
g277
sVid
p353
VT5
p354
sa(dp355
Vcategory
p356
Vunlabeled
p357
sg14
g277
sVid
p358
VT2
p359
sa(dp360
Vcategory
p361
Vunlabeled
p362
sg14
g277
sVid
p363
VT3
p364
sa(dp365
Vcategory
p366
Vunlabeled
p367
sg14
g277
sVid
p368
VT1
p369
sa(dp370
Vcategory
p371
Vunlabeled
p372
sg14
g277
sVid
p373
VT21
p374
sa(dp375
Vcategory
p376
Vunlabeled
p377
sg14
g277
sVid
p378
VT20
p379
sa(dp380
Vcategory
p381
Vunlabeled
p382
sg14
g277
sVid
p383
VT23
p384
sa(dp385
Vcategory
p386
Vunlabeled
p387
sg14
g277
sVid
p388
VT22
p389
sa(dp390
Vcategory
p391
Vunlabeled
p392
sg14
g277
sVid
p393
VT25
p394
sa(dp395
Vcategory
p396
Vunlabeled
p397
sg14
g277
sVid
p398
VT24
p399
sassasV31MCUE39BKNZYGSE1GQLE99USDS3GF
p400
(lp401
(dp402
V3YDGXNSEOZV8AH3U8YOHKLFMCVA84R
p403
(dp404
VDaily_Science_Grade_5_Evan_Moor_193.jpeg
p405
(lp406
(dp407
Vcategory
p408
Vunlabeled
p409
sg14
VA3KIE6ZNXVEIAY
p410
sVid
p411
VT38
p412
sa(dp413
Vcategory
p414
VAnswer
p415
sg14
g410
sVid
p416
VT39
p417
sa(dp418
Vcategory
p419
VAnswer
p420
sg14
g410
sVid
p421
VT14
p422
sa(dp423
Vcategory
p424
VAnswer
p425
sg14
g410
sVid
p426
VT15
p427
sa(dp428
Vcategory
p429
VAnswer
p430
sg14
g410
sVid
p431
VT16
p432
sa(dp433
Vcategory
p434
Vunlabeled
p435
sg14
g410
sVid
p436
VT17
p437
sa(dp438
Vcategory
p439
VAnswer
p440
sg14
g410
sVid
p441
VT10
p442
sa(dp443
Vcategory
p444
VAnswer
p445
sg14
g410
sVid
p446
VT11
p447
sa(dp448
Vcategory
p449
VAnswer
p450
sg14
g410
sVid
p451
VT12
p452
sa(dp453
Vcategory
p454
Vunlabeled
p455
sg14
g410
sVid
p456
VT13
p457
sa(dp458
Vcategory
p459
VAnswer
p460
sg14
g410
sVid
p461
VT36
p462
sa(dp463
Vcategory
p464
VAnswer
p465
sg14
g410
sVid
p466
VT37
p467
sa(dp468
Vcategory
p469
VAnswer
p470
sg14
g410
sVid
p471
VT34
p472
sa(dp473
Vcategory
p474
VAnswer
p475
sg14
g410
sVid
p476
VT35
p477
sa(dp478
Vcategory
p479
VAnswer
p480
sg14
g410
sVid
p481
VT18
p482
sa(dp483
Vcategory
p484
Vunlabeled
p485
sg14
g410
sVid
p486
VT19
p487
sa(dp488
Vcategory
p489
VAnswer
p490
sg14
g410
sVid
p491
VT30
p492
sa(dp493
Vcategory
p494
VAnswer
p495
sg14
g410
sVid
p496
VT31
p497
sa(dp498
Vcategory
p499
VAnswer
p500
sg14
g410
sVid
p501
VT32
p502
sa(dp503
Vcategory
p504
VAnswer
p505
sg14
g410
sVid
p506
VT33
p507
sa(dp508
Vcategory
p509
VAnswer
p510
sg14
g410
sVid
p511
VT8
p512
sa(dp513
Vcategory
p514
Vunlabeled
p515
sg14
g410
sVid
p516
VT9
p517
sa(dp518
Vcategory
p519
VAnswer
p520
sg14
g410
sVid
p521
VT6
p522
sa(dp523
Vcategory
p524
VAnswer
p525
sg14
g410
sVid
p526
VT7
p527
sa(dp528
Vcategory
p529
Vunlabeled
p530
sg14
g410
sVid
p531
VT4
p532
sa(dp533
Vcategory
p534
Vunlabeled
p535
sg14
g410
sVid
p536
VT5
p537
sa(dp538
Vcategory
p539
VAnswer
p540
sg14
g410
sVid
p541
VT2
p542
sa(dp543
Vcategory
p544
VAnswer
p545
sg14
g410
sVid
p546
VT3
p547
sa(dp548
Vcategory
p549
VAnswer
p550
sg14
g410
sVid
p551
VT1
p552
sa(dp553
Vcategory
p554
VAnswer
p555
sg14
g410
sVid
p556
VT29
p557
sa(dp558
Vcategory
p559
VAnswer
p560
sg14
g410
sVid
p561
VT28
p562
sa(dp563
Vcategory
p564
VAnswer
p565
sg14
g410
sVid
p566
VT21
p567
sa(dp568
Vcategory
p569
VAnswer
p570
sg14
g410
sVid
p571
VT20
p572
sa(dp573
Vcategory
p574
VAnswer
p575
sg14
g410
sVid
p576
VT23
p577
sa(dp578
Vcategory
p579
VAnswer
p580
sg14
g410
sVid
p581
VT22
p582
sa(dp583
Vcategory
p584
Vunlabeled
p585
sg14
g410
sVid
p586
VT25
p587
sa(dp588
Vcategory
p589
VAnswer
p590
sg14
g410
sVid
p591
VT24
p592
sa(dp593
Vcategory
p594
VAnswer
p595
sg14
g410
sVid
p596
VT27
p597
sa(dp598
Vcategory
p599
Vunlabeled
p600
sg14
g410
sVid
p601
VT26
p602
sa(dp603
Vcategory
p604
Vunlabeled
p605
sg14
g410
sVid
p606
VT49
p607
sa(dp608
Vcategory
p609
Vunlabeled
p610
sg14
g410
sVid
p611
VT48
p612
sa(dp613
Vcategory
p614
VAnswer
p615
sg14
g410
sVid
p616
VT43
p617
sa(dp618
Vcategory
p619
VAnswer
p620
sg14
g410
sVid
p621
VT42
p622
sa(dp623
Vcategory
p624
VAnswer
p625
sg14
g410
sVid
p626
VT41
p627
sa(dp628
Vcategory
p629
VAnswer
p630
sg14
g410
sVid
p631
VT40
p632
sa(dp633
Vcategory
p634
Vunlabeled
p635
sg14
g410
sVid
p636
VT47
p637
sa(dp638
Vcategory
p639
VAnswer
p640
sg14
g410
sVid
p641
VT46
p642
sa(dp643
Vcategory
p644
VAnswer
p645
sg14
g410
sVid
p646
VT45
p647
sa(dp648
Vcategory
p649
VAnswer
p650
sg14
g410
sVid
p651
VT44
p652
sassa(dp653
V3XM0HYN6NK0B8BZ4JL25FTM3EUFPE9
p654
(dp655
VDaily_Science_Grade_5_Evan_Moor_193.jpeg
p656
(lp657
(dp658
Vcategory
p659
VAnswer
p660
sg14
VA3IVXZJS7DQIQQ
p661
sVid
p662
VT38
p663
sa(dp664
Vcategory
p665
VAnswer
p666
sg14
g661
sVid
p667
VT39
p668
sa(dp669
Vcategory
p670
VAnswer
p671
sg14
g661
sVid
p672
VT14
p673
sa(dp674
Vcategory
p675
VAnswer
p676
sg14
g661
sVid
p677
VT15
p678
sa(dp679
Vcategory
p680
VAnswer
p681
sg14
g661
sVid
p682
VT16
p683
sa(dp684
Vcategory
p685
Vunlabeled
p686
sg14
g661
sVid
p687
VT17
p688
sa(dp689
Vcategory
p690
VAnswer
p691
sg14
g661
sVid
p692
VT10
p693
sa(dp694
Vcategory
p695
VAnswer
p696
sg14
g661
sVid
p697
VT11
p698
sa(dp699
Vcategory
p700
VAnswer
p701
sg14
g661
sVid
p702
VT12
p703
sa(dp704
Vcategory
p705
Vunlabeled
p706
sg14
g661
sVid
p707
VT13
p708
sa(dp709
Vcategory
p710
VAnswer
p711
sg14
g661
sVid
p712
VT36
p713
sa(dp714
Vcategory
p715
VAnswer
p716
sg14
g661
sVid
p717
VT37
p718
sa(dp719
Vcategory
p720
VAnswer
p721
sg14
g661
sVid
p722
VT34
p723
sa(dp724
Vcategory
p725
VAnswer
p726
sg14
g661
sVid
p727
VT35
p728
sa(dp729
Vcategory
p730
VAnswer
p731
sg14
g661
sVid
p732
VT18
p733
sa(dp734
Vcategory
p735
VAnswer
p736
sg14
g661
sVid
p737
VT19
p738
sa(dp739
Vcategory
p740
VAnswer
p741
sg14
g661
sVid
p742
VT30
p743
sa(dp744
Vcategory
p745
VAnswer
p746
sg14
g661
sVid
p747
VT31
p748
sa(dp749
Vcategory
p750
VAnswer
p751
sg14
g661
sVid
p752
VT32
p753
sa(dp754
Vcategory
p755
VAnswer
p756
sg14
g661
sVid
p757
VT33
p758
sa(dp759
Vcategory
p760
VAnswer
p761
sg14
g661
sVid
p762
VT8
p763
sa(dp764
Vcategory
p765
Vunlabeled
p766
sg14
g661
sVid
p767
VT9
p768
sa(dp769
Vcategory
p770
VAnswer
p771
sg14
g661
sVid
p772
VT6
p773
sa(dp774
Vcategory
p775
VAnswer
p776
sg14
g661
sVid
p777
VT7
p778
sa(dp779
Vcategory
p780
VAnswer
p781
sg14
g661
sVid
p782
VT4
p783
sa(dp784
Vcategory
p785
VAnswer
p786
sg14
g661
sVid
p787
VT5
p788
sa(dp789
Vcategory
p790
VAnswer
p791
sg14
g661
sVid
p792
VT2
p793
sa(dp794
Vcategory
p795
VAnswer
p796
sg14
g661
sVid
p797
VT3
p798
sa(dp799
Vcategory
p800
VAnswer
p801
sg14
g661
sVid
p802
VT1
p803
sa(dp804
Vcategory
p805
VAnswer
p806
sg14
g661
sVid
p807
VT29
p808
sa(dp809
Vcategory
p810
VAnswer
p811
sg14
g661
sVid
p812
VT28
p813
sa(dp814
Vcategory
p815
VAnswer
p816
sg14
g661
sVid
p817
VT21
p818
sa(dp819
Vcategory
p820
VAnswer
p821
sg14
g661
sVid
p822
VT20
p823
sa(dp824
Vcategory
p825
VAnswer
p826
sg14
g661
sVid
p827
VT23
p828
sa(dp829
Vcategory
p830
VAnswer
p831
sg14
g661
sVid
p832
VT22
p833
sa(dp834
Vcategory
p835
VAnswer
p836
sg14
g661
sVid
p837
VT25
p838
sa(dp839
Vcategory
p840
VAnswer
p841
sg14
g661
sVid
p842
VT24
p843
sa(dp844
Vcategory
p845
VAnswer
p846
sg14
g661
sVid
p847
VT27
p848
sa(dp849
Vcategory
p850
VAnswer
p851
sg14
g661
sVid
p852
VT26
p853
sa(dp854
Vcategory
p855
Vunlabeled
p856
sg14
g661
sVid
p857
VT49
p858
sa(dp859
Vcategory
p860
Vunlabeled
p861
sg14
g661
sVid
p862
VT48
p863
sa(dp864
Vcategory
p865
VAnswer
p866
sg14
g661
sVid
p867
VT43
p868
sa(dp869
Vcategory
p870
VAnswer
p871
sg14
g661
sVid
p872
VT42
p873
sa(dp874
Vcategory
p875
VAnswer
p876
sg14
g661
sVid
p877
VT41
p878
sa(dp879
Vcategory
p880
VAnswer
p881
sg14
g661
sVid
p882
VT40
p883
sa(dp884
Vcategory
p885
Vunlabeled
p886
sg14
g661
sVid
p887
VT47
p888
sa(dp889
Vcategory
p890
VAnswer
p891
sg14
g661
sVid
p892
VT46
p893
sa(dp894
Vcategory
p895
VAnswer
p896
sg14
g661
sVid
p897
VT45
p898
sa(dp899
Vcategory
p900
VAnswer
p901
sg14
g661
sVid
p902
VT44
p903
sassa(dp904
V3ATPCQ38J8B2RCATU3W2W1POYM7AYL
p905
(dp906
VDaily_Science_Grade_5_Evan_Moor_193.jpeg
p907
(lp908
(dp909
Vcategory
p910
VAnswer
p911
sg14
VA03922113RU44GENR8ATX
p912
sVid
p913
VT38
p914
sa(dp915
Vcategory
p916
VAnswer
p917
sg14
g912
sVid
p918
VT39
p919
sa(dp920
Vcategory
p921
VAnswer
p922
sg14
g912
sVid
p923
VT14
p924
sa(dp925
Vcategory
p926
VAnswer
p927
sg14
g912
sVid
p928
VT15
p929
sa(dp930
Vcategory
p931
VAnswer
p932
sg14
g912
sVid
p933
VT16
p934
sa(dp935
Vcategory
p936
VAnswer
p937
sg14
g912
sVid
p938
VT17
p939
sa(dp940
Vcategory
p941
VAnswer
p942
sg14
g912
sVid
p943
VT10
p944
sa(dp945
Vcategory
p946
VAnswer
p947
sg14
g912
sVid
p948
VT11
p949
sa(dp950
Vcategory
p951
VAnswer
p952
sg14
g912
sVid
p953
VT12
p954
sa(dp955
Vcategory
p956
VAnswer
p957
sg14
g912
sVid
p958
VT13
p959
sa(dp960
Vcategory
p961
VAnswer
p962
sg14
g912
sVid
p963
VT36
p964
sa(dp965
Vcategory
p966
VAnswer
p967
sg14
g912
sVid
p968
VT37
p969
sa(dp970
Vcategory
p971
VAnswer
p972
sg14
g912
sVid
p973
VT34
p974
sa(dp975
Vcategory
p976
VAnswer
p977
sg14
g912
sVid
p978
VT35
p979
sa(dp980
Vcategory
p981
VAnswer
p982
sg14
g912
sVid
p983
VT18
p984
sa(dp985
Vcategory
p986
VAnswer
p987
sg14
g912
sVid
p988
VT19
p989
sa(dp990
Vcategory
p991
VAnswer
p992
sg14
g912
sVid
p993
VT30
p994
sa(dp995
Vcategory
p996
VAnswer
p997
sg14
g912
sVid
p998
VT31
p999
sa(dp1000
Vcategory
p1001
VAnswer
p1002
sg14
g912
sVid
p1003
VT32
p1004
sa(dp1005
Vcategory
p1006
VAnswer
p1007
sg14
g912
sVid
p1008
VT33
p1009
sa(dp1010
Vcategory
p1011
VAnswer
p1012
sg14
g912
sVid
p1013
VT8
p1014
sa(dp1015
Vcategory
p1016
VAnswer
p1017
sg14
g912
sVid
p1018
VT9
p1019
sa(dp1020
Vcategory
p1021
VAnswer
p1022
sg14
g912
sVid
p1023
VT6
p1024
sa(dp1025
Vcategory
p1026
VAnswer
p1027
sg14
g912
sVid
p1028
VT7
p1029
sa(dp1030
Vcategory
p1031
VAnswer
p1032
sg14
g912
sVid
p1033
VT4
p1034
sa(dp1035
Vcategory
p1036
VAnswer
p1037
sg14
g912
sVid
p1038
VT5
p1039
sa(dp1040
Vcategory
p1041
VAnswer
p1042
sg14
g912
sVid
p1043
VT2
p1044
sa(dp1045
Vcategory
p1046
VAnswer
p1047
sg14
g912
sVid
p1048
VT3
p1049
sa(dp1050
Vcategory
p1051
VAnswer
p1052
sg14
g912
sVid
p1053
VT1
p1054
sa(dp1055
Vcategory
p1056
VAnswer
p1057
sg14
g912
sVid
p1058
VT29
p1059
sa(dp1060
Vcategory
p1061
VAnswer
p1062
sg14
g912
sVid
p1063
VT28
p1064
sa(dp1065
Vcategory
p1066
VAnswer
p1067
sg14
g912
sVid
p1068
VT21
p1069
sa(dp1070
Vcategory
p1071
VAnswer
p1072
sg14
g912
sVid
p1073
VT20
p1074
sa(dp1075
Vcategory
p1076
VAnswer
p1077
sg14
g912
sVid
p1078
VT23
p1079
sa(dp1080
Vcategory
p1081
VAnswer
p1082
sg14
g912
sVid
p1083
VT22
p1084
sa(dp1085
Vcategory
p1086
VAnswer
p1087
sg14
g912
sVid
p1088
VT25
p1089
sa(dp1090
Vcategory
p1091
VAnswer
p1092
sg14
g912
sVid
p1093
VT24
p1094
sa(dp1095
Vcategory
p1096
VAnswer
p1097
sg14
g912
sVid
p1098
VT27
p1099
sa(dp1100
Vcategory
p1101
VAnswer
p1102
sg14
g912
sVid
p1103
VT26
p1104
sa(dp1105
Vcategory
p1106
Vunlabeled
p1107
sg14
g912
sVid
p1108
VT49
p1109
sa(dp1110
Vcategory
p1111
Vunlabeled
p1112
sg14
g912
sVid
p1113
VT48
p1114
sa(dp1115
Vcategory
p1116
VAnswer
p1117
sg14
g912
sVid
p1118
VT43
p1119
sa(dp1120
Vcategory
p1121
VAnswer
p1122
sg14
g912
sVid
p1123
VT42
p1124
sa(dp1125
Vcategory
p1126
VAnswer
p1127
sg14
g912
sVid
p1128
VT41
p1129
sa(dp1130
Vcategory
p1131
VAnswer
p1132
sg14
g912
sVid
p1133
VT40
p1134
sa(dp1135
Vcategory
p1136
Vunlabeled
p1137
sg14
g912
sVid
p1138
VT47
p1139
sa(dp1140
Vcategory
p1141
VAnswer
p1142
sg14
g912
sVid
p1143
VT46
p1144
sa(dp1145
Vcategory
p1146
VAnswer
p1147
sg14
g912
sVid
p1148
VT45
p1149
sa(dp1150
Vcategory
p1151
VAnswer
p1152
sg14
g912
sVid
p1153
VT44
p1154
sassasV3G57RS03HH6CX17BGKTPR2DDWQE52O
p1155
(lp1156
(dp1157
V3M68NM076H8S79M4QVNW80U5YEDR6G
p1158
(dp1159
VDaily_Science_Grade_4_Evan_Moor_109.jpeg
p1160
(lp1161
(dp1162
Vcategory
p1163
Vunlabeled
p1164
sg14
VA03922113RU44GENR8ATX
p1165
sVid
p1166
VT14
p1167
sa(dp1168
Vcategory
p1169
Vunlabeled
p1170
sg14
g1165
sVid
p1171
VT15
p1172
sa(dp1173
Vcategory
p1174
VQuestion
p1175
sg14
g1165
sVid
p1176
VT16
p1177
sa(dp1178
Vcategory
p1179
VQuestion
p1180
sg14
g1165
sVid
p1181
VT17
p1182
sa(dp1183
Vcategory
p1184
Vunlabeled
p1185
sg14
g1165
sVid
p1186
VT10
p1187
sa(dp1188
Vcategory
p1189
Vunlabeled
p1190
sg14
g1165
sVid
p1191
VT11
p1192
sa(dp1193
Vcategory
p1194
Vunlabeled
p1195
sg14
g1165
sVid
p1196
VT12
p1197
sa(dp1198
Vcategory
p1199
VQuestion
p1200
sg14
g1165
sVid
p1201
VT13
p1202
sa(dp1203
Vcategory
p1204
VQuestion
p1205
sg14
g1165
sVid
p1206
VT18
p1207
sa(dp1208
Vcategory
p1209
VQuestion
p1210
sg14
g1165
sVid
p1211
VT19
p1212
sa(dp1213
Vcategory
p1214
Vunlabeled
p1215
sg14
g1165
sVid
p1216
VT8
p1217
sa(dp1218
Vcategory
p1219
Vunlabeled
p1220
sg14
g1165
sVid
p1221
VT9
p1222
sa(dp1223
Vcategory
p1224
Vunlabeled
p1225
sg14
g1165
sVid
p1226
VT6
p1227
sa(dp1228
Vcategory
p1229
VDiscussion
p1230
sg14
g1165
sVid
p1231
VT7
p1232
sa(dp1233
Vcategory
p1234
Vunlabeled
p1235
sg14
g1165
sVid
p1236
VT4
p1237
sa(dp1238
Vcategory
p1239
VHeader/Topic
p1240
sg14
g1165
sVid
p1241
VT5
p1242
sa(dp1243
Vcategory
p1244
Vunlabeled
p1245
sg14
g1165
sVid
p1246
VT2
p1247
sa(dp1248
Vcategory
p1249
Vunlabeled
p1250
sg14
g1165
sVid
p1251
VT3
p1252
sa(dp1253
Vcategory
p1254
Vunlabeled
p1255
sg14
g1165
sVid
p1256
VT1
p1257
sa(dp1258
Vcategory
p1259
VQuestion
p1260
sg14
g1165
sVid
p1261
VT21
p1262
sa(dp1263
Vcategory
p1264
VQuestion
p1265
sg14
g1165
sVid
p1266
VT20
p1267
sa(dp1268
Vcategory
p1269
VQuestion
p1270
sg14
g1165
sVid
p1271
VT23
p1272
sa(dp1273
Vcategory
p1274
VQuestion
p1275
sg14
g1165
sVid
p1276
VT22
p1277
sa(dp1278
Vcategory
p1279
Vunlabeled
p1280
sg14
g1165
sVid
p1281
VT25
p1282
sa(dp1283
Vcategory
p1284
Vunlabeled
p1285
sg14
g1165
sVid
p1286
VT24
p1287
sa(dp1288
Vcategory
p1289
Vunlabeled
p1290
sg14
g1165
sVid
p1291
VT27
p1292
sa(dp1293
Vcategory
p1294
Vunlabeled
p1295
sg14
g1165
sVid
p1296
VT26
p1297
sassa(dp1298
V3CN4LGXD5XPNPNUCL2MBJY3O5ANY45
p1299
(dp1300
VDaily_Science_Grade_4_Evan_Moor_109.jpeg
p1301
(lp1302
(dp1303
Vcategory
p1304
VDefinition
p1305
sg14
VA3I9WD8P9RBFHR
p1306
sVid
p1307
VT14
p1308
sa(dp1309
Vcategory
p1310
Vunlabeled
p1311
sg14
g1306
sVid
p1312
VT15
p1313
sa(dp1314
Vcategory
p1315
VQuestion
p1316
sg14
g1306
sVid
p1317
VT16
p1318
sa(dp1319
Vcategory
p1320
VQuestion
p1321
sg14
g1306
sVid
p1322
VT17
p1323
sa(dp1324
Vcategory
p1325
VDefinition
p1326
sg14
g1306
sVid
p1327
VT10
p1328
sa(dp1329
Vcategory
p1330
Vunlabeled
p1331
sg14
g1306
sVid
p1332
VT11
p1333
sa(dp1334
Vcategory
p1335
VDefinition
p1336
sg14
g1306
sVid
p1337
VT12
p1338
sa(dp1339
Vcategory
p1340
Vunlabeled
p1341
sg14
g1306
sVid
p1342
VT13
p1343
sa(dp1344
Vcategory
p1345
VQuestion
p1346
sg14
g1306
sVid
p1347
VT18
p1348
sa(dp1349
Vcategory
p1350
VQuestion
p1351
sg14
g1306
sVid
p1352
VT19
p1353
sa(dp1354
Vcategory
p1355
Vunlabeled
p1356
sg14
g1306
sVid
p1357
VT8
p1358
sa(dp1359
Vcategory
p1360
Vunlabeled
p1361
sg14
g1306
sVid
p1362
VT9
p1363
sa(dp1364
Vcategory
p1365
Vunlabeled
p1366
sg14
g1306
sVid
p1367
VT6
p1368
sa(dp1369
Vcategory
p1370
VDiscussion
p1371
sg14
g1306
sVid
p1372
VT7
p1373
sa(dp1374
Vcategory
p1375
Vunlabeled
p1376
sg14
g1306
sVid
p1377
VT4
p1378
sa(dp1379
Vcategory
p1380
VHeader/Topic
p1381
sg14
g1306
sVid
p1382
VT5
p1383
sa(dp1384
Vcategory
p1385
Vunlabeled
p1386
sg14
g1306
sVid
p1387
VT2
p1388
sa(dp1389
Vcategory
p1390
Vunlabeled
p1391
sg14
g1306
sVid
p1392
VT3
p1393
sa(dp1394
Vcategory
p1395
Vunlabeled
p1396
sg14
g1306
sVid
p1397
VT1
p1398
sa(dp1399
Vcategory
p1400
VQuestion
p1401
sg14
g1306
sVid
p1402
VT21
p1403
sa(dp1404
Vcategory
p1405
VQuestion
p1406
sg14
g1306
sVid
p1407
VT20
p1408
sa(dp1409
Vcategory
p1410
VQuestion
p1411
sg14
g1306
sVid
p1412
VT23
p1413
sa(dp1414
Vcategory
p1415
VQuestion
p1416
sg14
g1306
sVid
p1417
VT22
p1418
sa(dp1419
Vcategory
p1420
Vunlabeled
p1421
sg14
g1306
sVid
p1422
VT25
p1423
sa(dp1424
Vcategory
p1425
Vunlabeled
p1426
sg14
g1306
sVid
p1427
VT24
p1428
sa(dp1429
Vcategory
p1430
Vunlabeled
p1431
sg14
g1306
sVid
p1432
VT27
p1433
sa(dp1434
Vcategory
p1435
Vunlabeled
p1436
sg14
g1306
sVid
p1437
VT26
p1438
sassa(dp1439
V3TK8OJTYM1MSAMLQEBRFFXAPEP1VP4
p1440
(dp1441
VDaily_Science_Grade_4_Evan_Moor_109.jpeg
p1442
(lp1443
(dp1444
Vcategory
p1445
VDefinition
p1446
sg14
VA3AUOQRKMZTSC1
p1447
sVid
p1448
VT14
p1449
sa(dp1450
Vcategory
p1451
Vunlabeled
p1452
sg14
g1447
sVid
p1453
VT15
p1454
sa(dp1455
Vcategory
p1456
VQuestion
p1457
sg14
g1447
sVid
p1458
VT16
p1459
sa(dp1460
Vcategory
p1461
VQuestion
p1462
sg14
g1447
sVid
p1463
VT17
p1464
sa(dp1465
Vcategory
p1466
VDefinition
p1467
sg14
g1447
sVid
p1468
VT10
p1469
sa(dp1470
Vcategory
p1471
Vunlabeled
p1472
sg14
g1447
sVid
p1473
VT11
p1474
sa(dp1475
Vcategory
p1476
VDefinition
p1477
sg14
g1447
sVid
p1478
VT12
p1479
sa(dp1480
Vcategory
p1481
VDiscussion
p1482
sg14
g1447
sVid
p1483
VT13
p1484
sa(dp1485
Vcategory
p1486
VQuestion
p1487
sg14
g1447
sVid
p1488
VT18
p1489
sa(dp1490
Vcategory
p1491
VQuestion
p1492
sg14
g1447
sVid
p1493
VT19
p1494
sa(dp1495
Vcategory
p1496
Vunlabeled
p1497
sg14
g1447
sVid
p1498
VT8
p1499
sa(dp1500
Vcategory
p1501
Vunlabeled
p1502
sg14
g1447
sVid
p1503
VT9
p1504
sa(dp1505
Vcategory
p1506
Vunlabeled
p1507
sg14
g1447
sVid
p1508
VT6
p1509
sa(dp1510
Vcategory
p1511
VDiscussion
p1512
sg14
g1447
sVid
p1513
VT7
p1514
sa(dp1515
Vcategory
p1516
Vunlabeled
p1517
sg14
g1447
sVid
p1518
VT4
p1519
sa(dp1520
Vcategory
p1521
VHeader/Topic
p1522
sg14
g1447
sVid
p1523
VT5
p1524
sa(dp1525
Vcategory
p1526
Vunlabeled
p1527
sg14
g1447
sVid
p1528
VT2
p1529
sa(dp1530
Vcategory
p1531
Vunlabeled
p1532
sg14
g1447
sVid
p1533
VT3
p1534
sa(dp1535
Vcategory
p1536
Vunlabeled
p1537
sg14
g1447
sVid
p1538
VT1
p1539
sa(dp1540
Vcategory
p1541
VQuestion
p1542
sg14
g1447
sVid
p1543
VT21
p1544
sa(dp1545
Vcategory
p1546
VQuestion
p1547
sg14
g1447
sVid
p1548
VT20
p1549
sa(dp1550
Vcategory
p1551
VQuestion
p1552
sg14
g1447
sVid
p1553
VT23
p1554
sa(dp1555
Vcategory
p1556
VQuestion
p1557
sg14
g1447
sVid
p1558
VT22
p1559
sa(dp1560
Vcategory
p1561
Vunlabeled
p1562
sg14
g1447
sVid
p1563
VT25
p1564
sa(dp1565
Vcategory
p1566
Vunlabeled
p1567
sg14
g1447
sVid
p1568
VT24
p1569
sa(dp1570
Vcategory
p1571
Vunlabeled
p1572
sg14
g1447
sVid
p1573
VT27
p1574
sa(dp1575
Vcategory
p1576
Vunlabeled
p1577
sg14
g1447
sVid
p1578
VT26
p1579
sassasV3YOAVL4CA0IK7T6NRMJT9LH6H3I4ZQ
p1580
(lp1581
(dp1582
V3KKG4CDWKIZ8OMM4DQUVKHAXW1X94M
p1583
(dp1584
VDaily_Science_Grade_4_Evan_Moor_97.jpeg
p1585
(lp1586
(dp1587
Vcategory
p1588
VDiscussion
p1589
sg14
VA19WSWPHT6RS0G
p1590
sVid
p1591
VT14
p1592
sa(dp1593
Vcategory
p1594
VDiscussion
p1595
sg14
g1590
sVid
p1596
VT15
p1597
sa(dp1598
Vcategory
p1599
Vunlabeled
p1600
sg14
g1590
sVid
p1601
VT16
p1602
sa(dp1603
Vcategory
p1604
VDiscussion
p1605
sg14
g1590
sVid
p1606
VT17
p1607
sa(dp1608
Vcategory
p1609
VDiscussion
p1610
sg14
g1590
sVid
p1611
VT10
p1612
sa(dp1613
Vcategory
p1614
VDiscussion
p1615
sg14
g1590
sVid
p1616
VT11
p1617
sa(dp1618
Vcategory
p1619
VDiscussion
p1620
sg14
g1590
sVid
p1621
VT12
p1622
sa(dp1623
Vcategory
p1624
VDiscussion
p1625
sg14
g1590
sVid
p1626
VT13
p1627
sa(dp1628
Vcategory
p1629
VDiscussion
p1630
sg14
g1590
sVid
p1631
VT18
p1632
sa(dp1633
Vcategory
p1634
VDiscussion
p1635
sg14
g1590
sVid
p1636
VT19
p1637
sa(dp1638
Vcategory
p1639
VDiscussion
p1640
sg14
g1590
sVid
p1641
VT8
p1642
sa(dp1643
Vcategory
p1644
VDiscussion
p1645
sg14
g1590
sVid
p1646
VT9
p1647
sa(dp1648
Vcategory
p1649
VDiscussion
p1650
sg14
g1590
sVid
p1651
VT6
p1652
sa(dp1653
Vcategory
p1654
VDiscussion
p1655
sg14
g1590
sVid
p1656
VT7
p1657
sa(dp1658
Vcategory
p1659
VDiscussion
p1660
sg14
g1590
sVid
p1661
VT4
p1662
sa(dp1663
Vcategory
p1664
Vunlabeled
p1665
sg14
g1590
sVid
p1666
VT5
p1667
sa(dp1668
Vcategory
p1669
Vunlabeled
p1670
sg14
g1590
sVid
p1671
VT2
p1672
sa(dp1673
Vcategory
p1674
VDiscussion
p1675
sg14
g1590
sVid
p1676
VT3
p1677
sa(dp1678
Vcategory
p1679
VDiscussion
p1680
sg14
g1590
sVid
p1681
VT1
p1682
sa(dp1683
Vcategory
p1684
Vunlabeled
p1685
sg14
g1590
sVid
p1686
VT21
p1687
sa(dp1688
Vcategory
p1689
VDiscussion
p1690
sg14
g1590
sVid
p1691
VT20
p1692
sa(dp1693
Vcategory
p1694
Vunlabeled
p1695
sg14
g1590
sVid
p1696
VT23
p1697
sa(dp1698
Vcategory
p1699
Vunlabeled
p1700
sg14
g1590
sVid
p1701
VT22
p1702
sa(dp1703
Vcategory
p1704
Vunlabeled
p1705
sg14
g1590
sVid
p1706
VT24
p1707
sassa(dp1708
V3MRNMEIQW57GPK66VYYESUVY98DLDE
p1709
(dp1710
VDaily_Science_Grade_4_Evan_Moor_97.jpeg
p1711
(lp1712
(dp1713
Vcategory
p1714
Vunlabeled
p1715
sg14
VA3I9WD8P9RBFHR
p1716
sVid
p1717
VT14
p1718
sa(dp1719
Vcategory
p1720
Vunlabeled
p1721
sg14
g1716
sVid
p1722
VT15
p1723
sa(dp1724
Vcategory
p1725
Vunlabeled
p1726
sg14
g1716
sVid
p1727
VT16
p1728
sa(dp1729
Vcategory
p1730
Vunlabeled
p1731
sg14
g1716
sVid
p1732
VT17
p1733
sa(dp1734
Vcategory
p1735
VDiscussion
p1736
sg14
g1716
sVid
p1737
VT10
p1738
sa(dp1739
Vcategory
p1740
Vunlabeled
p1741
sg14
g1716
sVid
p1742
VT11
p1743
sa(dp1744
Vcategory
p1745
Vunlabeled
p1746
sg14
g1716
sVid
p1747
VT12
p1748
sa(dp1749
Vcategory
p1750
VDiscussion
p1751
sg14
g1716
sVid
p1752
VT13
p1753
sa(dp1754
Vcategory
p1755
VDiscussion
p1756
sg14
g1716
sVid
p1757
VT18
p1758
sa(dp1759
Vcategory
p1760
VDiscussion
p1761
sg14
g1716
sVid
p1762
VT19
p1763
sa(dp1764
Vcategory
p1765
VDiscussion
p1766
sg14
g1716
sVid
p1767
VT8
p1768
sa(dp1769
Vcategory
p1770
VDiscussion
p1771
sg14
g1716
sVid
p1772
VT9
p1773
sa(dp1774
Vcategory
p1775
VDiscussion
p1776
sg14
g1716
sVid
p1777
VT6
p1778
sa(dp1779
Vcategory
p1780
VDiscussion
p1781
sg14
g1716
sVid
p1782
VT7
p1783
sa(dp1784
Vcategory
p1785
VDefinition
p1786
sg14
g1716
sVid
p1787
VT4
p1788
sa(dp1789
Vcategory
p1790
Vunlabeled
p1791
sg14
g1716
sVid
p1792
VT5
p1793
sa(dp1794
Vcategory
p1795
VHeader/Topic
p1796
sg14
g1716
sVid
p1797
VT2
p1798
sa(dp1799
Vcategory
p1800
VDefinition
p1801
sg14
g1716
sVid
p1802
VT3
p1803
sa(dp1804
Vcategory
p1805
VHeader/Topic
p1806
sg14
g1716
sVid
p1807
VT1
p1808
sa(dp1809
Vcategory
p1810
Vunlabeled
p1811
sg14
g1716
sVid
p1812
VT21
p1813
sa(dp1814
Vcategory
p1815
VDiscussion
p1816
sg14
g1716
sVid
p1817
VT20
p1818
sa(dp1819
Vcategory
p1820
Vunlabeled
p1821
sg14
g1716
sVid
p1822
VT23
p1823
sa(dp1824
Vcategory
p1825
Vunlabeled
p1826
sg14
g1716
sVid
p1827
VT22
p1828
sa(dp1829
Vcategory
p1830
Vunlabeled
p1831
sg14
g1716
sVid
p1832
VT24
p1833
sassa(dp1834
V3NPFYT4IZC5E1YXMB72A99TIUBPXGD
p1835
(dp1836
VDaily_Science_Grade_4_Evan_Moor_97.jpeg
p1837
(lp1838
(dp1839
Vcategory
p1840
VDiscussion
p1841
sg14
VA03922113RU44GENR8ATX
p1842
sVid
p1843
VT14
p1844
sa(dp1845
Vcategory
p1846
VDiscussion
p1847
sg14
g1842
sVid
p1848
VT15
p1849
sa(dp1850
Vcategory
p1851
VDiscussion
p1852
sg14
g1842
sVid
p1853
VT16
p1854
sa(dp1855
Vcategory
p1856
VDiscussion
p1857
sg14
g1842
sVid
p1858
VT17
p1859
sa(dp1860
Vcategory
p1861
Vunlabeled
p1862
sg14
g1842
sVid
p1863
VT10
p1864
sa(dp1865
Vcategory
p1866
VDiscussion
p1867
sg14
g1842
sVid
p1868
VT11
p1869
sa(dp1870
Vcategory
p1871
VDiscussion
p1872
sg14
g1842
sVid
p1873
VT12
p1874
sa(dp1875
Vcategory
p1876
Vunlabeled
p1877
sg14
g1842
sVid
p1878
VT13
p1879
sa(dp1880
Vcategory
p1881
Vunlabeled
p1882
sg14
g1842
sVid
p1883
VT18
p1884
sa(dp1885
Vcategory
p1886
Vunlabeled
p1887
sg14
g1842
sVid
p1888
VT19
p1889
sa(dp1890
Vcategory
p1891
Vunlabeled
p1892
sg14
g1842
sVid
p1893
VT8
p1894
sa(dp1895
Vcategory
p1896
VDiscussion
p1897
sg14
g1842
sVid
p1898
VT9
p1899
sa(dp1900
Vcategory
p1901
VDiscussion
p1902
sg14
g1842
sVid
p1903
VT6
p1904
sa(dp1905
Vcategory
p1906
Vunlabeled
p1907
sg14
g1842
sVid
p1908
VT7
p1909
sa(dp1910
Vcategory
p1911
Vunlabeled
p1912
sg14
g1842
sVid
p1913
VT4
p1914
sa(dp1915
Vcategory
p1916
Vunlabeled
p1917
sg14
g1842
sVid
p1918
VT5
p1919
sa(dp1920
Vcategory
p1921
Vunlabeled
p1922
sg14
g1842
sVid
p1923
VT2
p1924
sa(dp1925
Vcategory
p1926
Vunlabeled
p1927
sg14
g1842
sVid
p1928
VT3
p1929
sa(dp1930
Vcategory
p1931
VHeader/Topic
p1932
sg14
g1842
sVid
p1933
VT1
p1934
sa(dp1935
Vcategory
p1936
Vunlabeled
p1937
sg14
g1842
sVid
p1938
VT21
p1939
sa(dp1940
Vcategory
p1941
Vunlabeled
p1942
sg14
g1842
sVid
p1943
VT20
p1944
sa(dp1945
Vcategory
p1946
Vunlabeled
p1947
sg14
g1842
sVid
p1948
VT23
p1949
sa(dp1950
Vcategory
p1951
Vunlabeled
p1952
sg14
g1842
sVid
p1953
VT22
p1954
sa(dp1955
Vcategory
p1956
Vunlabeled
p1957
sg14
g1842
sVid
p1958
VT24
p1959
sassasV3ZQX1VYFTD69RQFI1GYPAZQ7ZLBO8F
p1960
(lp1961
(dp1962
V36V4Q8R5ZK1UKBSW0W5DS6HMSSFQMD
p1963
(dp1964
VDaily_Science_Grade_5_Evan_Moor_152.jpeg
p1965
(lp1966
(dp1967
Vcategory
p1968
VQuestion
p1969
sg14
VA3GNQDFPZALU92
p1970
sVid
p1971
VT14
p1972
sa(dp1973
Vcategory
p1974
VQuestion
p1975
sg14
g1970
sVid
p1976
VT15
p1977
sa(dp1978
Vcategory
p1979
VQuestion
p1980
sg14
g1970
sVid
p1981
VT16
p1982
sa(dp1983
Vcategory
p1984
VQuestion
p1985
sg14
g1970
sVid
p1986
VT17
p1987
sa(dp1988
Vcategory
p1989
VQuestion
p1990
sg14
g1970
sVid
p1991
VT10
p1992
sa(dp1993
Vcategory
p1994
VQuestion
p1995
sg14
g1970
sVid
p1996
VT11
p1997
sa(dp1998
Vcategory
p1999
VQuestion
p2000
sg14
g1970
sVid
p2001
VT12
p2002
sa(dp2003
Vcategory
p2004
VQuestion
p2005
sg14
g1970
sVid
p2006
VT13
p2007
sa(dp2008
Vcategory
p2009
VQuestion
p2010
sg14
g1970
sVid
p2011
VT18
p2012
sa(dp2013
Vcategory
p2014
VQuestion
p2015
sg14
g1970
sVid
p2016
VT19
p2017
sa(dp2018
Vcategory
p2019
Vunlabeled
p2020
sg14
g1970
sVid
p2021
VT8
p2022
sa(dp2023
Vcategory
p2024
VQuestion
p2025
sg14
g1970
sVid
p2026
VT9
p2027
sa(dp2028
Vcategory
p2029
VHeader/Topic
p2030
sg14
g1970
sVid
p2031
VT6
p2032
sa(dp2033
Vcategory
p2034
VQuestion
p2035
sg14
g1970
sVid
p2036
VT7
p2037
sa(dp2038
Vcategory
p2039
VHeader/Topic
p2040
sg14
g1970
sVid
p2041
VT4
p2042
sa(dp2043
Vcategory
p2044
Vunlabeled
p2045
sg14
g1970
sVid
p2046
VT5
p2047
sa(dp2048
Vcategory
p2049
Vunlabeled
p2050
sg14
g1970
sVid
p2051
VT2
p2052
sa(dp2053
Vcategory
p2054
Vunlabeled
p2055
sg14
g1970
sVid
p2056
VT3
p2057
sa(dp2058
Vcategory
p2059
Vunlabeled
p2060
sg14
g1970
sVid
p2061
VT1
p2062
sa(dp2063
Vcategory
p2064
VFigure Label
p2065
sg14
g1970
sVid
p2066
VT21
p2067
sa(dp2068
Vcategory
p2069
VQuestion
p2070
sg14
g1970
sVid
p2071
VT20
p2072
sa(dp2073
Vcategory
p2074
VFigure Label
p2075
sg14
g1970
sVid
p2076
VT23
p2077
sa(dp2078
Vcategory
p2079
VFigure Label
p2080
sg14
g1970
sVid
p2081
VT22
p2082
sa(dp2083
Vcategory
p2084
Vunlabeled
p2085
sg14
g1970
sVid
p2086
VT25
p2087
sa(dp2088
Vcategory
p2089
VFigure Label
p2090
sg14
g1970
sVid
p2091
VT24
p2092
sa(dp2093
Vcategory
p2094
Vunlabeled
p2095
sg14
g1970
sVid
p2096
VT27
p2097
sa(dp2098
Vcategory
p2099
Vunlabeled
p2100
sg14
g1970
sVid
p2101
VT26
p2102
sassa(dp2103
V34MAJL3QP4OM9KXOWHTLT47BW9M43Z
p2104
(dp2105
VDaily_Science_Grade_5_Evan_Moor_152.jpeg
p2106
(lp2107
(dp2108
Vcategory
p2109
VQuestion
p2110
sg14
VA36PFUM96J0ES6
p2111
sVid
p2112
VT14
p2113
sa(dp2114
Vcategory
p2115
VQuestion
p2116
sg14
g2111
sVid
p2117
VT15
p2118
sa(dp2119
Vcategory
p2120
VQuestion
p2121
sg14
g2111
sVid
p2122
VT16
p2123
sa(dp2124
Vcategory
p2125
VQuestion
p2126
sg14
g2111
sVid
p2127
VT17
p2128
sa(dp2129
Vcategory
p2130
VQuestion
p2131
sg14
g2111
sVid
p2132
VT10
p2133
sa(dp2134
Vcategory
p2135
VQuestion
p2136
sg14
g2111
sVid
p2137
VT11
p2138
sa(dp2139
Vcategory
p2140
VQuestion
p2141
sg14
g2111
sVid
p2142
VT12
p2143
sa(dp2144
Vcategory
p2145
VQuestion
p2146
sg14
g2111
sVid
p2147
VT13
p2148
sa(dp2149
Vcategory
p2150
VQuestion
p2151
sg14
g2111
sVid
p2152
VT18
p2153
sa(dp2154
Vcategory
p2155
VQuestion
p2156
sg14
g2111
sVid
p2157
VT19
p2158
sa(dp2159
Vcategory
p2160
Vunlabeled
p2161
sg14
g2111
sVid
p2162
VT8
p2163
sa(dp2164
Vcategory
p2165
VQuestion
p2166
sg14
g2111
sVid
p2167
VT9
p2168
sa(dp2169
Vcategory
p2170
VHeader/Topic
p2171
sg14
g2111
sVid
p2172
VT6
p2173
sa(dp2174
Vcategory
p2175
VQuestion
p2176
sg14
g2111
sVid
p2177
VT7
p2178
sa(dp2179
Vcategory
p2180
Vunlabeled
p2181
sg14
g2111
sVid
p2182
VT4
p2183
sa(dp2184
Vcategory
p2185
Vunlabeled
p2186
sg14
g2111
sVid
p2187
VT5
p2188
sa(dp2189
Vcategory
p2190
Vunlabeled
p2191
sg14
g2111
sVid
p2192
VT2
p2193
sa(dp2194
Vcategory
p2195
Vunlabeled
p2196
sg14
g2111
sVid
p2197
VT3
p2198
sa(dp2199
Vcategory
p2200
Vunlabeled
p2201
sg14
g2111
sVid
p2202
VT1
p2203
sa(dp2204
Vcategory
p2205
VFigure Label
p2206
sg14
g2111
sVid
p2207
VT21
p2208
sa(dp2209
Vcategory
p2210
VQuestion
p2211
sg14
g2111
sVid
p2212
VT20
p2213
sa(dp2214
Vcategory
p2215
VFigure Label
p2216
sg14
g2111
sVid
p2217
VT23
p2218
sa(dp2219
Vcategory
p2220
VFigure Label
p2221
sg14
g2111
sVid
p2222
VT22
p2223
sa(dp2224
Vcategory
p2225
Vunlabeled
p2226
sg14
g2111
sVid
p2227
VT25
p2228
sa(dp2229
Vcategory
p2230
VFigure Label
p2231
sg14
g2111
sVid
p2232
VT24
p2233
sa(dp2234
Vcategory
p2235
Vunlabeled
p2236
sg14
g2111
sVid
p2237
VT27
p2238
sa(dp2239
Vcategory
p2240
Vunlabeled
p2241
sg14
g2111
sVid
p2242
VT26
p2243
sassa(dp2244
V3ZPPDN2SLVXQGOJX2W68T3MOAS19E7
p2245
(dp2246
VDaily_Science_Grade_5_Evan_Moor_152.jpeg
p2247
(lp2248
(dp2249
Vcategory
p2250
VQuestion
p2251
sg14
VAAC5XT7UY7B2K
p2252
sVid
p2253
VT14
p2254
sa(dp2255
Vcategory
p2256
VQuestion
p2257
sg14
g2252
sVid
p2258
VT15
p2259
sa(dp2260
Vcategory
p2261
VQuestion
p2262
sg14
g2252
sVid
p2263
VT16
p2264
sa(dp2265
Vcategory
p2266
VQuestion
p2267
sg14
g2252
sVid
p2268
VT17
p2269
sa(dp2270
Vcategory
p2271
VQuestion
p2272
sg14
g2252
sVid
p2273
VT10
p2274
sa(dp2275
Vcategory
p2276
VQuestion
p2277
sg14
g2252
sVid
p2278
VT11
p2279
sa(dp2280
Vcategory
p2281
VQuestion
p2282
sg14
g2252
sVid
p2283
VT12
p2284
sa(dp2285
Vcategory
p2286
VQuestion
p2287
sg14
g2252
sVid
p2288
VT13
p2289
sa(dp2290
Vcategory
p2291
VQuestion
p2292
sg14
g2252
sVid
p2293
VT18
p2294
sa(dp2295
Vcategory
p2296
VQuestion
p2297
sg14
g2252
sVid
p2298
VT19
p2299
sa(dp2300
Vcategory
p2301
Vunlabeled
p2302
sg14
g2252
sVid
p2303
VT8
p2304
sa(dp2305
Vcategory
p2306
VQuestion
p2307
sg14
g2252
sVid
p2308
VT9
p2309
sa(dp2310
Vcategory
p2311
VHeader/Topic
p2312
sg14
g2252
sVid
p2313
VT6
p2314
sa(dp2315
Vcategory
p2316
VQuestion
p2317
sg14
g2252
sVid
p2318
VT7
p2319
sa(dp2320
Vcategory
p2321
Vunlabeled
p2322
sg14
g2252
sVid
p2323
VT4
p2324
sa(dp2325
Vcategory
p2326
Vunlabeled
p2327
sg14
g2252
sVid
p2328
VT5
p2329
sa(dp2330
Vcategory
p2331
Vunlabeled
p2332
sg14
g2252
sVid
p2333
VT2
p2334
sa(dp2335
Vcategory
p2336
Vunlabeled
p2337
sg14
g2252
sVid
p2338
VT3
p2339
sa(dp2340
Vcategory
p2341
Vunlabeled
p2342
sg14
g2252
sVid
p2343
VT1
p2344
sa(dp2345
Vcategory
p2346
VFigure Label
p2347
sg14
g2252
sVid
p2348
VT21
p2349
sa(dp2350
Vcategory
p2351
VQuestion
p2352
sg14
g2252
sVid
p2353
VT20
p2354
sa(dp2355
Vcategory
p2356
VFigure Label
p2357
sg14
g2252
sVid
p2358
VT23
p2359
sa(dp2360
Vcategory
p2361
VFigure Label
p2362
sg14
g2252
sVid
p2363
VT22
p2364
sa(dp2365
Vcategory
p2366
Vunlabeled
p2367
sg14
g2252
sVid
p2368
VT25
p2369
sa(dp2370
Vcategory
p2371
VFigure Label
p2372
sg14
g2252
sVid
p2373
VT24
p2374
sa(dp2375
Vcategory
p2376
Vunlabeled
p2377
sg14
g2252
sVid
p2378
VT27
p2379
sa(dp2380
Vcategory
p2381
Vunlabeled
p2382
sg14
g2252
sVid
p2383
VT26
p2384
sassasV3JVP4ZJHDPTHDFZC8H85XNO34E00I9
p2385
(lp2386
(dp2387
V3MH9DQ757WDMKU3R62RNP2UEZRDUGI
p2388
(dp2389
VDaily_Science_Grade_5_Evan_Moor_75.jpeg
p2390
(lp2391
(dp2392
Vcategory
p2393
VDiscussion
p2394
sg14
VA1Y50NM443ITPK
p2395
sVid
p2396
VT14
p2397
sa(dp2398
Vcategory
p2399
VDefinition
p2400
sg14
g2395
sVid
p2401
VT15
p2402
sa(dp2403
Vcategory
p2404
Vunlabeled
p2405
sg14
g2395
sVid
p2406
VT16
p2407
sa(dp2408
Vcategory
p2409
VDiscussion
p2410
sg14
g2395
sVid
p2411
VT17
p2412
sa(dp2413
Vcategory
p2414
VDefinition
p2415
sg14
g2395
sVid
p2416
VT10
p2417
sa(dp2418
Vcategory
p2419
Vunlabeled
p2420
sg14
g2395
sVid
p2421
VT11
p2422
sa(dp2423
Vcategory
p2424
VDiscussion
p2425
sg14
g2395
sVid
p2426
VT12
p2427
sa(dp2428
Vcategory
p2429
VDefinition
p2430
sg14
g2395
sVid
p2431
VT13
p2432
sa(dp2433
Vcategory
p2434
Vunlabeled
p2435
sg14
g2395
sVid
p2436
VT18
p2437
sa(dp2438
Vcategory
p2439
VDiscussion
p2440
sg14
g2395
sVid
p2441
VT19
p2442
sa(dp2443
Vcategory
p2444
VDiscussion
p2445
sg14
g2395
sVid
p2446
VT8
p2447
sa(dp2448
Vcategory
p2449
VDiscussion
p2450
sg14
g2395
sVid
p2451
VT9
p2452
sa(dp2453
Vcategory
p2454
VDiscussion
p2455
sg14
g2395
sVid
p2456
VT6
p2457
sa(dp2458
Vcategory
p2459
VDiscussion
p2460
sg14
g2395
sVid
p2461
VT7
p2462
sa(dp2463
Vcategory
p2464
VHeader/Topic
p2465
sg14
g2395
sVid
p2466
VT4
p2467
sa(dp2468
Vcategory
p2469
Vunlabeled
p2470
sg14
g2395
sVid
p2471
VT5
p2472
sa(dp2473
Vcategory
p2474
VHeader/Topic
p2475
sg14
g2395
sVid
p2476
VT2
p2477
sa(dp2478
Vcategory
p2479
Vunlabeled
p2480
sg14
g2395
sVid
p2481
VT3
p2482
sa(dp2483
Vcategory
p2484
Vunlabeled
p2485
sg14
g2395
sVid
p2486
VT1
p2487
sa(dp2488
Vcategory
p2489
Vunlabeled
p2490
sg14
g2395
sVid
p2491
VT21
p2492
sa(dp2493
Vcategory
p2494
Vunlabeled
p2495
sg14
g2395
sVid
p2496
VT20
p2497
sa(dp2498
Vcategory
p2499
Vunlabeled
p2500
sg14
g2395
sVid
p2501
VT23
p2502
sa(dp2503
Vcategory
p2504
Vunlabeled
p2505
sg14
g2395
sVid
p2506
VT22
p2507
sa(dp2508
Vcategory
p2509
Vunlabeled
p2510
sg14
g2395
sVid
p2511
VT25
p2512
sa(dp2513
Vcategory
p2514
Vunlabeled
p2515
sg14
g2395
sVid
p2516
VT24
p2517
sassa(dp2518
V3TR2532VIPVB9L3RIQEN698EOXL6J5
p2519
(dp2520
VDaily_Science_Grade_5_Evan_Moor_75.jpeg
p2521
(lp2522
(dp2523
Vcategory
p2524
VAnswer
p2525
sg14
VA3I9WD8P9RBFHR
p2526
sVid
p2527
VT14
p2528
sa(dp2529
Vcategory
p2530
Vunlabeled
p2531
sg14
g2526
sVid
p2532
VT15
p2533
sa(dp2534
Vcategory
p2535
Vunlabeled
p2536
sg14
g2526
sVid
p2537
VT16
p2538
sa(dp2539
Vcategory
p2540
VAnswer
p2541
sg14
g2526
sVid
p2542
VT17
p2543
sa(dp2544
Vcategory
p2545
Vunlabeled
p2546
sg14
g2526
sVid
p2547
VT10
p2548
sa(dp2549
Vcategory
p2550
Vunlabeled
p2551
sg14
g2526
sVid
p2552
VT11
p2553
sa(dp2554
Vcategory
p2555
VAnswer
p2556
sg14
g2526
sVid
p2557
VT12
p2558
sa(dp2559
Vcategory
p2560
Vunlabeled
p2561
sg14
g2526
sVid
p2562
VT13
p2563
sa(dp2564
Vcategory
p2565
Vunlabeled
p2566
sg14
g2526
sVid
p2567
VT18
p2568
sa(dp2569
Vcategory
p2570
VAnswer
p2571
sg14
g2526
sVid
p2572
VT19
p2573
sa(dp2574
Vcategory
p2575
VDiscussion
p2576
sg14
g2526
sVid
p2577
VT8
p2578
sa(dp2579
Vcategory
p2580
VAnswer
p2581
sg14
g2526
sVid
p2582
VT9
p2583
sa(dp2584
Vcategory
p2585
VDiscussion
p2586
sg14
g2526
sVid
p2587
VT6
p2588
sa(dp2589
Vcategory
p2590
Vunlabeled
p2591
sg14
g2526
sVid
p2592
VT7
p2593
sa(dp2594
Vcategory
p2595
VHeader/Topic
p2596
sg14
g2526
sVid
p2597
VT4
p2598
sa(dp2599
Vcategory
p2600
Vunlabeled
p2601
sg14
g2526
sVid
p2602
VT5
p2603
sa(dp2604
Vcategory
p2605
Vunlabeled
p2606
sg14
g2526
sVid
p2607
VT2
p2608
sa(dp2609
Vcategory
p2610
Vunlabeled
p2611
sg14
g2526
sVid
p2612
VT3
p2613
sa(dp2614
Vcategory
p2615
Vunlabeled
p2616
sg14
g2526
sVid
p2617
VT1
p2618
sa(dp2619
Vcategory
p2620
Vunlabeled
p2621
sg14
g2526
sVid
p2622
VT21
p2623
sa(dp2624
Vcategory
p2625
Vunlabeled
p2626
sg14
g2526
sVid
p2627
VT20
p2628
sa(dp2629
Vcategory
p2630
Vunlabeled
p2631
sg14
g2526
sVid
p2632
VT23
p2633
sa(dp2634
Vcategory
p2635
Vunlabeled
p2636
sg14
g2526
sVid
p2637
VT22
p2638
sa(dp2639
Vcategory
p2640
Vunlabeled
p2641
sg14
g2526
sVid
p2642
VT25
p2643
sa(dp2644
Vcategory
p2645
Vunlabeled
p2646
sg14
g2526
sVid
p2647
VT24
p2648
sassa(dp2649
V3QY7M81QH7NPO5NEJLJRD28NYXQK72
p2650
(dp2651
VDaily_Science_Grade_5_Evan_Moor_75.jpeg
p2652
(lp2653
(dp2654
Vcategory
p2655
Vunlabeled
p2656
sg14
VA3AUOQRKMZTSC1
p2657
sVid
p2658
VT14
p2659
sa(dp2660
Vcategory
p2661
Vunlabeled
p2662
sg14
g2657
sVid
p2663
VT15
p2664
sa(dp2665
Vcategory
p2666
Vunlabeled
p2667
sg14
g2657
sVid
p2668
VT16
p2669
sa(dp2670
Vcategory
p2671
Vunlabeled
p2672
sg14
g2657
sVid
p2673
VT17
p2674
sa(dp2675
Vcategory
p2676
Vunlabeled
p2677
sg14
g2657
sVid
p2678
VT10
p2679
sa(dp2680
Vcategory
p2681
Vunlabeled
p2682
sg14
g2657
sVid
p2683
VT11
p2684
sa(dp2685
Vcategory
p2686
Vunlabeled
p2687
sg14
g2657
sVid
p2688
VT12
p2689
sa(dp2690
Vcategory
p2691
Vunlabeled
p2692
sg14
g2657
sVid
p2693
VT13
p2694
sa(dp2695
Vcategory
p2696
Vunlabeled
p2697
sg14
g2657
sVid
p2698
VT18
p2699
sa(dp2700
Vcategory
p2701
Vunlabeled
p2702
sg14
g2657
sVid
p2703
VT19
p2704
sa(dp2705
Vcategory
p2706
VDiscussion
p2707
sg14
g2657
sVid
p2708
VT8
p2709
sa(dp2710
Vcategory
p2711
Vunlabeled
p2712
sg14
g2657
sVid
p2713
VT9
p2714
sa(dp2715
Vcategory
p2716
VDiscussion
p2717
sg14
g2657
sVid
p2718
VT6
p2719
sa(dp2720
Vcategory
p2721
VDiscussion
p2722
sg14
g2657
sVid
p2723
VT7
p2724
sa(dp2725
Vcategory
p2726
VHeader/Topic
p2727
sg14
g2657
sVid
p2728
VT4
p2729
sa(dp2730
Vcategory
p2731
Vunlabeled
p2732
sg14
g2657
sVid
p2733
VT5
p2734
sa(dp2735
Vcategory
p2736
Vunlabeled
p2737
sg14
g2657
sVid
p2738
VT2
p2739
sa(dp2740
Vcategory
p2741
Vunlabeled
p2742
sg14
g2657
sVid
p2743
VT3
p2744
sa(dp2745
Vcategory
p2746
Vunlabeled
p2747
sg14
g2657
sVid
p2748
VT1
p2749
sa(dp2750
Vcategory
p2751
Vunlabeled
p2752
sg14
g2657
sVid
p2753
VT21
p2754
sa(dp2755
Vcategory
p2756
Vunlabeled
p2757
sg14
g2657
sVid
p2758
VT20
p2759
sa(dp2760
Vcategory
p2761
Vunlabeled
p2762
sg14
g2657
sVid
p2763
VT23
p2764
sa(dp2765
Vcategory
p2766
Vunlabeled
p2767
sg14
g2657
sVid
p2768
VT22
p2769
sa(dp2770
Vcategory
p2771
Vunlabeled
p2772
sg14
g2657
sVid
p2773
VT25
p2774
sa(dp2775
Vcategory
p2776
Vunlabeled
p2777
sg14
g2657
sVid
p2778
VT24
p2779
sassasV3X52SWXE0X6J82EX9E54TFZCSEVWC5
p2780
(lp2781
(dp2782
V3H0W84IWBK3WKOFJWD6UKOMIFC3RE3
p2783
(dp2784
VDaily_Science_Grade_6_(Daily_Practice_Books)_Evan_Moor_155.jpeg
p2785
(lp2786
(dp2787
Vcategory
p2788
Vunlabeled
p2789
sg14
VA230N919X9GWNN
p2790
sVid
p2791
VT72
p2792
sa(dp2793
Vcategory
p2794
Vunlabeled
p2795
sg14
g2790
sVid
p2796
VT73
p2797
sa(dp2798
Vcategory
p2799
Vunlabeled
p2800
sg14
g2790
sVid
p2801
VT70
p2802
sa(dp2803
Vcategory
p2804
Vunlabeled
p2805
sg14
g2790
sVid
p2806
VT71
p2807
sa(dp2808
Vcategory
p2809
Vunlabeled
p2810
sg14
g2790
sVid
p2811
VT76
p2812
sa(dp2813
Vcategory
p2814
Vunlabeled
p2815
sg14
g2790
sVid
p2816
VT77
p2817
sa(dp2818
Vcategory
p2819
Vunlabeled
p2820
sg14
g2790
sVid
p2821
VT74
p2822
sa(dp2823
Vcategory
p2824
Vunlabeled
p2825
sg14
g2790
sVid
p2826
VT75
p2827
sa(dp2828
Vcategory
p2829
Vunlabeled
p2830
sg14
g2790
sVid
p2831
VT78
p2832
sa(dp2833
Vcategory
p2834
Vunlabeled
p2835
sg14
g2790
sVid
p2836
VT79
p2837
sa(dp2838
Vcategory
p2839
Vunlabeled
p2840
sg14
g2790
sVid
p2841
VT89
p2842
sa(dp2843
Vcategory
p2844
Vunlabeled
p2845
sg14
g2790
sVid
p2846
VT88
p2847
sa(dp2848
Vcategory
p2849
Vunlabeled
p2850
sg14
g2790
sVid
p2851
VT87
p2852
sa(dp2853
Vcategory
p2854
Vunlabeled
p2855
sg14
g2790
sVid
p2856
VT86
p2857
sa(dp2858
Vcategory
p2859
Vunlabeled
p2860
sg14
g2790
sVid
p2861
VT85
p2862
sa(dp2863
Vcategory
p2864
Vunlabeled
p2865
sg14
g2790
sVid
p2866
VT84
p2867
sa(dp2868
Vcategory
p2869
Vunlabeled
p2870
sg14
g2790
sVid
p2871
VT83
p2872
sa(dp2873
Vcategory
p2874
Vunlabeled
p2875
sg14
g2790
sVid
p2876
VT82
p2877
sa(dp2878
Vcategory
p2879
Vunlabeled
p2880
sg14
g2790
sVid
p2881
VT81
p2882
sa(dp2883
Vcategory
p2884
Vunlabeled
p2885
sg14
g2790
sVid
p2886
VT80
p2887
sa(dp2888
Vcategory
p2889
Vunlabeled
p2890
sg14
g2790
sVid
p2891
VT14
p2892
sa(dp2893
Vcategory
p2894
Vunlabeled
p2895
sg14
g2790
sVid
p2896
VT15
p2897
sa(dp2898
Vcategory
p2899
VFigure Label
p2900
sg14
g2790
sVid
p2901
VT16
p2902
sa(dp2903
Vcategory
p2904
Vunlabeled
p2905
sg14
g2790
sVid
p2906
VT17
p2907
sa(dp2908
Vcategory
p2909
VFigure Label
p2910
sg14
g2790
sVid
p2911
VT10
p2912
sa(dp2913
Vcategory
p2914
VFigure Label
p2915
sg14
g2790
sVid
p2916
VT11
p2917
sa(dp2918
Vcategory
p2919
VFigure Label
p2920
sg14
g2790
sVid
p2921
VT12
p2922
sa(dp2923
Vcategory
p2924
VFigure Label
p2925
sg14
g2790
sVid
p2926
VT13
p2927
sa(dp2928
Vcategory
p2929
VFigure Label
p2930
sg14
g2790
sVid
p2931
VT18
p2932
sa(dp2933
Vcategory
p2934
Vunlabeled
p2935
sg14
g2790
sVid
p2936
VT19
p2937
sa(dp2938
Vcategory
p2939
VQuestion
p2940
sg14
g2790
sVid
p2941
VT98
p2942
sa(dp2943
Vcategory
p2944
VQuestion
p2945
sg14
g2790
sVid
p2946
VT99
p2947
sa(dp2948
Vcategory
p2949
Vunlabeled
p2950
sg14
g2790
sVid
p2951
VT94
p2952
sa(dp2953
Vcategory
p2954
Vunlabeled
p2955
sg14
g2790
sVid
p2956
VT95
p2957
sa(dp2958
Vcategory
p2959
VQuestion
p2960
sg14
g2790
sVid
p2961
VT96
p2962
sa(dp2963
Vcategory
p2964
VQuestion
p2965
sg14
g2790
sVid
p2966
VT97
p2967
sa(dp2968
Vcategory
p2969
Vunlabeled
p2970
sg14
g2790
sVid
p2971
VT90
p2972
sa(dp2973
Vcategory
p2974
Vunlabeled
p2975
sg14
g2790
sVid
p2976
VT91
p2977
sa(dp2978
Vcategory
p2979
Vunlabeled
p2980
sg14
g2790
sVid
p2981
VT92
p2982
sa(dp2983
Vcategory
p2984
Vunlabeled
p2985
sg14
g2790
sVid
p2986
VT93
p2987
sa(dp2988
Vcategory
p2989
Vunlabeled
p2990
sg14
g2790
sVid
p2991
VT29
p2992
sa(dp2993
Vcategory
p2994
Vunlabeled
p2995
sg14
g2790
sVid
p2996
VT28
p2997
sa(dp2998
Vcategory
p2999
Vunlabeled
p3000
sg14
g2790
sVid
p3001
VT21
p3002
sa(dp3003
Vcategory
p3004
Vunlabeled
p3005
sg14
g2790
sVid
p3006
VT20
p3007
sa(dp3008
Vcategory
p3009
Vunlabeled
p3010
sg14
g2790
sVid
p3011
VT23
p3012
sa(dp3013
Vcategory
p3014
Vunlabeled
p3015
sg14
g2790
sVid
p3016
VT22
p3017
sa(dp3018
Vcategory
p3019
Vunlabeled
p3020
sg14
g2790
sVid
p3021
VT25
p3022
sa(dp3023
Vcategory
p3024
Vunlabeled
p3025
sg14
g2790
sVid
p3026
VT24
p3027
sa(dp3028
Vcategory
p3029
Vunlabeled
p3030
sg14
g2790
sVid
p3031
VT27
p3032
sa(dp3033
Vcategory
p3034
Vunlabeled
p3035
sg14
g2790
sVid
p3036
VT26
p3037
sa(dp3038
Vcategory
p3039
Vunlabeled
p3040
sg14
g2790
sVid
p3041
VT38
p3042
sa(dp3043
Vcategory
p3044
Vunlabeled
p3045
sg14
g2790
sVid
p3046
VT39
p3047
sa(dp3048
Vcategory
p3049
Vunlabeled
p3050
sg14
g2790
sVid
p3051
VT36
p3052
sa(dp3053
Vcategory
p3054
Vunlabeled
p3055
sg14
g2790
sVid
p3056
VT37
p3057
sa(dp3058
Vcategory
p3059
Vunlabeled
p3060
sg14
g2790
sVid
p3061
VT34
p3062
sa(dp3063
Vcategory
p3064
Vunlabeled
p3065
sg14
g2790
sVid
p3066
VT35
p3067
sa(dp3068
Vcategory
p3069
Vunlabeled
p3070
sg14
g2790
sVid
p3071
VT32
p3072
sa(dp3073
Vcategory
p3074
Vunlabeled
p3075
sg14
g2790
sVid
p3076
VT33
p3077
sa(dp3078
Vcategory
p3079
Vunlabeled
p3080
sg14
g2790
sVid
p3081
VT30
p3082
sa(dp3083
Vcategory
p3084
Vunlabeled
p3085
sg14
g2790
sVid
p3086
VT31
p3087
sa(dp3088
Vcategory
p3089
Vunlabeled
p3090
sg14
g2790
sVid
p3091
VT49
p3092
sa(dp3093
Vcategory
p3094
Vunlabeled
p3095
sg14
g2790
sVid
p3096
VT48
p3097
sa(dp3098
Vcategory
p3099
Vunlabeled
p3100
sg14
g2790
sVid
p3101
VT43
p3102
sa(dp3103
Vcategory
p3104
Vunlabeled
p3105
sg14
g2790
sVid
p3106
VT42
p3107
sa(dp3108
Vcategory
p3109
Vunlabeled
p3110
sg14
g2790
sVid
p3111
VT41
p3112
sa(dp3113
Vcategory
p3114
Vunlabeled
p3115
sg14
g2790
sVid
p3116
VT40
p3117
sa(dp3118
Vcategory
p3119
Vunlabeled
p3120
sg14
g2790
sVid
p3121
VT47
p3122
sa(dp3123
Vcategory
p3124
Vunlabeled
p3125
sg14
g2790
sVid
p3126
VT46
p3127
sa(dp3128
Vcategory
p3129
Vunlabeled
p3130
sg14
g2790
sVid
p3131
VT45
p3132
sa(dp3133
Vcategory
p3134
Vunlabeled
p3135
sg14
g2790
sVid
p3136
VT44
p3137
sa(dp3138
Vcategory
p3139
Vunlabeled
p3140
sg14
g2790
sVid
p3141
VT58
p3142
sa(dp3143
Vcategory
p3144
Vunlabeled
p3145
sg14
g2790
sVid
p3146
VT59
p3147
sa(dp3148
Vcategory
p3149
Vunlabeled
p3150
sg14
g2790
sVid
p3151
VT50
p3152
sa(dp3153
Vcategory
p3154
Vunlabeled
p3155
sg14
g2790
sVid
p3156
VT51
p3157
sa(dp3158
Vcategory
p3159
Vunlabeled
p3160
sg14
g2790
sVid
p3161
VT52
p3162
sa(dp3163
Vcategory
p3164
Vunlabeled
p3165
sg14
g2790
sVid
p3166
VT53
p3167
sa(dp3168
Vcategory
p3169
Vunlabeled
p3170
sg14
g2790
sVid
p3171
VT54
p3172
sa(dp3173
Vcategory
p3174
Vunlabeled
p3175
sg14
g2790
sVid
p3176
VT55
p3177
sa(dp3178
Vcategory
p3179
Vunlabeled
p3180
sg14
g2790
sVid
p3181
VT56
p3182
sa(dp3183
Vcategory
p3184
Vunlabeled
p3185
sg14
g2790
sVid
p3186
VT57
p3187
sa(dp3188
Vcategory
p3189
Vunlabeled
p3190
sg14
g2790
sVid
p3191
VT101
p3192
sa(dp3193
Vcategory
p3194
VQuestion
p3195
sg14
g2790
sVid
p3196
VT100
p3197
sa(dp3198
Vcategory
p3199
Vunlabeled
p3200
sg14
g2790
sVid
p3201
VT103
p3202
sa(dp3203
Vcategory
p3204
Vunlabeled
p3205
sg14
g2790
sVid
p3206
VT102
p3207
sa(dp3208
Vcategory
p3209
Vunlabeled
p3210
sg14
g2790
sVid
p3211
VT104
p3212
sa(dp3213
Vcategory
p3214
VQuestion
p3215
sg14
g2790
sVid
p3216
VT8
p3217
sa(dp3218
Vcategory
p3219
Vunlabeled
p3220
sg14
g2790
sVid
p3221
VT9
p3222
sa(dp3223
Vcategory
p3224
Vunlabeled
p3225
sg14
g2790
sVid
p3226
VT6
p3227
sa(dp3228
Vcategory
p3229
VHeader/Topic
p3230
sg14
g2790
sVid
p3231
VT7
p3232
sa(dp3233
Vcategory
p3234
Vunlabeled
p3235
sg14
g2790
sVid
p3236
VT4
p3237
sa(dp3238
Vcategory
p3239
Vunlabeled
p3240
sg14
g2790
sVid
p3241
VT5
p3242
sa(dp3243
Vcategory
p3244
Vunlabeled
p3245
sg14
g2790
sVid
p3246
VT2
p3247
sa(dp3248
Vcategory
p3249
Vunlabeled
p3250
sg14
g2790
sVid
p3251
VT3
p3252
sa(dp3253
Vcategory
p3254
Vunlabeled
p3255
sg14
g2790
sVid
p3256
VT1
p3257
sa(dp3258
Vcategory
p3259
Vunlabeled
p3260
sg14
g2790
sVid
p3261
VT69
p3262
sa(dp3263
Vcategory
p3264
Vunlabeled
p3265
sg14
g2790
sVid
p3266
VT68
p3267
sa(dp3268
Vcategory
p3269
Vunlabeled
p3270
sg14
g2790
sVid
p3271
VT65
p3272
sa(dp3273
Vcategory
p3274
Vunlabeled
p3275
sg14
g2790
sVid
p3276
VT64
p3277
sa(dp3278
Vcategory
p3279
Vunlabeled
p3280
sg14
g2790
sVid
p3281
VT67
p3282
sa(dp3283
Vcategory
p3284
Vunlabeled
p3285
sg14
g2790
sVid
p3286
VT66
p3287
sa(dp3288
Vcategory
p3289
Vunlabeled
p3290
sg14
g2790
sVid
p3291
VT61
p3292
sa(dp3293
Vcategory
p3294
Vunlabeled
p3295
sg14
g2790
sVid
p3296
VT60
p3297
sa(dp3298
Vcategory
p3299
Vunlabeled
p3300
sg14
g2790
sVid
p3301
VT63
p3302
sa(dp3303
Vcategory
p3304
Vunlabeled
p3305
sg14
g2790
sVid
p3306
VT62
p3307
sassa(dp3308
V3WETL7AQWT94531OAMCVYWDPW5N359
p3309
(dp3310
VDaily_Science_Grade_6_(Daily_Practice_Books)_Evan_Moor_155.jpeg
p3311
(lp3312
(dp3313
Vcategory
p3314
Vunlabeled
p3315
sg14
VA3TXJLD6JNR280
p3316
sVid
p3317
VT72
p3318
sa(dp3319
Vcategory
p3320
Vunlabeled
p3321
sg14
g3316
sVid
p3322
VT73
p3323
sa(dp3324
Vcategory
p3325
Vunlabeled
p3326
sg14
g3316
sVid
p3327
VT70
p3328
sa(dp3329
Vcategory
p3330
Vunlabeled
p3331
sg14
g3316
sVid
p3332
VT71
p3333
sa(dp3334
Vcategory
p3335
Vunlabeled
p3336
sg14
g3316
sVid
p3337
VT76
p3338
sa(dp3339
Vcategory
p3340
Vunlabeled
p3341
sg14
g3316
sVid
p3342
VT77
p3343
sa(dp3344
Vcategory
p3345
Vunlabeled
p3346
sg14
g3316
sVid
p3347
VT74
p3348
sa(dp3349
Vcategory
p3350
Vunlabeled
p3351
sg14
g3316
sVid
p3352
VT75
p3353
sa(dp3354
Vcategory
p3355
Vunlabeled
p3356
sg14
g3316
sVid
p3357
VT78
p3358
sa(dp3359
Vcategory
p3360
Vunlabeled
p3361
sg14
g3316
sVid
p3362
VT79
p3363
sa(dp3364
Vcategory
p3365
Vunlabeled
p3366
sg14
g3316
sVid
p3367
VT89
p3368
sa(dp3369
Vcategory
p3370
Vunlabeled
p3371
sg14
g3316
sVid
p3372
VT88
p3373
sa(dp3374
Vcategory
p3375
Vunlabeled
p3376
sg14
g3316
sVid
p3377
VT87
p3378
sa(dp3379
Vcategory
p3380
Vunlabeled
p3381
sg14
g3316
sVid
p3382
VT86
p3383
sa(dp3384
Vcategory
p3385
Vunlabeled
p3386
sg14
g3316
sVid
p3387
VT85
p3388
sa(dp3389
Vcategory
p3390
Vunlabeled
p3391
sg14
g3316
sVid
p3392
VT84
p3393
sa(dp3394
Vcategory
p3395
Vunlabeled
p3396
sg14
g3316
sVid
p3397
VT83
p3398
sa(dp3399
Vcategory
p3400
Vunlabeled
p3401
sg14
g3316
sVid
p3402
VT82
p3403
sa(dp3404
Vcategory
p3405
Vunlabeled
p3406
sg14
g3316
sVid
p3407
VT81
p3408
sa(dp3409
Vcategory
p3410
Vunlabeled
p3411
sg14
g3316
sVid
p3412
VT80
p3413
sa(dp3414
Vcategory
p3415
Vunlabeled
p3416
sg14
g3316
sVid
p3417
VT14
p3418
sa(dp3419
Vcategory
p3420
Vunlabeled
p3421
sg14
g3316
sVid
p3422
VT15
p3423
sa(dp3424
Vcategory
p3425
VQuestion
p3426
sg14
g3316
sVid
p3427
VT16
p3428
sa(dp3429
Vcategory
p3430
Vunlabeled
p3431
sg14
g3316
sVid
p3432
VT17
p3433
sa(dp3434
Vcategory
p3435
VQuestion
p3436
sg14
g3316
sVid
p3437
VT10
p3438
sa(dp3439
Vcategory
p3440
VQuestion
p3441
sg14
g3316
sVid
p3442
VT11
p3443
sa(dp3444
Vcategory
p3445
VQuestion
p3446
sg14
g3316
sVid
p3447
VT12
p3448
sa(dp3449
Vcategory
p3450
VQuestion
p3451
sg14
g3316
sVid
p3452
VT13
p3453
sa(dp3454
Vcategory
p3455
VQuestion
p3456
sg14
g3316
sVid
p3457
VT18
p3458
sa(dp3459
Vcategory
p3460
Vunlabeled
p3461
sg14
g3316
sVid
p3462
VT19
p3463
sa(dp3464
Vcategory
p3465
VQuestion
p3466
sg14
g3316
sVid
p3467
VT98
p3468
sa(dp3469
Vcategory
p3470
VQuestion
p3471
sg14
g3316
sVid
p3472
VT99
p3473
sa(dp3474
Vcategory
p3475
Vunlabeled
p3476
sg14
g3316
sVid
p3477
VT94
p3478
sa(dp3479
Vcategory
p3480
Vunlabeled
p3481
sg14
g3316
sVid
p3482
VT95
p3483
sa(dp3484
Vcategory
p3485
VQuestion
p3486
sg14
g3316
sVid
p3487
VT96
p3488
sa(dp3489
Vcategory
p3490
VQuestion
p3491
sg14
g3316
sVid
p3492
VT97
p3493
sa(dp3494
Vcategory
p3495
Vunlabeled
p3496
sg14
g3316
sVid
p3497
VT90
p3498
sa(dp3499
Vcategory
p3500
Vunlabeled
p3501
sg14
g3316
sVid
p3502
VT91
p3503
sa(dp3504
Vcategory
p3505
Vunlabeled
p3506
sg14
g3316
sVid
p3507
VT92
p3508
sa(dp3509
Vcategory
p3510
Vunlabeled
p3511
sg14
g3316
sVid
p3512
VT93
p3513
sa(dp3514
Vcategory
p3515
Vunlabeled
p3516
sg14
g3316
sVid
p3517
VT29
p3518
sa(dp3519
Vcategory
p3520
Vunlabeled
p3521
sg14
g3316
sVid
p3522
VT28
p3523
sa(dp3524
Vcategory
p3525
Vunlabeled
p3526
sg14
g3316
sVid
p3527
VT21
p3528
sa(dp3529
Vcategory
p3530
Vunlabeled
p3531
sg14
g3316
sVid
p3532
VT20
p3533
sa(dp3534
Vcategory
p3535
Vunlabeled
p3536
sg14
g3316
sVid
p3537
VT23
p3538
sa(dp3539
Vcategory
p3540
Vunlabeled
p3541
sg14
g3316
sVid
p3542
VT22
p3543
sa(dp3544
Vcategory
p3545
Vunlabeled
p3546
sg14
g3316
sVid
p3547
VT25
p3548
sa(dp3549
Vcategory
p3550
Vunlabeled
p3551
sg14
g3316
sVid
p3552
VT24
p3553
sa(dp3554
Vcategory
p3555
Vunlabeled
p3556
sg14
g3316
sVid
p3557
VT27
p3558
sa(dp3559
Vcategory
p3560
Vunlabeled
p3561
sg14
g3316
sVid
p3562
VT26
p3563
sa(dp3564
Vcategory
p3565
Vunlabeled
p3566
sg14
g3316
sVid
p3567
VT38
p3568
sa(dp3569
Vcategory
p3570
Vunlabeled
p3571
sg14
g3316
sVid
p3572
VT39
p3573
sa(dp3574
Vcategory
p3575
Vunlabeled
p3576
sg14
g3316
sVid
p3577
VT36
p3578
sa(dp3579
Vcategory
p3580
Vunlabeled
p3581
sg14
g3316
sVid
p3582
VT37
p3583
sa(dp3584
Vcategory
p3585
Vunlabeled
p3586
sg14
g3316
sVid
p3587
VT34
p3588
sa(dp3589
Vcategory
p3590
Vunlabeled
p3591
sg14
g3316
sVid
p3592
VT35
p3593
sa(dp3594
Vcategory
p3595
Vunlabeled
p3596
sg14
g3316
sVid
p3597
VT32
p3598
sa(dp3599
Vcategory
p3600
Vunlabeled
p3601
sg14
g3316
sVid
p3602
VT33
p3603
sa(dp3604
Vcategory
p3605
Vunlabeled
p3606
sg14
g3316
sVid
p3607
VT30
p3608
sa(dp3609
Vcategory
p3610
Vunlabeled
p3611
sg14
g3316
sVid
p3612
VT31
p3613
sa(dp3614
Vcategory
p3615
Vunlabeled
p3616
sg14
g3316
sVid
p3617
VT49
p3618
sa(dp3619
Vcategory
p3620
Vunlabeled
p3621
sg14
g3316
sVid
p3622
VT48
p3623
sa(dp3624
Vcategory
p3625
Vunlabeled
p3626
sg14
g3316
sVid
p3627
VT43
p3628
sa(dp3629
Vcategory
p3630
Vunlabeled
p3631
sg14
g3316
sVid
p3632
VT42
p3633
sa(dp3634
Vcategory
p3635
Vunlabeled
p3636
sg14
g3316
sVid
p3637
VT41
p3638
sa(dp3639
Vcategory
p3640
Vunlabeled
p3641
sg14
g3316
sVid
p3642
VT40
p3643
sa(dp3644
Vcategory
p3645
Vunlabeled
p3646
sg14
g3316
sVid
p3647
VT47
p3648
sa(dp3649
Vcategory
p3650
Vunlabeled
p3651
sg14
g3316
sVid
p3652
VT46
p3653
sa(dp3654
Vcategory
p3655
Vunlabeled
p3656
sg14
g3316
sVid
p3657
VT45
p3658
sa(dp3659
Vcategory
p3660
Vunlabeled
p3661
sg14
g3316
sVid
p3662
VT44
p3663
sa(dp3664
Vcategory
p3665
Vunlabeled
p3666
sg14
g3316
sVid
p3667
VT58
p3668
sa(dp3669
Vcategory
p3670
Vunlabeled
p3671
sg14
g3316
sVid
p3672
VT59
p3673
sa(dp3674
Vcategory
p3675
Vunlabeled
p3676
sg14
g3316
sVid
p3677
VT50
p3678
sa(dp3679
Vcategory
p3680
Vunlabeled
p3681
sg14
g3316
sVid
p3682
VT51
p3683
sa(dp3684
Vcategory
p3685
Vunlabeled
p3686
sg14
g3316
sVid
p3687
VT52
p3688
sa(dp3689
Vcategory
p3690
Vunlabeled
p3691
sg14
g3316
sVid
p3692
VT53
p3693
sa(dp3694
Vcategory
p3695
Vunlabeled
p3696
sg14
g3316
sVid
p3697
VT54
p3698
sa(dp3699
Vcategory
p3700
Vunlabeled
p3701
sg14
g3316
sVid
p3702
VT55
p3703
sa(dp3704
Vcategory
p3705
Vunlabeled
p3706
sg14
g3316
sVid
p3707
VT56
p3708
sa(dp3709
Vcategory
p3710
Vunlabeled
p3711
sg14
g3316
sVid
p3712
VT57
p3713
sa(dp3714
Vcategory
p3715
Vunlabeled
p3716
sg14
g3316
sVid
p3717
VT101
p3718
sa(dp3719
Vcategory
p3720
VQuestion
p3721
sg14
g3316
sVid
p3722
VT100
p3723
sa(dp3724
Vcategory
p3725
Vunlabeled
p3726
sg14
g3316
sVid
p3727
VT103
p3728
sa(dp3729
Vcategory
p3730
Vunlabeled
p3731
sg14
g3316
sVid
p3732
VT102
p3733
sa(dp3734
Vcategory
p3735
Vunlabeled
p3736
sg14
g3316
sVid
p3737
VT104
p3738
sa(dp3739
Vcategory
p3740
VQuestion
p3741
sg14
g3316
sVid
p3742
VT8
p3743
sa(dp3744
Vcategory
p3745
Vunlabeled
p3746
sg14
g3316
sVid
p3747
VT9
p3748
sa(dp3749
Vcategory
p3750
Vunlabeled
p3751
sg14
g3316
sVid
p3752
VT6
p3753
sa(dp3754
Vcategory
p3755
VHeader/Topic
p3756
sg14
g3316
sVid
p3757
VT7
p3758
sa(dp3759
Vcategory
p3760
Vunlabeled
p3761
sg14
g3316
sVid
p3762
VT4
p3763
sa(dp3764
Vcategory
p3765
Vunlabeled
p3766
sg14
g3316
sVid
p3767
VT5
p3768
sa(dp3769
Vcategory
p3770
Vunlabeled
p3771
sg14
g3316
sVid
p3772
VT2
p3773
sa(dp3774
Vcategory
p3775
Vunlabeled
p3776
sg14
g3316
sVid
p3777
VT3
p3778
sa(dp3779
Vcategory
p3780
Vunlabeled
p3781
sg14
g3316
sVid
p3782
VT1
p3783
sa(dp3784
Vcategory
p3785
Vunlabeled
p3786
sg14
g3316
sVid
p3787
VT69
p3788
sa(dp3789
Vcategory
p3790
Vunlabeled
p3791
sg14
g3316
sVid
p3792
VT68
p3793
sa(dp3794
Vcategory
p3795
Vunlabeled
p3796
sg14
g3316
sVid
p3797
VT65
p3798
sa(dp3799
Vcategory
p3800
Vunlabeled
p3801
sg14
g3316
sVid
p3802
VT64
p3803
sa(dp3804
Vcategory
p3805
Vunlabeled
p3806
sg14
g3316
sVid
p3807
VT67
p3808
sa(dp3809
Vcategory
p3810
Vunlabeled
p3811
sg14
g3316
sVid
p3812
VT66
p3813
sa(dp3814
Vcategory
p3815
Vunlabeled
p3816
sg14
g3316
sVid
p3817
VT61
p3818
sa(dp3819
Vcategory
p3820
Vunlabeled
p3821
sg14
g3316
sVid
p3822
VT60
p3823
sa(dp3824
Vcategory
p3825
Vunlabeled
p3826
sg14
g3316
sVid
p3827
VT63
p3828
sa(dp3829
Vcategory
p3830
Vunlabeled
p3831
sg14
g3316
sVid
p3832
VT62
p3833
sassa(dp3834
V3PJ71Z61R43RWNPLQ8BTMJ3ULJM195
p3835
(dp3836
VDaily_Science_Grade_6_(Daily_Practice_Books)_Evan_Moor_155.jpeg
p3837
(lp3838
(dp3839
Vcategory
p3840
Vunlabeled
p3841
sg14
VA03922113RU44GENR8ATX
p3842
sVid
p3843
VT72
p3844
sa(dp3845
Vcategory
p3846
Vunlabeled
p3847
sg14
g3842
sVid
p3848
VT73
p3849
sa(dp3850
Vcategory
p3851
Vunlabeled
p3852
sg14
g3842
sVid
p3853
VT70
p3854
sa(dp3855
Vcategory
p3856
Vunlabeled
p3857
sg14
g3842
sVid
p3858
VT71
p3859
sa(dp3860
Vcategory
p3861
Vunlabeled
p3862
sg14
g3842
sVid
p3863
VT76
p3864
sa(dp3865
Vcategory
p3866
Vunlabeled
p3867
sg14
g3842
sVid
p3868
VT77
p3869
sa(dp3870
Vcategory
p3871
Vunlabeled
p3872
sg14
g3842
sVid
p3873
VT74
p3874
sa(dp3875
Vcategory
p3876
Vunlabeled
p3877
sg14
g3842
sVid
p3878
VT75
p3879
sa(dp3880
Vcategory
p3881
Vunlabeled
p3882
sg14
g3842
sVid
p3883
VT78
p3884
sa(dp3885
Vcategory
p3886
Vunlabeled
p3887
sg14
g3842
sVid
p3888
VT79
p3889
sa(dp3890
Vcategory
p3891
Vunlabeled
p3892
sg14
g3842
sVid
p3893
VT89
p3894
sa(dp3895
Vcategory
p3896
Vunlabeled
p3897
sg14
g3842
sVid
p3898
VT88
p3899
sa(dp3900
Vcategory
p3901
Vunlabeled
p3902
sg14
g3842
sVid
p3903
VT87
p3904
sa(dp3905
Vcategory
p3906
Vunlabeled
p3907
sg14
g3842
sVid
p3908
VT86
p3909
sa(dp3910
Vcategory
p3911
Vunlabeled
p3912
sg14
g3842
sVid
p3913
VT85
p3914
sa(dp3915
Vcategory
p3916
Vunlabeled
p3917
sg14
g3842
sVid
p3918
VT84
p3919
sa(dp3920
Vcategory
p3921
Vunlabeled
p3922
sg14
g3842
sVid
p3923
VT83
p3924
sa(dp3925
Vcategory
p3926
Vunlabeled
p3927
sg14
g3842
sVid
p3928
VT82
p3929
sa(dp3930
Vcategory
p3931
Vunlabeled
p3932
sg14
g3842
sVid
p3933
VT81
p3934
sa(dp3935
Vcategory
p3936
Vunlabeled
p3937
sg14
g3842
sVid
p3938
VT80
p3939
sa(dp3940
Vcategory
p3941
Vunlabeled
p3942
sg14
g3842
sVid
p3943
VT14
p3944
sa(dp3945
Vcategory
p3946
Vunlabeled
p3947
sg14
g3842
sVid
p3948
VT15
p3949
sa(dp3950
Vcategory
p3951
Vunlabeled
p3952
sg14
g3842
sVid
p3953
VT16
p3954
sa(dp3955
Vcategory
p3956
Vunlabeled
p3957
sg14
g3842
sVid
p3958
VT17
p3959
sa(dp3960
Vcategory
p3961
Vunlabeled
p3962
sg14
g3842
sVid
p3963
VT10
p3964
sa(dp3965
Vcategory
p3966
Vunlabeled
p3967
sg14
g3842
sVid
p3968
VT11
p3969
sa(dp3970
Vcategory
p3971
Vunlabeled
p3972
sg14
g3842
sVid
p3973
VT12
p3974
sa(dp3975
Vcategory
p3976
Vunlabeled
p3977
sg14
g3842
sVid
p3978
VT13
p3979
sa(dp3980
Vcategory
p3981
Vunlabeled
p3982
sg14
g3842
sVid
p3983
VT18
p3984
sa(dp3985
Vcategory
p3986
Vunlabeled
p3987
sg14
g3842
sVid
p3988
VT19
p3989
sa(dp3990
Vcategory
p3991
VQuestion
p3992
sg14
g3842
sVid
p3993
VT98
p3994
sa(dp3995
Vcategory
p3996
VQuestion
p3997
sg14
g3842
sVid
p3998
VT99
p3999
sa(dp4000
Vcategory
p4001
Vunlabeled
p4002
sg14
g3842
sVid
p4003
VT94
p4004
sa(dp4005
Vcategory
p4006
Vunlabeled
p4007
sg14
g3842
sVid
p4008
VT95
p4009
sa(dp4010
Vcategory
p4011
VQuestion
p4012
sg14
g3842
sVid
p4013
VT96
p4014
sa(dp4015
Vcategory
p4016
VQuestion
p4017
sg14
g3842
sVid
p4018
VT97
p4019
sa(dp4020
Vcategory
p4021
Vunlabeled
p4022
sg14
g3842
sVid
p4023
VT90
p4024
sa(dp4025
Vcategory
p4026
Vunlabeled
p4027
sg14
g3842
sVid
p4028
VT91
p4029
sa(dp4030
Vcategory
p4031
Vunlabeled
p4032
sg14
g3842
sVid
p4033
VT92
p4034
sa(dp4035
Vcategory
p4036
Vunlabeled
p4037
sg14
g3842
sVid
p4038
VT93
p4039
sa(dp4040
Vcategory
p4041
Vunlabeled
p4042
sg14
g3842
sVid
p4043
VT29
p4044
sa(dp4045
Vcategory
p4046
Vunlabeled
p4047
sg14
g3842
sVid
p4048
VT28
p4049
sa(dp4050
Vcategory
p4051
Vunlabeled
p4052
sg14
g3842
sVid
p4053
VT21
p4054
sa(dp4055
Vcategory
p4056
Vunlabeled
p4057
sg14
g3842
sVid
p4058
VT20
p4059
sa(dp4060
Vcategory
p4061
Vunlabeled
p4062
sg14
g3842
sVid
p4063
VT23
p4064
sa(dp4065
Vcategory
p4066
Vunlabeled
p4067
sg14
g3842
sVid
p4068
VT22
p4069
sa(dp4070
Vcategory
p4071
Vunlabeled
p4072
sg14
g3842
sVid
p4073
VT25
p4074
sa(dp4075
Vcategory
p4076
Vunlabeled
p4077
sg14
g3842
sVid
p4078
VT24
p4079
sa(dp4080
Vcategory
p4081
Vunlabeled
p4082
sg14
g3842
sVid
p4083
VT27
p4084
sa(dp4085
Vcategory
p4086
Vunlabeled
p4087
sg14
g3842
sVid
p4088
VT26
p4089
sa(dp4090
Vcategory
p4091
Vunlabeled
p4092
sg14
g3842
sVid
p4093
VT38
p4094
sa(dp4095
Vcategory
p4096
Vunlabeled
p4097
sg14
g3842
sVid
p4098
VT39
p4099
sa(dp4100
Vcategory
p4101
Vunlabeled
p4102
sg14
g3842
sVid
p4103
VT36
p4104
sa(dp4105
Vcategory
p4106
Vunlabeled
p4107
sg14
g3842
sVid
p4108
VT37
p4109
sa(dp4110
Vcategory
p4111
Vunlabeled
p4112
sg14
g3842
sVid
p4113
VT34
p4114
sa(dp4115
Vcategory
p4116
Vunlabeled
p4117
sg14
g3842
sVid
p4118
VT35
p4119
sa(dp4120
Vcategory
p4121
Vunlabeled
p4122
sg14
g3842
sVid
p4123
VT32
p4124
sa(dp4125
Vcategory
p4126
Vunlabeled
p4127
sg14
g3842
sVid
p4128
VT33
p4129
sa(dp4130
Vcategory
p4131
Vunlabeled
p4132
sg14
g3842
sVid
p4133
VT30
p4134
sa(dp4135
Vcategory
p4136
Vunlabeled
p4137
sg14
g3842
sVid
p4138
VT31
p4139
sa(dp4140
Vcategory
p4141
Vunlabeled
p4142
sg14
g3842
sVid
p4143
VT49
p4144
sa(dp4145
Vcategory
p4146
Vunlabeled
p4147
sg14
g3842
sVid
p4148
VT48
p4149
sa(dp4150
Vcategory
p4151
Vunlabeled
p4152
sg14
g3842
sVid
p4153
VT43
p4154
sa(dp4155
Vcategory
p4156
Vunlabeled
p4157
sg14
g3842
sVid
p4158
VT42
p4159
sa(dp4160
Vcategory
p4161
Vunlabeled
p4162
sg14
g3842
sVid
p4163
VT41
p4164
sa(dp4165
Vcategory
p4166
Vunlabeled
p4167
sg14
g3842
sVid
p4168
VT40
p4169
sa(dp4170
Vcategory
p4171
Vunlabeled
p4172
sg14
g3842
sVid
p4173
VT47
p4174
sa(dp4175
Vcategory
p4176
Vunlabeled
p4177
sg14
g3842
sVid
p4178
VT46
p4179
sa(dp4180
Vcategory
p4181
Vunlabeled
p4182
sg14
g3842
sVid
p4183
VT45
p4184
sa(dp4185
Vcategory
p4186
Vunlabeled
p4187
sg14
g3842
sVid
p4188
VT44
p4189
sa(dp4190
Vcategory
p4191
Vunlabeled
p4192
sg14
g3842
sVid
p4193
VT58
p4194
sa(dp4195
Vcategory
p4196
Vunlabeled
p4197
sg14
g3842
sVid
p4198
VT59
p4199
sa(dp4200
Vcategory
p4201
Vunlabeled
p4202
sg14
g3842
sVid
p4203
VT50
p4204
sa(dp4205
Vcategory
p4206
Vunlabeled
p4207
sg14
g3842
sVid
p4208
VT51
p4209
sa(dp4210
Vcategory
p4211
Vunlabeled
p4212
sg14
g3842
sVid
p4213
VT52
p4214
sa(dp4215
Vcategory
p4216
Vunlabeled
p4217
sg14
g3842
sVid
p4218
VT53
p4219
sa(dp4220
Vcategory
p4221
Vunlabeled
p4222
sg14
g3842
sVid
p4223
VT54
p4224
sa(dp4225
Vcategory
p4226
Vunlabeled
p4227
sg14
g3842
sVid
p4228
VT55
p4229
sa(dp4230
Vcategory
p4231
Vunlabeled
p4232
sg14
g3842
sVid
p4233
VT56
p4234
sa(dp4235
Vcategory
p4236
Vunlabeled
p4237
sg14
g3842
sVid
p4238
VT57
p4239
sa(dp4240
Vcategory
p4241
Vunlabeled
p4242
sg14
g3842
sVid
p4243
VT101
p4244
sa(dp4245
Vcategory
p4246
VQuestion
p4247
sg14
g3842
sVid
p4248
VT100
p4249
sa(dp4250
Vcategory
p4251
Vunlabeled
p4252
sg14
g3842
sVid
p4253
VT103
p4254
sa(dp4255
Vcategory
p4256
Vunlabeled
p4257
sg14
g3842
sVid
p4258
VT102
p4259
sa(dp4260
Vcategory
p4261
Vunlabeled
p4262
sg14
g3842
sVid
p4263
VT104
p4264
sa(dp4265
Vcategory
p4266
Vunlabeled
p4267
sg14
g3842
sVid
p4268
VT8
p4269
sa(dp4270
Vcategory
p4271
Vunlabeled
p4272
sg14
g3842
sVid
p4273
VT9
p4274
sa(dp4275
Vcategory
p4276
Vunlabeled
p4277
sg14
g3842
sVid
p4278
VT6
p4279
sa(dp4280
Vcategory
p4281
VHeader/Topic
p4282
sg14
g3842
sVid
p4283
VT7
p4284
sa(dp4285
Vcategory
p4286
Vunlabeled
p4287
sg14
g3842
sVid
p4288
VT4
p4289
sa(dp4290
Vcategory
p4291
Vunlabeled
p4292
sg14
g3842
sVid
p4293
VT5
p4294
sa(dp4295
Vcategory
p4296
Vunlabeled
p4297
sg14
g3842
sVid
p4298
VT2
p4299
sa(dp4300
Vcategory
p4301
Vunlabeled
p4302
sg14
g3842
sVid
p4303
VT3
p4304
sa(dp4305
Vcategory
p4306
Vunlabeled
p4307
sg14
g3842
sVid
p4308
VT1
p4309
sa(dp4310
Vcategory
p4311
Vunlabeled
p4312
sg14
g3842
sVid
p4313
VT69
p4314
sa(dp4315
Vcategory
p4316
Vunlabeled
p4317
sg14
g3842
sVid
p4318
VT68
p4319
sa(dp4320
Vcategory
p4321
Vunlabeled
p4322
sg14
g3842
sVid
p4323
VT65
p4324
sa(dp4325
Vcategory
p4326
Vunlabeled
p4327
sg14
g3842
sVid
p4328
VT64
p4329
sa(dp4330
Vcategory
p4331
Vunlabeled
p4332
sg14
g3842
sVid
p4333
VT67
p4334
sa(dp4335
Vcategory
p4336
Vunlabeled
p4337
sg14
g3842
sVid
p4338
VT66
p4339
sa(dp4340
Vcategory
p4341
Vunlabeled
p4342
sg14
g3842
sVid
p4343
VT61
p4344
sa(dp4345
Vcategory
p4346
Vunlabeled
p4347
sg14
g3842
sVid
p4348
VT60
p4349
sa(dp4350
Vcategory
p4351
Vunlabeled
p4352
sg14
g3842
sVid
p4353
VT63
p4354
sa(dp4355
Vcategory
p4356
Vunlabeled
p4357
sg14
g3842
sVid
p4358
VT62
p4359
sassasV362E9TQF2HREOJAXMJX8IFBJBVPIGU
p4360
(lp4361
(dp4362
V33UKMF9319LBPMA8QX0KJPN167MTT7
p4363
(dp4364
VDaily_Science_Grade_5_Evan_Moor_66.jpeg
p4365
(lp4366
(dp4367
Vcategory
p4368
VDiscussion
p4369
sg14
VA3I9WD8P9RBFHR
p4370
sVid
p4371
VT14
p4372
sa(dp4373
Vcategory
p4374
VDiscussion
p4375
sg14
g4370
sVid
p4376
VT15
p4377
sa(dp4378
Vcategory
p4379
VDiscussion
p4380
sg14
g4370
sVid
p4381
VT16
p4382
sa(dp4383
Vcategory
p4384
VDiscussion
p4385
sg14
g4370
sVid
p4386
VT17
p4387
sa(dp4388
Vcategory
p4389
VDiscussion
p4390
sg14
g4370
sVid
p4391
VT10
p4392
sa(dp4393
Vcategory
p4394
VDiscussion
p4395
sg14
g4370
sVid
p4396
VT11
p4397
sa(dp4398
Vcategory
p4399
VDiscussion
p4400
sg14
g4370
sVid
p4401
VT12
p4402
sa(dp4403
Vcategory
p4404
VDiscussion
p4405
sg14
g4370
sVid
p4406
VT13
p4407
sa(dp4408
Vcategory
p4409
VDiscussion
p4410
sg14
g4370
sVid
p4411
VT18
p4412
sa(dp4413
Vcategory
p4414
VQuestion
p4415
sg14
g4370
sVid
p4416
VT19
p4417
sa(dp4418
Vcategory
p4419
Vunlabeled
p4420
sg14
g4370
sVid
p4421
VT8
p4422
sa(dp4423
Vcategory
p4424
Vunlabeled
p4425
sg14
g4370
sVid
p4426
VT9
p4427
sa(dp4428
Vcategory
p4429
Vunlabeled
p4430
sg14
g4370
sVid
p4431
VT6
p4432
sa(dp4433
Vcategory
p4434
VDiscussion
p4435
sg14
g4370
sVid
p4436
VT7
p4437
sa(dp4438
Vcategory
p4439
VHeader/Topic
p4440
sg14
g4370
sVid
p4441
VT4
p4442
sa(dp4443
Vcategory
p4444
Vunlabeled
p4445
sg14
g4370
sVid
p4446
VT5
p4447
sa(dp4448
Vcategory
p4449
Vunlabeled
p4450
sg14
g4370
sVid
p4451
VT2
p4452
sa(dp4453
Vcategory
p4454
Vunlabeled
p4455
sg14
g4370
sVid
p4456
VT3
p4457
sa(dp4458
Vcategory
p4459
Vunlabeled
p4460
sg14
g4370
sVid
p4461
VT1
p4462
sa(dp4463
Vcategory
p4464
VQuestion
p4465
sg14
g4370
sVid
p4466
VT21
p4467
sa(dp4468
Vcategory
p4469
VQuestion
p4470
sg14
g4370
sVid
p4471
VT20
p4472
sa(dp4473
Vcategory
p4474
Vunlabeled
p4475
sg14
g4370
sVid
p4476
VT23
p4477
sa(dp4478
Vcategory
p4479
VQuestion
p4480
sg14
g4370
sVid
p4481
VT22
p4482
sa(dp4483
Vcategory
p4484
Vunlabeled
p4485
sg14
g4370
sVid
p4486
VT25
p4487
sa(dp4488
Vcategory
p4489
Vunlabeled
p4490
sg14
g4370
sVid
p4491
VT24
p4492
sa(dp4493
Vcategory
p4494
Vunlabeled
p4495
sg14
g4370
sVid
p4496
VT26
p4497
sassa(dp4498
V35BLDD71I6YMOQNW1KPH6VC3OOOVZ5
p4499
(dp4500
VDaily_Science_Grade_5_Evan_Moor_66.jpeg
p4501
(lp4502
(dp4503
Vcategory
p4504
VDiscussion
p4505
sg14
VA20WSGI3N7S4PQ
p4506
sVid
p4507
VT14
p4508
sa(dp4509
Vcategory
p4510
VDiscussion
p4511
sg14
g4506
sVid
p4512
VT15
p4513
sa(dp4514
Vcategory
p4515
VDiscussion
p4516
sg14
g4506
sVid
p4517
VT16
p4518
sa(dp4519
Vcategory
p4520
VDiscussion
p4521
sg14
g4506
sVid
p4522
VT17
p4523
sa(dp4524
Vcategory
p4525
VDiscussion
p4526
sg14
g4506
sVid
p4527
VT10
p4528
sa(dp4529
Vcategory
p4530
VDiscussion
p4531
sg14
g4506
sVid
p4532
VT11
p4533
sa(dp4534
Vcategory
p4535
VDiscussion
p4536
sg14
g4506
sVid
p4537
VT12
p4538
sa(dp4539
Vcategory
p4540
VDiscussion
p4541
sg14
g4506
sVid
p4542
VT13
p4543
sa(dp4544
Vcategory
p4545
VDiscussion
p4546
sg14
g4506
sVid
p4547
VT18
p4548
sa(dp4549
Vcategory
p4550
VQuestion
p4551
sg14
g4506
sVid
p4552
VT19
p4553
sa(dp4554
Vcategory
p4555
Vunlabeled
p4556
sg14
g4506
sVid
p4557
VT8
p4558
sa(dp4559
Vcategory
p4560
VDiscussion
p4561
sg14
g4506
sVid
p4562
VT9
p4563
sa(dp4564
Vcategory
p4565
Vunlabeled
p4566
sg14
g4506
sVid
p4567
VT6
p4568
sa(dp4569
Vcategory
p4570
VDiscussion
p4571
sg14
g4506
sVid
p4572
VT7
p4573
sa(dp4574
Vcategory
p4575
VHeader/Topic
p4576
sg14
g4506
sVid
p4577
VT4
p4578
sa(dp4579
Vcategory
p4580
VHeader/Topic
p4581
sg14
g4506
sVid
p4582
VT5
p4583
sa(dp4584
Vcategory
p4585
Vunlabeled
p4586
sg14
g4506
sVid
p4587
VT2
p4588
sa(dp4589
Vcategory
p4590
Vunlabeled
p4591
sg14
g4506
sVid
p4592
VT3
p4593
sa(dp4594
Vcategory
p4595
Vunlabeled
p4596
sg14
g4506
sVid
p4597
VT1
p4598
sa(dp4599
Vcategory
p4600
VQuestion
p4601
sg14
g4506
sVid
p4602
VT21
p4603
sa(dp4604
Vcategory
p4605
VQuestion
p4606
sg14
g4506
sVid
p4607
VT20
p4608
sa(dp4609
Vcategory
p4610
Vunlabeled
p4611
sg14
g4506
sVid
p4612
VT23
p4613
sa(dp4614
Vcategory
p4615
VQuestion
p4616
sg14
g4506
sVid
p4617
VT22
p4618
sa(dp4619
Vcategory
p4620
Vunlabeled
p4621
sg14
g4506
sVid
p4622
VT25
p4623
sa(dp4624
Vcategory
p4625
Vunlabeled
p4626
sg14
g4506
sVid
p4627
VT24
p4628
sa(dp4629
Vcategory
p4630
Vunlabeled
p4631
sg14
g4506
sVid
p4632
VT26
p4633
sassa(dp4634
V3EWIJTFFVO88KUVK20NF0SLV7OQ0E5
p4635
(dp4636
VDaily_Science_Grade_5_Evan_Moor_66.jpeg
p4637
(lp4638
(dp4639
Vcategory
p4640
Vunlabeled
p4641
sg14
VA03922113RU44GENR8ATX
p4642
sVid
p4643
VT14
p4644
sa(dp4645
Vcategory
p4646
Vunlabeled
p4647
sg14
g4642
sVid
p4648
VT15
p4649
sa(dp4650
Vcategory
p4651
Vunlabeled
p4652
sg14
g4642
sVid
p4653
VT16
p4654
sa(dp4655
Vcategory
p4656
Vunlabeled
p4657
sg14
g4642
sVid
p4658
VT17
p4659
sa(dp4660
Vcategory
p4661
Vunlabeled
p4662
sg14
g4642
sVid
p4663
VT10
p4664
sa(dp4665
Vcategory
p4666
Vunlabeled
p4667
sg14
g4642
sVid
p4668
VT11
p4669
sa(dp4670
Vcategory
p4671
Vunlabeled
p4672
sg14
g4642
sVid
p4673
VT12
p4674
sa(dp4675
Vcategory
p4676
Vunlabeled
p4677
sg14
g4642
sVid
p4678
VT13
p4679
sa(dp4680
Vcategory
p4681
Vunlabeled
p4682
sg14
g4642
sVid
p4683
VT18
p4684
sa(dp4685
Vcategory
p4686
VQuestion
p4687
sg14
g4642
sVid
p4688
VT19
p4689
sa(dp4690
Vcategory
p4691
Vunlabeled
p4692
sg14
g4642
sVid
p4693
VT8
p4694
sa(dp4695
Vcategory
p4696
Vunlabeled
p4697
sg14
g4642
sVid
p4698
VT9
p4699
sa(dp4700
Vcategory
p4701
Vunlabeled
p4702
sg14
g4642
sVid
p4703
VT6
p4704
sa(dp4705
Vcategory
p4706
Vunlabeled
p4707
sg14
g4642
sVid
p4708
VT7
p4709
sa(dp4710
Vcategory
p4711
VHeader/Topic
p4712
sg14
g4642
sVid
p4713
VT4
p4714
sa(dp4715
Vcategory
p4716
Vunlabeled
p4717
sg14
g4642
sVid
p4718
VT5
p4719
sa(dp4720
Vcategory
p4721
Vunlabeled
p4722
sg14
g4642
sVid
p4723
VT2
p4724
sa(dp4725
Vcategory
p4726
Vunlabeled
p4727
sg14
g4642
sVid
p4728
VT3
p4729
sa(dp4730
Vcategory
p4731
Vunlabeled
p4732
sg14
g4642
sVid
p4733
VT1
p4734
sa(dp4735
Vcategory
p4736
VQuestion
p4737
sg14
g4642
sVid
p4738
VT21
p4739
sa(dp4740
Vcategory
p4741
VQuestion
p4742
sg14
g4642
sVid
p4743
VT20
p4744
sa(dp4745
Vcategory
p4746
VQuestion
p4747
sg14
g4642
sVid
p4748
VT23
p4749
sa(dp4750
Vcategory
p4751
VQuestion
p4752
sg14
g4642
sVid
p4753
VT22
p4754
sa(dp4755
Vcategory
p4756
Vunlabeled
p4757
sg14
g4642
sVid
p4758
VT25
p4759
sa(dp4760
Vcategory
p4761
Vunlabeled
p4762
sg14
g4642
sVid
p4763
VT24
p4764
sa(dp4765
Vcategory
p4766
Vunlabeled
p4767
sg14
g4642
sVid
p4768
VT26
p4769
sassasV37G6BXQPLQMTL32PTWCTREHTPPRQEO
p4770
(lp4771
(dp4772
V37C0GNLMHF4Y6Z3Z8USC3BD1JDCD6M
p4773
(dp4774
VDaily_Science_Grade_3_(Daily_Practice_Books)_Evan_Moore_153.jpeg
p4775
(lp4776
(dp4777
Vcategory
p4778
VQuestion
p4779
sg14
VA1GG77WVYNWZ8R
p4780
sVid
p4781
VT14
p4782
sa(dp4783
Vcategory
p4784
VQuestion
p4785
sg14
g4780
sVid
p4786
VT15
p4787
sa(dp4788
Vcategory
p4789
VQuestion
p4790
sg14
g4780
sVid
p4791
VT16
p4792
sa(dp4793
Vcategory
p4794
VQuestion
p4795
sg14
g4780
sVid
p4796
VT17
p4797
sa(dp4798
Vcategory
p4799
VQuestion
p4800
sg14
g4780
sVid
p4801
VT10
p4802
sa(dp4803
Vcategory
p4804
VQuestion
p4805
sg14
g4780
sVid
p4806
VT11
p4807
sa(dp4808
Vcategory
p4809
VQuestion
p4810
sg14
g4780
sVid
p4811
VT12
p4812
sa(dp4813
Vcategory
p4814
VQuestion
p4815
sg14
g4780
sVid
p4816
VT13
p4817
sa(dp4818
Vcategory
p4819
VQuestion
p4820
sg14
g4780
sVid
p4821
VT18
p4822
sa(dp4823
Vcategory
p4824
VQuestion
p4825
sg14
g4780
sVid
p4826
VT19
p4827
sa(dp4828
Vcategory
p4829
Vunlabeled
p4830
sg14
g4780
sVid
p4831
VT8
p4832
sa(dp4833
Vcategory
p4834
VQuestion
p4835
sg14
g4780
sVid
p4836
VT9
p4837
sa(dp4838
Vcategory
p4839
Vunlabeled
p4840
sg14
g4780
sVid
p4841
VT6
p4842
sa(dp4843
Vcategory
p4844
VQuestion
p4845
sg14
g4780
sVid
p4846
VT7
p4847
sa(dp4848
Vcategory
p4849
VHeader/Topic
p4850
sg14
g4780
sVid
p4851
VT4
p4852
sa(dp4853
Vcategory
p4854
Vunlabeled
p4855
sg14
g4780
sVid
p4856
VT5
p4857
sa(dp4858
Vcategory
p4859
Vunlabeled
p4860
sg14
g4780
sVid
p4861
VT2
p4862
sa(dp4863
Vcategory
p4864
Vunlabeled
p4865
sg14
g4780
sVid
p4866
VT3
p4867
sa(dp4868
Vcategory
p4869
Vunlabeled
p4870
sg14
g4780
sVid
p4871
VT1
p4872
sa(dp4873
Vcategory
p4874
Vunlabeled
p4875
sg14
g4780
sVid
p4876
VT29
p4877
sa(dp4878
Vcategory
p4879
Vunlabeled
p4880
sg14
g4780
sVid
p4881
VT28
p4882
sa(dp4883
Vcategory
p4884
VQuestion
p4885
sg14
g4780
sVid
p4886
VT21
p4887
sa(dp4888
Vcategory
p4889
VQuestion
p4890
sg14
g4780
sVid
p4891
VT20
p4892
sa(dp4893
Vcategory
p4894
VQuestion
p4895
sg14
g4780
sVid
p4896
VT23
p4897
sa(dp4898
Vcategory
p4899
VQuestion
p4900
sg14
g4780
sVid
p4901
VT22
p4902
sa(dp4903
Vcategory
p4904
VQuestion
p4905
sg14
g4780
sVid
p4906
VT25
p4907
sa(dp4908
Vcategory
p4909
VQuestion
p4910
sg14
g4780
sVid
p4911
VT24
p4912
sa(dp4913
Vcategory
p4914
VQuestion
p4915
sg14
g4780
sVid
p4916
VT27
p4917
sa(dp4918
Vcategory
p4919
VQuestion
p4920
sg14
g4780
sVid
p4921
VT26
p4922
sassa(dp4923
V3PJUZCGDJ6H97N96PTK81TQ2YNX89W
p4924
(dp4925
VDaily_Science_Grade_3_(Daily_Practice_Books)_Evan_Moore_153.jpeg
p4926
(lp4927
(dp4928
Vcategory
p4929
VQuestion
p4930
sg14
VA36PFUM96J0ES6
p4931
sVid
p4932
VT14
p4933
sa(dp4934
Vcategory
p4935
VQuestion
p4936
sg14
g4931
sVid
p4937
VT15
p4938
sa(dp4939
Vcategory
p4940
VQuestion
p4941
sg14
g4931
sVid
p4942
VT16
p4943
sa(dp4944
Vcategory
p4945
VQuestion
p4946
sg14
g4931
sVid
p4947
VT17
p4948
sa(dp4949
Vcategory
p4950
VQuestion
p4951
sg14
g4931
sVid
p4952
VT10
p4953
sa(dp4954
Vcategory
p4955
VQuestion
p4956
sg14
g4931
sVid
p4957
VT11
p4958
sa(dp4959
Vcategory
p4960
VQuestion
p4961
sg14
g4931
sVid
p4962
VT12
p4963
sa(dp4964
Vcategory
p4965
VQuestion
p4966
sg14
g4931
sVid
p4967
VT13
p4968
sa(dp4969
Vcategory
p4970
VQuestion
p4971
sg14
g4931
sVid
p4972
VT18
p4973
sa(dp4974
Vcategory
p4975
VQuestion
p4976
sg14
g4931
sVid
p4977
VT19
p4978
sa(dp4979
Vcategory
p4980
Vunlabeled
p4981
sg14
g4931
sVid
p4982
VT8
p4983
sa(dp4984
Vcategory
p4985
VQuestion
p4986
sg14
g4931
sVid
p4987
VT9
p4988
sa(dp4989
Vcategory
p4990
Vunlabeled
p4991
sg14
g4931
sVid
p4992
VT6
p4993
sa(dp4994
Vcategory
p4995
VQuestion
p4996
sg14
g4931
sVid
p4997
VT7
p4998
sa(dp4999
Vcategory
p5000
VHeader/Topic
p5001
sg14
g4931
sVid
p5002
VT4
p5003
sa(dp5004
Vcategory
p5005
Vunlabeled
p5006
sg14
g4931
sVid
p5007
VT5
p5008
sa(dp5009
Vcategory
p5010
Vunlabeled
p5011
sg14
g4931
sVid
p5012
VT2
p5013
sa(dp5014
Vcategory
p5015
Vunlabeled
p5016
sg14
g4931
sVid
p5017
VT3
p5018
sa(dp5019
Vcategory
p5020
Vunlabeled
p5021
sg14
g4931
sVid
p5022
VT1
p5023
sa(dp5024
Vcategory
p5025
Vunlabeled
p5026
sg14
g4931
sVid
p5027
VT29
p5028
sa(dp5029
Vcategory
p5030
Vunlabeled
p5031
sg14
g4931
sVid
p5032
VT28
p5033
sa(dp5034
Vcategory
p5035
VQuestion
p5036
sg14
g4931
sVid
p5037
VT21
p5038
sa(dp5039
Vcategory
p5040
VQuestion
p5041
sg14
g4931
sVid
p5042
VT20
p5043
sa(dp5044
Vcategory
p5045
VQuestion
p5046
sg14
g4931
sVid
p5047
VT23
p5048
sa(dp5049
Vcategory
p5050
VQuestion
p5051
sg14
g4931
sVid
p5052
VT22
p5053
sa(dp5054
Vcategory
p5055
VQuestion
p5056
sg14
g4931
sVid
p5057
VT25
p5058
sa(dp5059
Vcategory
p5060
VQuestion
p5061
sg14
g4931
sVid
p5062
VT24
p5063
sa(dp5064
Vcategory
p5065
VQuestion
p5066
sg14
g4931
sVid
p5067
VT27
p5068
sa(dp5069
Vcategory
p5070
VQuestion
p5071
sg14
g4931
sVid
p5072
VT26
p5073
sassa(dp5074
V37UQDCYH6XW34GHQIPXYFBJ4EVU7V8
p5075
(dp5076
VDaily_Science_Grade_3_(Daily_Practice_Books)_Evan_Moore_153.jpeg
p5077
(lp5078
(dp5079
Vcategory
p5080
VQuestion
p5081
sg14
VA03922113RU44GENR8ATX
p5082
sVid
p5083
VT14
p5084
sa(dp5085
Vcategory
p5086
VQuestion
p5087
sg14
g5082
sVid
p5088
VT15
p5089
sa(dp5090
Vcategory
p5091
VQuestion
p5092
sg14
g5082
sVid
p5093
VT16
p5094
sa(dp5095
Vcategory
p5096
VQuestion
p5097
sg14
g5082
sVid
p5098
VT17
p5099
sa(dp5100
Vcategory
p5101
VQuestion
p5102
sg14
g5082
sVid
p5103
VT10
p5104
sa(dp5105
Vcategory
p5106
VQuestion
p5107
sg14
g5082
sVid
p5108
VT11
p5109
sa(dp5110
Vcategory
p5111
VQuestion
p5112
sg14
g5082
sVid
p5113
VT12
p5114
sa(dp5115
Vcategory
p5116
VQuestion
p5117
sg14
g5082
sVid
p5118
VT13
p5119
sa(dp5120
Vcategory
p5121
VQuestion
p5122
sg14
g5082
sVid
p5123
VT18
p5124
sa(dp5125
Vcategory
p5126
VQuestion
p5127
sg14
g5082
sVid
p5128
VT19
p5129
sa(dp5130
Vcategory
p5131
Vunlabeled
p5132
sg14
g5082
sVid
p5133
VT8
p5134
sa(dp5135
Vcategory
p5136
VQuestion
p5137
sg14
g5082
sVid
p5138
VT9
p5139
sa(dp5140
Vcategory
p5141
Vunlabeled
p5142
sg14
g5082
sVid
p5143
VT6
p5144
sa(dp5145
Vcategory
p5146
VQuestion
p5147
sg14
g5082
sVid
p5148
VT7
p5149
sa(dp5150
Vcategory
p5151
VHeader/Topic
p5152
sg14
g5082
sVid
p5153
VT4
p5154
sa(dp5155
Vcategory
p5156
Vunlabeled
p5157
sg14
g5082
sVid
p5158
VT5
p5159
sa(dp5160
Vcategory
p5161
Vunlabeled
p5162
sg14
g5082
sVid
p5163
VT2
p5164
sa(dp5165
Vcategory
p5166
Vunlabeled
p5167
sg14
g5082
sVid
p5168
VT3
p5169
sa(dp5170
Vcategory
p5171
Vunlabeled
p5172
sg14
g5082
sVid
p5173
VT1
p5174
sa(dp5175
Vcategory
p5176
Vunlabeled
p5177
sg14
g5082
sVid
p5178
VT29
p5179
sa(dp5180
Vcategory
p5181
Vunlabeled
p5182
sg14
g5082
sVid
p5183
VT28
p5184
sa(dp5185
Vcategory
p5186
VQuestion
p5187
sg14
g5082
sVid
p5188
VT21
p5189
sa(dp5190
Vcategory
p5191
VQuestion
p5192
sg14
g5082
sVid
p5193
VT20
p5194
sa(dp5195
Vcategory
p5196
VQuestion
p5197
sg14
g5082
sVid
p5198
VT23
p5199
sa(dp5200
Vcategory
p5201
Vunlabeled
p5202
sg14
g5082
sVid
p5203
VT22
p5204
sa(dp5205
Vcategory
p5206
VQuestion
p5207
sg14
g5082
sVid
p5208
VT25
p5209
sa(dp5210
Vcategory
p5211
VQuestion
p5212
sg14
g5082
sVid
p5213
VT24
p5214
sa(dp5215
Vcategory
p5216
VQuestion
p5217
sg14
g5082
sVid
p5218
VT27
p5219
sa(dp5220
Vcategory
p5221
VQuestion
p5222
sg14
g5082
sVid
p5223
VT26
p5224
sassas.