(lp0
ccopy_reg
_reconstructor
p1
(cboto.mturk.connection
HIT
p2
c__builtin__
object
p3
Ntp4
Rp5
(dp6
S'HIT'
p7
S''
p8
sS'HITId'
p9
V3ZRKL6Z1E843IXDTRVRMMHH6KTQSGV
p10
sbag1
(g2
g3
Ntp11
Rp12
(dp13
g7
g8
sg9
V3RKHNXPHGWXOZW1G6R71ZARNC7TKU7
p14
sbag1
(g2
g3
Ntp15
Rp16
(dp17
g7
g8
sg9
V3JVP4ZJHDPTHDFZC8H85XNO34E0I0R
p18
sbag1
(g2
g3
Ntp19
Rp20
(dp21
g7
g8
sg9
V324N5FAHSXCOCBQGBHH6VWT6QE2KVW
p22
sbag1
(g2
g3
Ntp23
Rp24
(dp25
g7
g8
sg9
V3GITHABACYMGNQDHKKPBLJDZNBE2NB
p26
sbag1
(g2
g3
Ntp27
Rp28
(dp29
g7
g8
sg9
V3GVPRXWRPHVVVQZWTGTEC2YQCS67IG
p30
sbag1
(g2
g3
Ntp31
Rp32
(dp33
g7
g8
sg9
V3O2Y2UIUCQVZGE4QB2C2DAQK2KEFK3
p34
sbag1
(g2
g3
Ntp35
Rp36
(dp37
g7
g8
sg9
V3TL87MO8CMQA0KM8W2O3SA3ZRKJFL6
p38
sbag1
(g2
g3
Ntp39
Rp40
(dp41
g7
g8
sg9
V3YD0MU1NC22GP8GYHS11V4A7ZK1A7F
p42
sbag1
(g2
g3
Ntp43
Rp44
(dp45
g7
g8
sg9
V3G9UA71JVVVRQ1J2BYEEO3DQP7V7JS
p46
sbag1
(g2
g3
Ntp47
Rp48
(dp49
g7
g8
sg9
V34O39PNDK69VQ155WKZ3VWLDIEFBR9
p50
sbag1
(g2
g3
Ntp51
Rp52
(dp53
g7
g8
sg9
V3B0MCRZMBRVCIIQ02XDFLLQNY06PPG
p54
sbag1
(g2
g3
Ntp55
Rp56
(dp57
g7
g8
sg9
V3PR3LXCWSF0WZ4CK7ZRZT8CBVVXX9H
p58
sbag1
(g2
g3
Ntp59
Rp60
(dp61
g7
g8
sg9
V3CVDZS288H1U624TWEPISNIORP9FM8
p62
sbag1
(g2
g3
Ntp63
Rp64
(dp65
g7
g8
sg9
V3SSN80MU8CPGG0VBBWIOJHQR6PAKXZ
p66
sbag1
(g2
g3
Ntp67
Rp68
(dp69
g7
g8
sg9
V3LAZVA75NISY5BDTLZPO08D4DLJ2OQ
p70
sbag1
(g2
g3
Ntp71
Rp72
(dp73
g7
g8
sg9
V3TX9T2ZCB92WGVP71SPC4D0X1WGZW6
p74
sbag1
(g2
g3
Ntp75
Rp76
(dp77
g7
g8
sg9
V3IH9TRB0FB0HK4KU40C5BS7D966I1U
p78
sbag1
(g2
g3
Ntp79
Rp80
(dp81
g7
g8
sg9
V38G0E1M85M62F7VS5VL81J24S5ZUV2
p82
sbag1
(g2
g3
Ntp83
Rp84
(dp85
g7
g8
sg9
V3UEDKCTP9VRM1LPKTJEQPID34WV7KR
p86
sbag1
(g2
g3
Ntp87
Rp88
(dp89
g7
g8
sg9
V3PCPFX4U40RLRH2LO7WZ9W2T1Q6QF6
p90
sbag1
(g2
g3
Ntp91
Rp92
(dp93
g7
g8
sg9
V3M0556243SL0OKPT8F4I527OWFJFN8
p94
sbag1
(g2
g3
Ntp95
Rp96
(dp97
g7
g8
sg9
V3PZDSVZ3J5IQQ4S4OY8ZEYAX7P9N4R
p98
sbag1
(g2
g3
Ntp99
Rp100
(dp101
g7
g8
sg9
V3ZXNP4Z39RMXLR72EJQR4IQITW07LU
p102
sbag1
(g2
g3
Ntp103
Rp104
(dp105
g7
g8
sg9
V3IVKZBIBJ0AHIT84B1947HT7ZT3SHU
p106
sbag1
(g2
g3
Ntp107
Rp108
(dp109
g7
g8
sg9
V3RIHDBQ1NEZEKYVZR4DIV8U174LHM7
p110
sbag1
(g2
g3
Ntp111
Rp112
(dp113
g7
g8
sg9
V3ZFRE2BDQ9FB5VUXBXLY6WE4AYMZXZ
p114
sbag1
(g2
g3
Ntp115
Rp116
(dp117
g7
g8
sg9
V3HEM8MA6H9DXIURF2AS4LQGX3WSPQ7
p118
sbag1
(g2
g3
Ntp119
Rp120
(dp121
g7
g8
sg9
V3WRAAIUSBJ0A4NMPZ55ZP3NV1DFXAW
p122
sbag1
(g2
g3
Ntp123
Rp124
(dp125
g7
g8
sg9
V3AA88CN98P45G5LLGS4Q2VX08V4KY5
p126
sbag1
(g2
g3
Ntp127
Rp128
(dp129
g7
g8
sg9
V3HXCEECSQMU050K7GT70PALDC4GZY5
p130
sbag1
(g2
g3
Ntp131
Rp132
(dp133
g7
g8
sg9
V3ZICQFRS31J0AQUCCF9J3HUFIYKZZW
p134
sbag1
(g2
g3
Ntp135
Rp136
(dp137
g7
g8
sg9
V3I7SHAD35MXHR9PNEVR64V57T1Q7MW
p138
sbag1
(g2
g3
Ntp139
Rp140
(dp141
g7
g8
sg9
V36FFXPMST9P2K1GB4KSVNCJ6240HOM
p142
sbag1
(g2
g3
Ntp143
Rp144
(dp145
g7
g8
sg9
V341YLJU21I0O9P2QN4CJGBHI1CKI2B
p146
sbag1
(g2
g3
Ntp147
Rp148
(dp149
g7
g8
sg9
V34KYK9TV2R97RG5IB9Z8L6Q94GYBSX
p150
sbag1
(g2
g3
Ntp151
Rp152
(dp153
g7
g8
sg9
V3RSBJ6YZECRI65P59U4VKR7TMPOFON
p154
sbag1
(g2
g3
Ntp155
Rp156
(dp157
g7
g8
sg9
V30F94FBDNRL86GIX094YVBMV6ZCBTM
p158
sbag1
(g2
g3
Ntp159
Rp160
(dp161
g7
g8
sg9
V3M67TQBQQHPK3R4RWPZL901DUAPA9R
p162
sbag1
(g2
g3
Ntp163
Rp164
(dp165
g7
g8
sg9
V3T6EIBTM9LPY8AEWOVDL5VCX0S7AA6
p166
sbag1
(g2
g3
Ntp167
Rp168
(dp169
g7
g8
sg9
V3LVTFB9DE5JR5HYGZR2HRH25256QG5
p170
sbag1
(g2
g3
Ntp171
Rp172
(dp173
g7
g8
sg9
V3DGDV62G7OAGQBPU0Z23P8IUNQF2P7
p174
sbag1
(g2
g3
Ntp175
Rp176
(dp177
g7
g8
sg9
V3OQQD2WO8I7DU7Y9R4QOZLMA7QKI3M
p178
sbag1
(g2
g3
Ntp179
Rp180
(dp181
g7
g8
sg9
V3MWOYZD5WVPUUX2M7IN8SWG2OGANO2
p182
sbag1
(g2
g3
Ntp183
Rp184
(dp185
g7
g8
sg9
V3WYZV0QBFJEFNXRH5J5VKE71JV0XBR
p186
sbag1
(g2
g3
Ntp187
Rp188
(dp189
g7
g8
sg9
V3HRWUH63QU38MNW423R9JQGB7L4N5W
p190
sbag1
(g2
g3
Ntp191
Rp192
(dp193
g7
g8
sg9
V3MVY4USGB6OHEOJOHJRP7TUMZ6ISIN
p194
sbag1
(g2
g3
Ntp195
Rp196
(dp197
g7
g8
sg9
V3JUDR1D0D6S1QNQ90CHSPD84SM12QY
p198
sbag1
(g2
g3
Ntp199
Rp200
(dp201
g7
g8
sg9
V3E22YV8GG17CFXENMI0NHWLSYL6NPJ
p202
sbag1
(g2
g3
Ntp203
Rp204
(dp205
g7
g8
sg9
V367O8HRHKG9N6HK9WUPLDSK3UOI4SL
p206
sbag1
(g2
g3
Ntp207
Rp208
(dp209
g7
g8
sg9
V3SMIWMMK616FUWVXV5Q4NLLIZE1UWC
p210
sbag1
(g2
g3
Ntp211
Rp212
(dp213
g7
g8
sg9
V3XU9MCX6VOD12O59DR6SU3I9O832RZ
p214
sbag1
(g2
g3
Ntp215
Rp216
(dp217
g7
g8
sg9
V3KG2UQJ0MJPXF9F2MVFCH1B23HSNQA
p218
sbag1
(g2
g3
Ntp219
Rp220
(dp221
g7
g8
sg9
V3VQTAXTYN3MN6TXM0EU8078XPDJBUD
p222
sbag1
(g2
g3
Ntp223
Rp224
(dp225
g7
g8
sg9
V3WGZLY9VCHNINTOTB7K9Z5E8V74D87
p226
sbag1
(g2
g3
Ntp227
Rp228
(dp229
g7
g8
sg9
V3INZSNUD80RI1Y73GZQNZ19JFDMD9W
p230
sbag1
(g2
g3
Ntp231
Rp232
(dp233
g7
g8
sg9
V3XQ4XW3OD9DD335MSG6XKDN5AAM2SN
p234
sbag1
(g2
g3
Ntp235
Rp236
(dp237
g7
g8
sg9
V3TD33TP5DL33RKJOU9DH06W3IASAB1
p238
sbag1
(g2
g3
Ntp239
Rp240
(dp241
g7
g8
sg9
V3SV8KD29L4T5LVVQCE69G262EP8KZW
p242
sbag1
(g2
g3
Ntp243
Rp244
(dp245
g7
g8
sg9
V39AYGO6AFFL45RWI7M1EBWUB3GFN6C
p246
sbag1
(g2
g3
Ntp247
Rp248
(dp249
g7
g8
sg9
V3M93N4X8HKOD9Z3UZ1CPJU9MCL7SJZ
p250
sbag1
(g2
g3
Ntp251
Rp252
(dp253
g7
g8
sg9
V30EMX9PEVKK8KJ9CHMC1K99ZRA7SKY
p254
sbag1
(g2
g3
Ntp255
Rp256
(dp257
g7
g8
sg9
V3Y40HMYLL1JUJW0N5AMQP4ZP8G7UX5
p258
sbag1
(g2
g3
Ntp259
Rp260
(dp261
g7
g8
sg9
V33NKDW9FFXJYX2JNJJ1QVYDJ1G0XCY
p262
sbag1
(g2
g3
Ntp263
Rp264
(dp265
g7
g8
sg9
V3JYPJ2TAYI90R516OUHA9RCJWUKFP4
p266
sbag1
(g2
g3
Ntp267
Rp268
(dp269
g7
g8
sg9
V322ZSN9Z5GLOLHXOLUUBNXGPW7W4TA
p270
sbag1
(g2
g3
Ntp271
Rp272
(dp273
g7
g8
sg9
V34ZTTGSNJXP55DTRJXKZCHE6H5JQH4
p274
sbag1
(g2
g3
Ntp275
Rp276
(dp277
g7
g8
sg9
V35XW21VSVGFJ4PRU2MO2Z9MEGACSL1
p278
sbag1
(g2
g3
Ntp279
Rp280
(dp281
g7
g8
sg9
V37Y5RYYI0P6E4J8JG5RQA3H1NJNSXO
p282
sbag1
(g2
g3
Ntp283
Rp284
(dp285
g7
g8
sg9
V3DIIW4IV8PWYC3HDRIV79QEGLQGI47
p286
sbag1
(g2
g3
Ntp287
Rp288
(dp289
g7
g8
sg9
V3SCKNODZ0XHN9RANQW66HAU7YRZN7B
p290
sbag1
(g2
g3
Ntp291
Rp292
(dp293
g7
g8
sg9
V3VEI3XUCZRYXUV6FFPH4QGQ2ZIUPR8
p294
sbag1
(g2
g3
Ntp295
Rp296
(dp297
g7
g8
sg9
V3VADEH0UHCY9VA6SUEH9GQVYLKDPSW
p298
sbag1
(g2
g3
Ntp299
Rp300
(dp301
g7
g8
sg9
V39KMGHJ4RZB66KIW4RJZRJO7IKJ00E
p302
sbag1
(g2
g3
Ntp303
Rp304
(dp305
g7
g8
sg9
V3XDJY5RK5SM3LUCDLZKLST2RFL34U1
p306
sbag1
(g2
g3
Ntp307
Rp308
(dp309
g7
g8
sg9
V32XN26MTXZKJ3G7ITK5IP3GVLIUL08
p310
sbag1
(g2
g3
Ntp311
Rp312
(dp313
g7
g8
sg9
V31J7RYECZLRJA5S0P39I38Z5QA0L1B
p314
sbag1
(g2
g3
Ntp315
Rp316
(dp317
g7
g8
sg9
V38XPGNCKHT13Y91DQPUQOF4ATSC4VQ
p318
sbag1
(g2
g3
Ntp319
Rp320
(dp321
g7
g8
sg9
V3GMLHYZ0LEYJJ1QXA68S8I6YAM1UYB
p322
sbag1
(g2
g3
Ntp323
Rp324
(dp325
g7
g8
sg9
V3R5OYNIC2CAAAAJ7JEMZQVRKN3RPTL
p326
sbag1
(g2
g3
Ntp327
Rp328
(dp329
g7
g8
sg9
V371Q3BEXDHA39E8YHNFB7OXCVJLSZL
p330
sbag1
(g2
g3
Ntp331
Rp332
(dp333
g7
g8
sg9
V3QGHA0EA0J10YXMRVE99IVTUATUBWC
p334
sbag1
(g2
g3
Ntp335
Rp336
(dp337
g7
g8
sg9
V3S37Y8CWI81GDY1IGZZMAHNO01E4W0
p338
sbag1
(g2
g3
Ntp339
Rp340
(dp341
g7
g8
sg9
V3S829FDFT2282UP1JFW1F4V1MGCXDY
p342
sbag1
(g2
g3
Ntp343
Rp344
(dp345
g7
g8
sg9
V3DQYSJDTYLCDU031FA7LLMDMMSDXER
p346
sbag1
(g2
g3
Ntp347
Rp348
(dp349
g7
g8
sg9
V3OWZNK3RYLQTIGXQHL1XZE5TV772U3
p350
sbag1
(g2
g3
Ntp351
Rp352
(dp353
g7
g8
sg9
V386659BNTLI6D93E0ANZ5O7HNCP01H
p354
sbag1
(g2
g3
Ntp355
Rp356
(dp357
g7
g8
sg9
V3YGYP13641AXRAU2ZA4CMRL7Z3UNRB
p358
sbag1
(g2
g3
Ntp359
Rp360
(dp361
g7
g8
sg9
V3WYZV0QBFJEFNXRH5J5VKE71JV0BX5
p362
sbag1
(g2
g3
Ntp363
Rp364
(dp365
g7
g8
sg9
V35A1YQPVFEHG8MLD5NEHEIKULMBI5C
p366
sbag1
(g2
g3
Ntp367
Rp368
(dp369
g7
g8
sg9
V3YCT0L9OMMA9SPUFEZ4HC1Q3L5DNSZ
p370
sbag1
(g2
g3
Ntp371
Rp372
(dp373
g7
g8
sg9
V302OLP89DZ8M1PBU899CBQ2L0VSAC8
p374
sbag1
(g2
g3
Ntp375
Rp376
(dp377
g7
g8
sg9
V38Z7YZ2SB335184BPF2KCTFLHIYQIX
p378
sbag1
(g2
g3
Ntp379
Rp380
(dp381
g7
g8
sg9
V3UQVX1UPFSID2ULAJENDA7HMFI302Y
p382
sbag1
(g2
g3
Ntp383
Rp384
(dp385
g7
g8
sg9
V3YLPJ8OXX8EV2Y68Q4V8C01V93K4XT
p386
sbag1
(g2
g3
Ntp387
Rp388
(dp389
g7
g8
sg9
V3O71U79SRBQ3A79F2YPHZM13GF2SM3
p390
sbag1
(g2
g3
Ntp391
Rp392
(dp393
g7
g8
sg9
V3N3WJQXELSRQZQAW879W8R9AIGEL2S
p394
sbag1
(g2
g3
Ntp395
Rp396
(dp397
g7
g8
sg9
V3ZG552ORAM5TVVMQMBB2V07C9EG2VS
p398
sbag1
(g2
g3
Ntp399
Rp400
(dp401
g7
g8
sg9
V3JMNNNO3B156AKMVCLGYH2QQGNI2W2
p402
sbag1
(g2
g3
Ntp403
Rp404
(dp405
g7
g8
sg9
V3Y7LTZE0YTNJOR026SABMPF0GG5UZ2
p406
sbag1
(g2
g3
Ntp407
Rp408
(dp409
g7
g8
sg9
V38F60IALAGI7MTFN2T79BUQCFVGT0J
p410
sbag1
(g2
g3
Ntp411
Rp412
(dp413
g7
g8
sg9
V3P458N04Q1ILZKRLMQCKJL4XPPO2XV
p414
sbag1
(g2
g3
Ntp415
Rp416
(dp417
g7
g8
sg9
V3EGKVCRQFWT4N2HRAFRX3SEAL1UBYB
p418
sbag1
(g2
g3
Ntp419
Rp420
(dp421
g7
g8
sg9
V3SCKNODZ0XHN9RANQW66HAU7YR07NW
p422
sbag1
(g2
g3
Ntp423
Rp424
(dp425
g7
g8
sg9
V3PN6H8C9R4RW6HH8854NVWK3LV4DAB
p426
sbag1
(g2
g3
Ntp427
Rp428
(dp429
g7
g8
sg9
V3VMHWJRYHVH50E3XALRR34YMYTSXF9
p430
sbag1
(g2
g3
Ntp431
Rp432
(dp433
g7
g8
sg9
V3W1K7D6QSBI4SSRW61TGHZNCRVYBZ2
p434
sbag1
(g2
g3
Ntp435
Rp436
(dp437
g7
g8
sg9
V3G3AJKPCXLTK23WIV0HAVE84B9E4YZ
p438
sbag1
(g2
g3
Ntp439
Rp440
(dp441
g7
g8
sg9
V3UYRNV2KIT0R95F601YCVAQ29B5N8Y
p442
sbag1
(g2
g3
Ntp443
Rp444
(dp445
g7
g8
sg9
V38DCH97KHH31WJOH7XNKOUULUXNQJ9
p446
sbag1
(g2
g3
Ntp447
Rp448
(dp449
g7
g8
sg9
V3XT3KXP24ZZCRQLRA6OM6OYUHHMI6S
p450
sbag1
(g2
g3
Ntp451
Rp452
(dp453
g7
g8
sg9
V3PN6H8C9R4RW6HH8854NVWK3LV4AD8
p454
sbag1
(g2
g3
Ntp455
Rp456
(dp457
g7
g8
sg9
V371QPA24C2P7TI05YCB9PZ9MKNMT1M
p458
sbag1
(g2
g3
Ntp459
Rp460
(dp461
g7
g8
sg9
V337F8MIIMZEN580XNS613MEKZWZ04U
p462
sbag1
(g2
g3
Ntp463
Rp464
(dp465
g7
g8
sg9
V3GVPRXWRPHVVVQZWTGTEC2YQCS6I7R
p466
sbag1
(g2
g3
Ntp467
Rp468
(dp469
g7
g8
sg9
V3MG8450X2OBPANYWJJC9VRDM6HYPUC
p470
sbag1
(g2
g3
Ntp471
Rp472
(dp473
g7
g8
sg9
V3TLFH2L6Y9PEI3I1HGBNUIJRCT0T23
p474
sbag1
(g2
g3
Ntp475
Rp476
(dp477
g7
g8
sg9
V389A2A304OJQ0CDCG7CJMKQ8R9FC0I
p478
sbag1
(g2
g3
Ntp479
Rp480
(dp481
g7
g8
sg9
V3X4Q1O9UBHN5RCAZRB6JWZUCO157OB
p482
sbag1
(g2
g3
Ntp483
Rp484
(dp485
g7
g8
sg9
V3PA41K45VN5NCCM06BJYLZZ2Y617PS
p486
sbag1
(g2
g3
Ntp487
Rp488
(dp489
g7
g8
sg9
V3R5LWXWHR09BEEZSL5X9LPYYZ8SXG8
p490
sbag1
(g2
g3
Ntp491
Rp492
(dp493
g7
g8
sg9
V3A9LA2FRWSFPEAU35BFR6PAZE85XH7
p494
sbag1
(g2
g3
Ntp495
Rp496
(dp497
g7
g8
sg9
V3A520CCNWN11YNV840F71E2OL75AE1
p498
sbag1
(g2
g3
Ntp499
Rp500
(dp501
g7
g8
sg9
V3X0EMNLXEPQPN2NWO9MERDF5KO7PV1
p502
sbag1
(g2
g3
Ntp503
Rp504
(dp505
g7
g8
sg9
V3YCT0L9OMMA9SPUFEZ4HC1Q3L5CSN3
p506
sbag1
(g2
g3
Ntp507
Rp508
(dp509
g7
g8
sg9
V3U74KRR67MMA7P7U3Z97M6MPNORNTO
p510
sbag1
(g2
g3
Ntp511
Rp512
(dp513
g7
g8
sg9
V3S1L4CQSFX6T41V4ZBZDJWNOX8KAFJ
p514
sbag1
(g2
g3
Ntp515
Rp516
(dp517
g7
g8
sg9
V3E9ZFLPWOYTPA55NBTXC61BEELKXI0
p518
sbag1
(g2
g3
Ntp519
Rp520
(dp521
g7
g8
sg9
V3P7QK0GJ3TMA4FR0N805G6K8XPM2ZS
p522
sbag1
(g2
g3
Ntp523
Rp524
(dp525
g7
g8
sg9
V3VZYA8PITOZ51R4X1XPB8EKYZSU504
p526
sbag1
(g2
g3
Ntp527
Rp528
(dp529
g7
g8
sg9
V3EFNPKWBMSP2NCHTNE1ITHMELW330C
p530
sbag1
(g2
g3
Ntp531
Rp532
(dp533
g7
g8
sg9
V3ULIZ0H1VA658GPFXGTBMJ384K0517
p534
sbag1
(g2
g3
Ntp535
Rp536
(dp537
g7
g8
sg9
V3EAWOID6MTYMZLJC7O7OCCEXCGVV00
p538
sbag1
(g2
g3
Ntp539
Rp540
(dp541
g7
g8
sg9
V3VO4XFFP15N8CONF6OYNL4PC32N7QJ
p542
sbag1
(g2
g3
Ntp543
Rp544
(dp545
g7
g8
sg9
V37SOB9Z0SSYFK86FC7N1R1E2OUEL33
p546
sbag1
(g2
g3
Ntp547
Rp548
(dp549
g7
g8
sg9
V3VZYA8PITOZ51R4X1XPB8EKYZSU05Z
p550
sbag1
(g2
g3
Ntp551
Rp552
(dp553
g7
g8
sg9
V3NI0WFPPI9H1KV4B6GZG0KYYVN506F
p554
sbag1
(g2
g3
Ntp555
Rp556
(dp557
g7
g8
sg9
V37VUR2VJ6AQQ71YUCQGJ0P9IW1LC1L
p558
sbag1
(g2
g3
Ntp559
Rp560
(dp561
g7
g8
sg9
V39O0SQZVJN88OP2FJ3NNQUZHZOP7RK
p562
sbag1
(g2
g3
Ntp563
Rp564
(dp565
g7
g8
sg9
V3H6W48L9F4Q22RN1EJRADFYJRX9PWB
p566
sbag1
(g2
g3
Ntp567
Rp568
(dp569
g7
g8
sg9
V3MIVREZQVHZW73UZPINWP9UY9MNQK8
p570
sbag1
(g2
g3
Ntp571
Rp572
(dp573
g7
g8
sg9
V3DA79LNS59W33LEKLGPSDSOJI70T3E
p574
sbag1
(g2
g3
Ntp575
Rp576
(dp577
g7
g8
sg9
V3PIOQ99R7YNP72MJ34ZHR28R62YNUF
p578
sbag1
(g2
g3
Ntp579
Rp580
(dp581
g7
g8
sg9
V3X0EMNLXEPQPN2NWO9MERDF5KO8VP8
p582
sbag1
(g2
g3
Ntp583
Rp584
(dp585
g7
g8
sg9
V33EEIIWHK78ANEOBOM13RI5FPKUVQZ
p586
sbag1
(g2
g3
Ntp587
Rp588
(dp589
g7
g8
sg9
V39KV3A5D188KP42SYSNSG44DLQ87S8
p590
sbag1
(g2
g3
Ntp591
Rp592
(dp593
g7
g8
sg9
V3OKP4QVBP2YZI1RZAV5V1HN0YNKAGI
p594
sbag1
(g2
g3
Ntp595
Rp596
(dp597
g7
g8
sg9
V3DWGDA5POF5M6A4U37BOQHX7H81V13
p598
sbag1
(g2
g3
Ntp599
Rp600
(dp601
g7
g8
sg9
V35F6NGNVM8KL44F7NSSIQ90ZN9M7TX
p602
sbag1
(g2
g3
Ntp603
Rp604
(dp605
g7
g8
sg9
V36KM3FWE3RDKOVIGPQ486YYUQYP07E
p606
sbag1
(g2
g3
Ntp607
Rp608
(dp609
g7
g8
sg9
V30UZJB2POHD1IJ3UKK7UACI524E53Z
p610
sbag1
(g2
g3
Ntp611
Rp612
(dp613
g7
g8
sg9
V3NOEP8XAU43HRRSROONWFYCQ0ZFPX4
p614
sbag1
(g2
g3
Ntp615
Rp616
(dp617
g7
g8
sg9
V334ZEL5JX6GRAAURFE4URQQ8BFHSOI
p618
sbag1
(g2
g3
Ntp619
Rp620
(dp621
g7
g8
sg9
V3ZLW647WALW9JMK7215WC5FTIUN32W
p622
sbag1
(g2
g3
Ntp623
Rp624
(dp625
g7
g8
sg9
V386T3MLZLNWOO9NZZVWEKYUP1IV081
p626
sbag1
(g2
g3
Ntp627
Rp628
(dp629
g7
g8
sg9
V30QQTY5GMKL04HUWNXISV5M16NT7UO
p630
sbag1
(g2
g3
Ntp631
Rp632
(dp633
g7
g8
sg9
V3WKGUBL7SZN024PJCLSK16682UAL4O
p634
sbag1
(g2
g3
Ntp635
Rp636
(dp637
g7
g8
sg9
V3PMR2DOWOO2M0FMYKYCDKHABG4A54K
p638
sbag1
(g2
g3
Ntp639
Rp640
(dp641
g7
g8
sg9
V37OPIVELUU4DIXMAU1NDMHZ1DNXAHH
p642
sbag1
(g2
g3
Ntp643
Rp644
(dp645
g7
g8
sg9
V3JAOYN9IHL3Y44GQ61J1VFKLO8N337
p646
sbag1
(g2
g3
Ntp647
Rp648
(dp649
g7
g8
sg9
V3BO3NEOQM0IDESXU0J5YMT0GD0CIAI
p650
sbag1
(g2
g3
Ntp651
Rp652
(dp653
g7
g8
sg9
V3R15W654VDU7R9CHAIZX497DYMSQLB
p654
sbag1
(g2
g3
Ntp655
Rp656
(dp657
g7
g8
sg9
V3OCZWXS7ZO8IYNTJQQBU6YCM2Q5L5T
p658
sbag1
(g2
g3
Ntp659
Rp660
(dp661
g7
g8
sg9
V356ZPKYPUHI6RWI1TK9YYCJZ259PYA
p662
sbag1
(g2
g3
Ntp663
Rp664
(dp665
g7
g8
sg9
V3VADEH0UHCY9VA6SUEH9GQVYLKDSPZ
p666
sbag1
(g2
g3
Ntp667
Rp668
(dp669
g7
g8
sg9
V3ABAOCJ4R85RXRU2AU0C4MM2YRIQMD
p670
sbag1
(g2
g3
Ntp671
Rp672
(dp673
g7
g8
sg9
V322ZSN9Z5GLOLHXOLUUBNXGPW7WT4Z
p674
sbag1
(g2
g3
Ntp675
Rp676
(dp677
g7
g8
sg9
V3TFJJUELSHQXWMGQVUGX58JNO7ZC22
p678
sbag1
(g2
g3
Ntp679
Rp680
(dp681
g7
g8
sg9
V3D4BBDG7ZHXMH4C9ZUU2OIOFULZC3D
p682
sbag1
(g2
g3
Ntp683
Rp684
(dp685
g7
g8
sg9
V3EN4YVUOUCTL5GPTTBICI2QER09XJC
p686
sbag1
(g2
g3
Ntp687
Rp688
(dp689
g7
g8
sg9
V382GHPVPHSSJM0ZU6FOK5KCR28J34S
p690
sbag1
(g2
g3
Ntp691
Rp692
(dp693
g7
g8
sg9
V3UDTAB6HH60O2E694N2SKUP0LOD09Q
p694
sbag1
(g2
g3
Ntp695
Rp696
(dp697
g7
g8
sg9
V32W3UF2EZOM7Z0VDZ8ZLYNGL8LVC4Y
p698
sbag1
(g2
g3
Ntp699
Rp700
(dp701
g7
g8
sg9
V3NRZ1LDP7W76WMS6P6BHCJS18ZDPZ1
p702
sbag1
(g2
g3
Ntp703
Rp704
(dp705
g7
g8
sg9
V3KG2UQJ0MJPXF9F2MVFCH1B23HSQND
p706
sbag1
(g2
g3
Ntp707
Rp708
(dp709
g7
g8
sg9
V3HEA4ZVWVDN4WYQYY3VNP9GPG0555P
p710
sbag1
(g2
g3
Ntp711
Rp712
(dp713
g7
g8
sg9
V39XCQ6V3KY50F2QC3M5SHFUPCVG565
p714
sbag1
(g2
g3
Ntp715
Rp716
(dp717
g7
g8
sg9
V3HA5ODM5KATM0U3OGQQ8MIKG78FVSO
p718
sbag1
(g2
g3
Ntp719
Rp720
(dp721
g7
g8
sg9
V31KPKEKW4AE7Q7L627GOB0KQ9OG0B0
p722
sbag1
(g2
g3
Ntp723
Rp724
(dp725
g7
g8
sg9
V3D5G8J4N5A5NFUG35QVYWNG29RTVTD
p726
sbag1
(g2
g3
Ntp727
Rp728
(dp729
g7
g8
sg9
V3BO3NEOQM0IDESXU0J5YMT0GD0CAIA
p730
sbag1
(g2
g3
Ntp731
Rp732
(dp733
g7
g8
sg9
V3J5XXLQDHMCIGDI9QBP7EAC4FSFV3V
p734
sbag1
(g2
g3
Ntp735
Rp736
(dp737
g7
g8
sg9
V3BAWBGQGYL00HWJWSNSXRROKKU27VD
p738
sbag1
(g2
g3
Ntp739
Rp740
(dp741
g7
g8
sg9
V3B286OTISEI993H0I1QYYUFGQF1AJM
p742
sbag1
(g2
g3
Ntp743
Rp744
(dp745
g7
g8
sg9
V3YO4AH2FPDLUUDNVLPDE6PFPVOGQ01
p746
sbag1
(g2
g3
Ntp747
Rp748
(dp749
g7
g8
sg9
V3SR6AEG6W5UEEFKDA71TP3H8GE0YHF
p750
sbag1
(g2
g3
Ntp751
Rp752
(dp753
g7
g8
sg9
V31ODACBENUGUVM77URWYGVL8QGZSQQ
p754
sbag1
(g2
g3
Ntp755
Rp756
(dp757
g7
g8
sg9
V30UZJB2POHD1IJ3UKK7UACI524E35X
p758
sbag1
(g2
g3
Ntp759
Rp760
(dp761
g7
g8
sg9
V3SSN80MU8CPGG0VBBWIOJHQR6P9XKB
p762
sbag1
(g2
g3
Ntp763
Rp764
(dp765
g7
g8
sg9
V3ZXNP4Z39RMXLR72EJQR4IQITW0L78
p766
sbag1
(g2
g3
Ntp767
Rp768
(dp769
g7
g8
sg9
V3UUIU9GZC566H01OZZDLSPM3W3RT54
p770
sbag1
(g2
g3
Ntp771
Rp772
(dp773
g7
g8
sg9
V38G0E1M85M62F7VS5VL81J24S50VU4
p774
sbag1
(g2
g3
Ntp775
Rp776
(dp777
g7
g8
sg9
V3WRKFXQBOB8EAAVXGPJEPFINGRFYI8
p778
sbag1
(g2
g3
Ntp779
Rp780
(dp781
g7
g8
sg9
V3W5PY7V3UP8A5LF3Y74E1GXNT64YJK
p782
sbag1
(g2
g3
Ntp783
Rp784
(dp785
g7
g8
sg9
V3TZDZ3Y0JS7O93RR066SYZ8AQGK19V
p786
sbag1
(g2
g3
Ntp787
Rp788
(dp789
g7
g8
sg9
V3AA88CN98P45G5LLGS4Q2VX08V4YKJ
p790
sbag1
(g2
g3
Ntp791
Rp792
(dp793
g7
g8
sg9
V3FTID4TN8LZG0B331SGRHVAFXV9YLM
p794
sbag1
(g2
g3
Ntp795
Rp796
(dp797
g7
g8
sg9
V3XBXDSS888KR06DTWWUPYH36VPEXLE
p798
sbag1
(g2
g3
Ntp799
Rp800
(dp801
g7
g8
sg9
V3FO95NVK5C1U7NM776LYLLVDM21SRR
p802
sbag1
(g2
g3
Ntp803
Rp804
(dp805
g7
g8
sg9
V3K8CQCU3KE22Z6BOY4EI9QTORI9NWE
p806
sbag1
(g2
g3
Ntp807
Rp808
(dp809
g7
g8
sg9
V3Y3N5A7N4GA06TLO14H6H8P4X0ZYMO
p810
sbag1
(g2
g3
Ntp811
Rp812
(dp813
g7
g8
sg9
V3P888QFVX3VFXUFENAFPWQB7TRXQOS
p814
sbag1
(g2
g3
Ntp815
Rp816
(dp817
g7
g8
sg9
V31JUPBOORN51L5CLOOIXIIMD4G6L8V
p818
sbag1
(g2
g3
Ntp819
Rp820
(dp821
g7
g8
sg9
V3QQUBC64ZEFHO6GE89A4B97V0KFNX7
p822
sbag1
(g2
g3
Ntp823
Rp824
(dp825
g7
g8
sg9
V3HEM8MA6H9DXIURF2AS4LQGX3WTQP9
p826
sbag1
(g2
g3
Ntp827
Rp828
(dp829
g7
g8
sg9
V3NSM4HLQNRVII6SU2N7TLV678SFQQ0
p830
sbag1
(g2
g3
Ntp831
Rp832
(dp833
g7
g8
sg9
V3FK4G712NX1682MKMVL3BV0984KSSF
p834
sbag1
(g2
g3
Ntp835
Rp836
(dp837
g7
g8
sg9
V3SD15I2WD2VX1N38P3HZ2IW5YZP36D
p838
sbag1
(g2
g3
Ntp839
Rp840
(dp841
g7
g8
sg9
V3BVS8WK9Q0WIX22M6X5UH4KMVIXIBD
p842
sbag1
(g2
g3
Ntp843
Rp844
(dp845
g7
g8
sg9
V3PUV2Q8SV451PRM0EJ4JQ7493DPDB6
p846
sbag1
(g2
g3
Ntp847
Rp848
(dp849
g7
g8
sg9
V31SIZS5W59GIU77UF2WTQLGC4EHQR1
p850
sbag1
(g2
g3
Ntp851
Rp852
(dp853
g7
g8
sg9
V3IKDQS3DQE1177USKX1PSOQ4D3XICK
p854
sbag1
(g2
g3
Ntp855
Rp856
(dp857
g7
g8
sg9
V3WJGKMRWVIAKZWE6SJ0E1RARLYPDCD
p858
sbag1
(g2
g3
Ntp859
Rp860
(dp861
g7
g8
sg9
V3NQUW096N691ZAVVTGOBIEHOOMOL9K
p862
sbag1
(g2
g3
Ntp863
Rp864
(dp865
g7
g8
sg9
V3MDKGGG61QO204124INQKV03SY2T6K
p866
sbag1
(g2
g3
Ntp867
Rp868
(dp869
g7
g8
sg9
V3SZYX62S5G1JJ24HMWAKNTUL760574
p870
sbag1
(g2
g3
Ntp871
Rp872
(dp873
g7
g8
sg9
V3P7RGTLO6EE4KNNI0MQAZ9FT541AKL
p874
sbag1
(g2
g3
Ntp875
Rp876
(dp877
g7
g8
sg9
V3GL25Y6843VB6OVEW8V4YUIVVU4XMG
p878
sbag1
(g2
g3
Ntp879
Rp880
(dp881
g7
g8
sg9
V32TZXEA1OLLNCXLFJBA1HRXU4O6412
p882
sbag1
(g2
g3
Ntp883
Rp884
(dp885
g7
g8
sg9
V375VMB7D4JKBCZ06KTW0CU8MY39IDK
p886
sbag1
(g2
g3
Ntp887
Rp888
(dp889
g7
g8
sg9
V30ZKOOGW2W72EM1WSCKSUUJUWY21AA
p890
sbag1
(g2
g3
Ntp891
Rp892
(dp893
g7
g8
sg9
V388FBO7JZRU6OB6OD5W6UNE42Q9YNO
p894
sbag1
(g2
g3
Ntp895
Rp896
(dp897
g7
g8
sg9
V3L4YG5VW9NTU4OKKSFVPLXS96Y1DDD
p898
sbag1
(g2
g3
Ntp899
Rp900
(dp901
g7
g8
sg9
V3UL5XDRDNCKNJG90W12Q1TQGIQ658R
p902
sbag1
(g2
g3
Ntp903
Rp904
(dp905
g7
g8
sg9
V3UQ1LLR26A9F4T50LM2BE9S8U46ALO
p906
sbag1
(g2
g3
Ntp907
Rp908
(dp909
g7
g8
sg9
V33CLA8O0MICL3IHL1MLZEMCYXC8FRW
p910
sbag1
(g2
g3
Ntp911
Rp912
(dp913
g7
g8
sg9
V36MUZ9VAE63ZWUYKOA69RFAU6A2DE6
p914
sbag1
(g2
g3
Ntp915
Rp916
(dp917
g7
g8
sg9
V338GLSUI43CX4XHYGBL44WHUJERFSK
p918
sbag1
(g2
g3
Ntp919
Rp920
(dp921
g7
g8
sg9
V3UQ1LLR26A9F4T50LM2BE9S8U46LAZ
p922
sbag1
(g2
g3
Ntp923
Rp924
(dp925
g7
g8
sg9
V35F6NGNVM8KL44F7NSSIQ90ZN9MT7J
p926
sbag1
(g2
g3
Ntp927
Rp928
(dp929
g7
g8
sg9
V388FBO7JZRU6OB6OD5W6UNE42Q9NYD
p930
sbag1
(g2
g3
Ntp931
Rp932
(dp933
g7
g8
sg9
V306996CF6WL7XW6OYQKOP530EGN1B5
p934
sbag1
(g2
g3
Ntp935
Rp936
(dp937
g7
g8
sg9
V3J06WJ78HNL2SMKSALVDX54N6C9VVT
p938
sbag1
(g2
g3
Ntp939
Rp940
(dp941
g7
g8
sg9
V3QQUBC64ZEFHO6GE89A4B97V0KEXNG
p942
sbag1
(g2
g3
Ntp943
Rp944
(dp945
g7
g8
sg9
V3GS542CVJVONXLSA1T841PLR2WO59G
p946
sbag1
(g2
g3
Ntp947
Rp948
(dp949
g7
g8
sg9
V3NSCTNUR2ZO1242FTZM4XKWB8E65AV
p950
sbag1
(g2
g3
Ntp951
Rp952
(dp953
g7
g8
sg9
V3VI0PC2ZAYLZ6RGQ9OAHQY70QUJXOV
p954
sbag1
(g2
g3
Ntp955
Rp956
(dp957
g7
g8
sg9
V3BFNCI9LYKRG5NHD8DMR8WW1TA937C
p958
sbag1
(g2
g3
Ntp959
Rp960
(dp961
g7
g8
sg9
V3QTFNPMJC6J6T1GT9RYP8UN68KDNZ4
p962
sbag1
(g2
g3
Ntp963
Rp964
(dp965
g7
g8
sg9
V3UXQ63NLAANKN3ASR0279KCECMRLBU
p966
sbag1
(g2
g3
Ntp967
Rp968
(dp969
g7
g8
sg9
V31MBOZ6PAOS3X82Y50Y2K4IWU7RLC1
p970
sbag1
(g2
g3
Ntp971
Rp972
(dp973
g7
g8
sg9
V3ICOHX7ENCC5XAXQCYIEC8QBCLT0E0
p974
sbag1
(g2
g3
Ntp975
Rp976
(dp977
g7
g8
sg9
V3087LXLJ6MHX3OXM792KUQBBOM80FI
p978
sbag1
(g2
g3
Ntp979
Rp980
(dp981
g7
g8
sg9
V371DNNCG443P4IKQXXKO49WUYTST86
p982
sbag1
(g2
g3
Ntp983
Rp984
(dp985
g7
g8
sg9
V3NZ1E5QA6Z26LE77ZDM0SVGHQWR5BQ
p986
sbag1
(g2
g3
Ntp987
Rp988
(dp989
g7
g8
sg9
V336OE47KI2LF7BKX0V09J7N1DLBVW3
p990
sbag1
(g2
g3
Ntp991
Rp992
(dp993
g7
g8
sg9
V3WRBLBQ2GR93HOTHIT82CBBNP180GH
p994
sbag1
(g2
g3
Ntp995
Rp996
(dp997
g7
g8
sg9
V3ZQA3IO31BSRGQVX2VPAVP3ZLF5O1V
p998
sbag1
(g2
g3
Ntp999
Rp1000
(dp1001
g7
g8
sg9
V3D0LPO3EAB0O6W60EKWJ9CE9S0EYO3
p1002
sbag1
(g2
g3
Ntp1003
Rp1004
(dp1005
g7
g8
sg9
V3Z8UJEJOCZEKJ656NAKBMSN7O0X39O
p1006
sbag1
(g2
g3
Ntp1007
Rp1008
(dp1009
g7
g8
sg9
V3D06DR5225KZABNLLY3QEM7XU9WAMQ
p1010
sbag1
(g2
g3
Ntp1011
Rp1012
(dp1013
g7
g8
sg9
V38XPGNCKHT13Y91DQPUQOF4ATSBV4G
p1014
sbag1
(g2
g3
Ntp1015
Rp1016
(dp1017
g7
g8
sg9
V356ZPKYPUHI6RWI1TK9YYCJZ25AYPK
p1018
sbag1
(g2
g3
Ntp1019
Rp1020
(dp1021
g7
g8
sg9
V3Q7TKIAPOTBD208C5WTD4A0EF73LD1
p1022
sbag1
(g2
g3
Ntp1023
Rp1024
(dp1025
g7
g8
sg9
V37VUR2VJ6AQQ71YUCQGJ0P9IW1N1CC
p1026
sbag1
(g2
g3
Ntp1027
Rp1028
(dp1029
g7
g8
sg9
V3K1H3NEY7L0XG8UBU5WXRIV6JQHDGN
p1030
sbag1
(g2
g3
Ntp1031
Rp1032
(dp1033
g7
g8
sg9
V3NOEP8XAU43HRRSROONWFYCQ0ZFXPC
p1034
sbag1
(g2
g3
Ntp1035
Rp1036
(dp1037
g7
g8
sg9
V3T2EL38U0ML2R3T6O12LF3205V1XQ3
p1038
sbag1
(g2
g3
Ntp1039
Rp1040
(dp1041
g7
g8
sg9
V3ODOP6T3ASLU1I3B2FAFMA7ZWUK42J
p1042
sbag1
(g2
g3
Ntp1043
Rp1044
(dp1045
g7
g8
sg9
V3LAZVA75NISY5BDTLZPO08D4DLJO2C
p1046
sbag1
(g2
g3
Ntp1047
Rp1048
(dp1049
g7
g8
sg9
V39O6Z4JLX2YUWBPNA0WVLQ18MNHVXW
p1050
sbag1
(g2
g3
Ntp1051
Rp1052
(dp1053
g7
g8
sg9
V3XJOUITW8USVAMKMJR1OQ0HUSZEQTE
p1054
sbag1
(g2
g3
Ntp1055
Rp1056
(dp1057
g7
g8
sg9
V3BPP3MA3TCLIU6MC1R4XASIZFJ4LEU
p1058
sbag1
(g2
g3
Ntp1059
Rp1060
(dp1061
g7
g8
sg9
V3BKZLF990Z0RR8JGTXONYH9971WYQB
p1062
sbag1
(g2
g3
Ntp1063
Rp1064
(dp1065
g7
g8
sg9
V3PKVGQTFIHLR39YG6CDN37JE3NYYRC
p1066
sbag1
(g2
g3
Ntp1067
Rp1068
(dp1069
g7
g8
sg9
V35ZRNT9RUIZNQT9CPZ3TJIIWJZJO3N
p1070
sbag1
(g2
g3
Ntp1071
Rp1072
(dp1073
g7
g8
sg9
V3VGET1QSZ00DWLJ1IXXTDT7YR347WN
p1074
sbag1
(g2
g3
Ntp1075
Rp1076
(dp1077
g7
g8
sg9
V3SU800BH86TAAZZBJWRYVW3WBDLQU5
p1078
sbag1
(g2
g3
Ntp1079
Rp1080
(dp1081
g7
g8
sg9
V3T8DUCXY0N7PIN302PQ245R5IZAT9V
p1082
sbag1
(g2
g3
Ntp1083
Rp1084
(dp1085
g7
g8
sg9
V3FVBZG9CLJFHHKOS2ZQKXBNO41L0HG
p1086
sbag1
(g2
g3
Ntp1087
Rp1088
(dp1089
g7
g8
sg9
V372AGES0I46234861GRLKTC51H3XR4
p1090
sbag1
(g2
g3
Ntp1091
Rp1092
(dp1093
g7
g8
sg9
V33EEIIWHK78ANEOBOM13RI5FPKUQVU
p1094
sbag1
(g2
g3
Ntp1095
Rp1096
(dp1097
g7
g8
sg9
V3UEBBGULPFPDJA925GG4JXZI4BCFU0
p1098
sbag1
(g2
g3
Ntp1099
Rp1100
(dp1101
g7
g8
sg9
V3R6RZGK0XFDJWGFXFWIX448HOTBVY2
p1102
sbag1
(g2
g3
Ntp1103
Rp1104
(dp1105
g7
g8
sg9
V31YWE12TE0DSLLORS2TFFCL505A7XG
p1106
sbag1
(g2
g3
Ntp1107
Rp1108
(dp1109
g7
g8
sg9
V3NKW03WTLM8N23OGEW6ZDKOTWTWQW4
p1110
sbag1
(g2
g3
Ntp1111
Rp1112
(dp1113
g7
g8
sg9
V36818Z1KV3EYOPFBFGYBINYRUIF3A3
p1114
sbag1
(g2
g3
Ntp1115
Rp1116
(dp1117
g7
g8
sg9
V3J9UN9O9J3TD8QJIQZT59O33HTP0JL
p1118
sbag1
(g2
g3
Ntp1119
Rp1120
(dp1121
g7
g8
sg9
V3UOMW19E6D7PVJZDDDIV3FMZ8HR5CX
p1122
sbag1
(g2
g3
Ntp1123
Rp1124
(dp1125
g7
g8
sg9
V3T2EL38U0ML2R3T6O12LF3205V2QXX
p1126
sbag1
(g2
g3
Ntp1127
Rp1128
(dp1129
g7
g8
sg9
V3P6ENY9P79XSOF586PFQ3FNKQV2IHT
p1130
sbag1
(g2
g3
Ntp1131
Rp1132
(dp1133
g7
g8
sg9
V3J94SKDEKIQZ0B5RD9D6NL4HTH35DX
p1134
sbag1
(g2
g3
Ntp1135
Rp1136
(dp1137
g7
g8
sg9
V3N5YJ55YXG45ST8LXZIQR1WXZZ6ANQ
p1138
sbag1
(g2
g3
Ntp1139
Rp1140
(dp1141
g7
g8
sg9
V3JGHED38EDSHLQE1XYFHYQSE2B47YM
p1142
sbag1
(g2
g3
Ntp1143
Rp1144
(dp1145
g7
g8
sg9
V3XEDXEGFX3P8JAP08KTHA33GWIP0KK
p1146
sbag1
(g2
g3
Ntp1147
Rp1148
(dp1149
g7
g8
sg9
V311HQEI8RSHHQGO6TKH0CX1G8587ZD
p1150
sbag1
(g2
g3
Ntp1151
Rp1152
(dp1153
g7
g8
sg9
V37Y5RYYI0P6E4J8JG5RQA3H1NJMXSS
p1154
sbag1
(g2
g3
Ntp1155
Rp1156
(dp1157
g7
g8
sg9
V32XN26MTXZKJ3G7ITK5IP3GVLIU0LN
p1158
sbag1
(g2
g3
Ntp1159
Rp1160
(dp1161
g7
g8
sg9
V3S8A4GJRD34HDW5R9DN5LDOOPJHV61
p1162
sbag1
(g2
g3
Ntp1163
Rp1164
(dp1165
g7
g8
sg9
V35YHTYFL1G4DWPY2A6Q9FJ11IILFVP
p1166
sbag1
(g2
g3
Ntp1167
Rp1168
(dp1169
g7
g8
sg9
V3WGCNLZJKF90CT48CMBUKVR0H1Z1DC
p1170
sbag1
(g2
g3
Ntp1171
Rp1172
(dp1173
g7
g8
sg9
V382GHPVPHSSJM0ZU6FOK5KCR28K43U
p1174
sbag1
(g2
g3
Ntp1175
Rp1176
(dp1177
g7
g8
sg9
V39RRBHZ0AU2J16P2BIKGIBHJUNFVZT
p1178
sbag1
(g2
g3
Ntp1179
Rp1180
(dp1181
g7
g8
sg9
V335HHSX8CD6BG4PMEBEFCI77YQUDHM
p1182
sbag1
(g2
g3
Ntp1183
Rp1184
(dp1185
g7
g8
sg9
V3Y40HMYLL1JUJW0N5AMQP4ZP8G7XU8
p1186
sbag1
(g2
g3
Ntp1187
Rp1188
(dp1189
g7
g8
sg9
V3P4ZBJFX2V4QBEY70GV51LKFPRNFWZ
p1190
sbag1
(g2
g3
Ntp1191
Rp1192
(dp1193
g7
g8
sg9
V3TL87MO8CMQA0KM8W2O3SA3ZRKJLFC
p1194
sbag1
(g2
g3
Ntp1195
Rp1196
(dp1197
g7
g8
sg9
V34R0BODSP104SHJR94OQT3M2TT45EQ
p1198
sbag1
(g2
g3
Ntp1199
Rp1200
(dp1201
g7
g8
sg9
V3MNJFORX8B5WYVJN4F8WBL725UJ5F8
p1202
sbag1
(g2
g3
Ntp1203
Rp1204
(dp1205
g7
g8
sg9
V3K3IX1W4S6S5VEKYDEVIVQ1SZE7APM
p1206
sbag1
(g2
g3
Ntp1207
Rp1208
(dp1209
g7
g8
sg9
V3BKZLF990Z0RR8JGTXONYH9971WQY3
p1210
sbag1
(g2
g3
Ntp1211
Rp1212
(dp1213
g7
g8
sg9
V3I6NF2WGIGX2CVFIFZEET67E69J5G7
p1214
sbag1
(g2
g3
Ntp1215
Rp1216
(dp1217
g7
g8
sg9
V3BAWBGQGYL00HWJWSNSXRROKKU1V70
p1218
sbag1
(g2
g3
Ntp1219
Rp1220
(dp1221
g7
g8
sg9
V37SDSEDIN93OVY8HVE0EY3DZ6A181C
p1222
sbag1
(g2
g3
Ntp1223
Rp1224
(dp1225
g7
g8
sg9
V39O6Z4JLX2YUWBPNA0WVLQ18MNGXVX
p1226
sbag1
(g2
g3
Ntp1227
Rp1228
(dp1229
g7
g8
sg9
V3T6SSHJUZFBSKAGSC7XB3ROZQ8HIIM
p1230
sbag1
(g2
g3
Ntp1231
Rp1232
(dp1233
g7
g8
sg9
V31ANT7FQN83GCRATZ5WWE6JFL9W5H6
p1234
sbag1
(g2
g3
Ntp1235
Rp1236
(dp1237
g7
g8
sg9
V3DW3BNF1GHJ4HAOF2SK35RKFVE7V8N
p1238
sbag1
(g2
g3
Ntp1239
Rp1240
(dp1241
g7
g8
sg9
V375VMB7D4JKBCZ06KTW0CU8MY39DIF
p1242
sbag1
(g2
g3
Ntp1243
Rp1244
(dp1245
g7
g8
sg9
V3URJ6VVYUPO88PSGPD8CTNA2XZFO48
p1246
sbag1
(g2
g3
Ntp1247
Rp1248
(dp1249
g7
g8
sg9
V3HY86PZXPYJ54ZI88HMEQD9LHD01E5
p1250
sbag1
(g2
g3
Ntp1251
Rp1252
(dp1253
g7
g8
sg9
V3PGQRAZX02L34OYTL1DSTHOAPPHYS0
p1254
sbag1
(g2
g3
Ntp1255
Rp1256
(dp1257
g7
g8
sg9
V3TC2K6WK9G3VKJQDEI0S3MN4YGF82T
p1258
sbag1
(g2
g3
Ntp1259
Rp1260
(dp1261
g7
g8
sg9
V308KJXFUJR73N6D5UV42002POHSTAA
p1262
sbag1
(g2
g3
Ntp1263
Rp1264
(dp1265
g7
g8
sg9
V3D1UCPY6GGAK51MWIIEXMWSW4UF834
p1266
sbag1
(g2
g3
Ntp1267
Rp1268
(dp1269
g7
g8
sg9
V3P4C70TRMRIGEKI37MULAV3BSZJLGB
p1270
sbag1
(g2
g3
Ntp1271
Rp1272
(dp1273
g7
g8
sg9
V388CL5C1RJOUEGDERSC3VVFC7ZWLHA
p1274
sbag1
(g2
g3
Ntp1275
Rp1276
(dp1277
g7
g8
sg9
V3MJ28H2Y1E9Q48WG3IRMYFGGXVAO5D
p1278
sbag1
(g2
g3
Ntp1279
Rp1280
(dp1281
g7
g8
sg9
V3ZURAPD288OXADI43S6K8VULTEF1FN
p1282
sbag1
(g2
g3
Ntp1283
Rp1284
(dp1285
g7
g8
sg9
V3QHITW7OYOAQVQLDDRA7VVR24ATAQD
p1286
sbag1
(g2
g3
Ntp1287
Rp1288
(dp1289
g7
g8
sg9
V32TMVRKDGNZ5NX50IWJGW1K2IUB84P
p1290
sbag1
(g2
g3
Ntp1291
Rp1292
(dp1293
g7
g8
sg9
V3VCK0Q0PO5F9RGA35XLX2VKKQDU0NP
p1294
sbag1
(g2
g3
Ntp1295
Rp1296
(dp1297
g7
g8
sg9
V3E24UO25QZRMNCWU811RQLUGTQLO6T
p1298
sbag1
(g2
g3
Ntp1299
Rp1300
(dp1301
g7
g8
sg9
V3T5ZXGO9DEPRWYTLPJQ6COIBDV0QZU
p1302
sbag1
(g2
g3
Ntp1303
Rp1304
(dp1305
g7
g8
sg9
V3XU80RHWHZH44WIY6TT3FP4XG8G44F
p1306
sbag1
(g2
g3
Ntp1307
Rp1308
(dp1309
g7
g8
sg9
V36FQTHX3Z3S37ZK3LUY7DYIXC003BY
p1310
sbag1
(g2
g3
Ntp1311
Rp1312
(dp1313
g7
g8
sg9
V3TKXBROM5TBOFL0YUPIBFS3Z3N6IJY
p1314
sbag1
(g2
g3
Ntp1315
Rp1316
(dp1317
g7
g8
sg9
V3VDVA3ILIDG3ODEZECC2QGUXUTF1GM
p1318
sbag1
(g2
g3
Ntp1319
Rp1320
(dp1321
g7
g8
sg9
V3YGE63DIN8YZEAJHXYCKYEXBJPYW0C
p1322
sbag1
(g2
g3
Ntp1323
Rp1324
(dp1325
g7
g8
sg9
V3D4BBDG7ZHXMH4C9ZUU2OIOFUL03C5
p1326
sbag1
(g2
g3
Ntp1327
Rp1328
(dp1329
g7
g8
sg9
V304QEQWKZPLR91AF6CLAHKKPGNZ0O4
p1330
sbag1
(g2
g3
Ntp1331
Rp1332
(dp1333
g7
g8
sg9
V3X4Q1O9UBHN5RCAZRB6JWZUCO15O7S
p1334
sbag1
(g2
g3
Ntp1335
Rp1336
(dp1337
g7
g8
sg9
V3CO05SML7V6U6E2VY42EBFPURAJR04
p1338
sbag1
(g2
g3
Ntp1339
Rp1340
(dp1341
g7
g8
sg9
V3SA4EMRVJV39U1MGLCYP6KPFQSV0PL
p1342
sbag1
(g2
g3
Ntp1343
Rp1344
(dp1345
g7
g8
sg9
V3BAKUKE49HDUD3NDUN6EPK84W2PR17
p1346
sbag1
(g2
g3
Ntp1347
Rp1348
(dp1349
g7
g8
sg9
V3XU9MCX6VOD12O59DR6SU3I9O83R2O
p1350
sbag1
(g2
g3
Ntp1351
Rp1352
(dp1353
g7
g8
sg9
V3PMR2DOWOO2M0FMYKYCDKHABG4B45K
p1354
sbag1
(g2
g3
Ntp1355
Rp1356
(dp1357
g7
g8
sg9
V3LB1BGHFL2X4JOB8A1II3MKWR8VYTP
p1358
sbag1
(g2
g3
Ntp1359
Rp1360
(dp1361
g7
g8
sg9
V3UL5XDRDNCKNJG90W12Q1TQGIQ685U
p1362
sbag1
(g2
g3
Ntp1363
Rp1364
(dp1365
g7
g8
sg9
V3VMHWJRYHVH50E3XALRR34YMYTTFXS
p1366
sbag1
(g2
g3
Ntp1367
Rp1368
(dp1369
g7
g8
sg9
V3D42WVSDH8WU0JT7FHDTMI5V0ZNFYY
p1370
sbag1
(g2
g3
Ntp1371
Rp1372
(dp1373
g7
g8
sg9
V32PT7WK7DMGWMWINZQPD8O6XFLC3D5
p1374
sbag1
(g2
g3
Ntp1375
Rp1376
(dp1377
g7
g8
sg9
V3YO4AH2FPDLUUDNVLPDE6PFPVOH0QC
p1378
sbag1
(g2
g3
Ntp1379
Rp1380
(dp1381
g7
g8
sg9
V35O6H0UNLSHC3X5JN5ZHQJZUY105JB
p1382
sbag1
(g2
g3
Ntp1383
Rp1384
(dp1385
g7
g8
sg9
V3N7PQ0KLI5Q1E2WNVL0XE6OIFXD3EY
p1386
sbag1
(g2
g3
Ntp1387
Rp1388
(dp1389
g7
g8
sg9
V3Z33IC0JC0N4VF7P7KQH5NFQFKPV9C
p1390
sbag1
(g2
g3
Ntp1391
Rp1392
(dp1393
g7
g8
sg9
V3HJ1EVZS2OKQN61SHRKXDDN1UM3R3Z
p1394
sbag1
(g2
g3
Ntp1395
Rp1396
(dp1397
g7
g8
sg9
V3VP28W7DUNLU593CB3FC0PEX6TRFZP
p1398
sbag1
(g2
g3
Ntp1399
Rp1400
(dp1401
g7
g8
sg9
V3JTPR5MTZSD7EHB15QZTRYZ7DQ05KA
p1402
sbag1
(g2
g3
Ntp1403
Rp1404
(dp1405
g7
g8
sg9
V3OCZWXS7ZO8IYNTJQQBU6YCM2Q55LD
p1406
sbag1
(g2
g3
Ntp1407
Rp1408
(dp1409
g7
g8
sg9
V37M4O367VJJ245B4Q2C96BRB2VV5MF
p1410
sbag1
(g2
g3
Ntp1411
Rp1412
(dp1413
g7
g8
sg9
V3TUOHPJXYHY7B0PS0A1R7SKMTWIXW7
p1414
sbag1
(g2
g3
Ntp1415
Rp1416
(dp1417
g7
g8
sg9
V3SX4X51T80ANAE8XYEI36QW2P9BOAJ
p1418
sbag1
(g2
g3
Ntp1419
Rp1420
(dp1421
g7
g8
sg9
V36BTXXLZ2V9B52KWH5PGNIF78MZR4K
p1422
sbag1
(g2
g3
Ntp1423
Rp1424
(dp1425
g7
g8
sg9
V3C8QQOM6JP2UABOYXAUOV7GR7CBLI3
p1426
sbag1
(g2
g3
Ntp1427
Rp1428
(dp1429
g7
g8
sg9
V3S4TINXCC0OSTODP4SIZ11G87RWOBE
p1430
sbag1
(g2
g3
Ntp1431
Rp1432
(dp1433
g7
g8
sg9
V3HRWUH63QU38MNW423R9JQGB7L55NF
p1434
sbag1
(g2
g3
Ntp1435
Rp1436
(dp1437
g7
g8
sg9
V3X2YVV51PU5ZLZ4ZTHGKCJGLOH4W1F
p1438
sbag1
(g2
g3
Ntp1439
Rp1440
(dp1441
g7
g8
sg9
V3ZC62PVYDHBM00UIAFXD9BYT2YOXX0
p1442
sbag1
(g2
g3
Ntp1443
Rp1444
(dp1445
g7
g8
sg9
V37PGLWGSJT7JQ56GCAING73CIC6IKX
p1446
sbag1
(g2
g3
Ntp1447
Rp1448
(dp1449
g7
g8
sg9
V3JMNNNO3B156AKMVCLGYH2QQGNIW2W
p1450
sbag1
(g2
g3
Ntp1451
Rp1452
(dp1453
g7
g8
sg9
V3HUR21WDDUQB05KSFBJFSP5244IXY6
p1454
sbag1
(g2
g3
Ntp1455
Rp1456
(dp1457
g7
g8
sg9
V3CO05SML7V6U6E2VY42EBFPURAJ0RD
p1458
sbag1
(g2
g3
Ntp1459
Rp1460
(dp1461
g7
g8
sg9
V3MJ28H2Y1E9Q48WG3IRMYFGGXVA5OU
p1462
sbag1
(g2
g3
Ntp1463
Rp1464
(dp1465
g7
g8
sg9
V37J05LC5AXK77AKC2BH0OVNMBIYDJR
p1466
sbag1
(g2
g3
Ntp1467
Rp1468
(dp1469
g7
g8
sg9
V3WRBLBQ2GR93HOTHIT82CBBNP18G0X
p1470
sbag1
(g2
g3
Ntp1471
Rp1472
(dp1473
g7
g8
sg9
V33BFF6QPI1CVV2IEGLU30CVIM1IW37
p1474
sbag1
(g2
g3
Ntp1475
Rp1476
(dp1477
g7
g8
sg9
V34HEO7RUG6VQ7R0DQ6Z70L170WVARE
p1478
sbag1
(g2
g3
Ntp1479
Rp1480
(dp1481
g7
g8
sg9
V363A7XIFV4NI0YHUZQ4H1IQAL27VAR
p1482
sbag1
(g2
g3
Ntp1483
Rp1484
(dp1485
g7
g8
sg9
V30F94FBDNRL86GIX094YVBMV6ZDTB5
p1486
sbag1
(g2
g3
Ntp1487
Rp1488
(dp1489
g7
g8
sg9
V3ZTE0JGGCETB3T5VISEUCLMQPCWOCL
p1490
sbag1
(g2
g3
Ntp1491
Rp1492
(dp1493
g7
g8
sg9
V34D9ZRXCYRV2860Q5VZCQV63MYEAS2
p1494
sbag1
(g2
g3
Ntp1495
Rp1496
(dp1497
g7
g8
sg9
V3HXK2V1N4KGADYWVXGCGVZ42MZSG2H
p1498
sbag1
(g2
g3
Ntp1499
Rp1500
(dp1501
g7
g8
sg9
V3H5TOKO3D9KIJJMCPHMICNOBCZM460
p1502
sbag1
(g2
g3
Ntp1503
Rp1504
(dp1505
g7
g8
sg9
V3CKVGCS3PG667T28DT2J1PUQDC20S1
p1506
sbag1
(g2
g3
Ntp1507
Rp1508
(dp1509
g7
g8
sg9
V3EHVO81VN5MHO99AYIUKBG6Y9TS1HL
p1510
sbag1
(g2
g3
Ntp1511
Rp1512
(dp1513
g7
g8
sg9
V3EPG8DX9LKR8P88HII41NFL67065PB
p1514
sbag1
(g2
g3
Ntp1515
Rp1516
(dp1517
g7
g8
sg9
V36AZSFEYZ41NJ8MM544DWTAG3KSVBM
p1518
sbag1
(g2
g3
Ntp1519
Rp1520
(dp1521
g7
g8
sg9
V38F60IALAGI7MTFN2T79BUQCFVG0TQ
p1522
sbag1
(g2
g3
Ntp1523
Rp1524
(dp1525
g7
g8
sg9
V33QQ60S6ASJMM6UC2YXJGQCEY9N0UH
p1526
sbag1
(g2
g3
Ntp1527
Rp1528
(dp1529
g7
g8
sg9
V3OEWW2KGQJCL8LB9IO95WR48AC8ODL
p1530
sbag1
(g2
g3
Ntp1531
Rp1532
(dp1533
g7
g8
sg9
V3EAWOID6MTYMZLJC7O7OCCEXCGW0V6
p1534
sbag1
(g2
g3
Ntp1535
Rp1536
(dp1537
g7
g8
sg9
V3K3G488TR29TPK9WIVJQNKBGCWS5Q2
p1538
sbag1
(g2
g3
Ntp1539
Rp1540
(dp1541
g7
g8
sg9
V3DZKABX2ZI66TDESJ4087DGYL5SVCT
p1542
sbag1
(g2
g3
Ntp1543
Rp1544
(dp1545
g7
g8
sg9
V3CMV9YRYP32Q5M84FSFO78VRKR0LJF
p1546
sbag1
(g2
g3
Ntp1547
Rp1548
(dp1549
g7
g8
sg9
V3IH9TRB0FB0HK4KU40C5BS7D9671IE
p1550
sbag1
(g2
g3
Ntp1551
Rp1552
(dp1553
g7
g8
sg9
V3R6RZGK0XFDJWGFXFWIX448HOTBYV5
p1554
sbag1
(g2
g3
Ntp1555
Rp1556
(dp1557
g7
g8
sg9
V3QREJ3J433YLG6EMXDF08NV4ZG0LKE
p1558
sbag1
(g2
g3
Ntp1559
Rp1560
(dp1561
g7
g8
sg9
V3VAOOVPI3ZTW0CW4IDR1NN8JOG5LLH
p1562
sbag1
(g2
g3
Ntp1563
Rp1564
(dp1565
g7
g8
sg9
V3C8QQOM6JP2UABOYXAUOV7GR7CBIL0
p1566
sbag1
(g2
g3
Ntp1567
Rp1568
(dp1569
g7
g8
sg9
V3Y3CZJSZ9KUT1LOWVA8QSALL8IU5R3
p1570
sbag1
(g2
g3
Ntp1571
Rp1572
(dp1573
g7
g8
sg9
V3ZFRE2BDQ9FB5VUXBXLY6WE4AYMXZX
p1574
sbag1
(g2
g3
Ntp1575
Rp1576
(dp1577
g7
g8
sg9
V3QMELQS6Y5CPKPOA0TIVKGZL4D5R65
p1578
sbag1
(g2
g3
Ntp1579
Rp1580
(dp1581
g7
g8
sg9
V3KQC8JMJGCTDYCNPLM83Z9LV7D53HE
p1582
sbag1
(g2
g3
Ntp1583
Rp1584
(dp1585
g7
g8
sg9
V308KJXFUJR73N6D5UV42002POHSATR
p1586
sbag1
(g2
g3
Ntp1587
Rp1588
(dp1589
g7
g8
sg9
V32K26U12DNPGY5K6J0VJRJYG654VDT
p1590
sbag1
(g2
g3
Ntp1591
Rp1592
(dp1593
g7
g8
sg9
V3BC9H1KCYUDWB5F256NTQ6RVV2DYWF
p1594
sbag1
(g2
g3
Ntp1595
Rp1596
(dp1597
g7
g8
sg9
V31MCUE39BKNZYGSE1GQLE99USDSG3S
p1598
sbag1
(g2
g3
Ntp1599
Rp1600
(dp1601
g7
g8
sg9
V3VIVIU06FKDEGT6JXMV3VKVG7H1IM2
p1602
sbag1
(g2
g3
Ntp1603
Rp1604
(dp1605
g7
g8
sg9
V39WSF6KUV2MQ0RP9EJKP29MTAO9OEE
p1606
sbag1
(g2
g3
Ntp1607
Rp1608
(dp1609
g7
g8
sg9
V39O0SQZVJN88OP2FJ3NNQUZHZOPR74
p1610
sbag1
(g2
g3
Ntp1611
Rp1612
(dp1613
g7
g8
sg9
V3QE4DGPGBRCKGCBI1UV4OE106DOG4D
p1614
sbag1
(g2
g3
Ntp1615
Rp1616
(dp1617
g7
g8
sg9
V3OQQD2WO8I7DU7Y9R4QOZLMA7QK3I7
p1618
sbag1
(g2
g3
Ntp1619
Rp1620
(dp1621
g7
g8
sg9
V3RSBJ6YZECRI65P59U4VKR7TMPOOFW
p1622
sbag1
(g2
g3
Ntp1623
Rp1624
(dp1625
g7
g8
sg9
V3HUR21WDDUQB05KSFBJFSP5244JYX8
p1626
sbag1
(g2
g3
Ntp1627
Rp1628
(dp1629
g7
g8
sg9
V3LOJFQ4BOXG2IUQUKWHCPANZQ7YDKQ
p1630
sbag1
(g2
g3
Ntp1631
Rp1632
(dp1633
g7
g8
sg9
V3YGE63DIN8YZEAJHXYCKYEXBJPY0WG
p1634
sbag1
(g2
g3
Ntp1635
Rp1636
(dp1637
g7
g8
sg9
V3Q7TKIAPOTBD208C5WTD4A0EF73DLT
p1638
sbag1
(g2
g3
Ntp1639
Rp1640
(dp1641
g7
g8
sg9
V3MGHRFQY2LQ33FEHCZU8JBIRUXXY0C
p1642
sbag1
(g2
g3
Ntp1643
Rp1644
(dp1645
g7
g8
sg9
V374UMBUHN5QRGLA3E90T6VSDOKDTCC
p1646
sbag1
(g2
g3
Ntp1647
Rp1648
(dp1649
g7
g8
sg9
V35NNO802AVXKYBRJ9NA38ZKGC7BIN2
p1650
sbag1
(g2
g3
Ntp1651
Rp1652
(dp1653
g7
g8
sg9
V3AFT28WXLF32GWRVA2AGNOKL2HGIOH
p1654
sbag1
(g2
g3
Ntp1655
Rp1656
(dp1657
g7
g8
sg9
V3S37Y8CWI81GDY1IGZZMAHNO01EW4S
p1658
sbag1
(g2
g3
Ntp1659
Rp1660
(dp1661
g7
g8
sg9
V3VJ4PFXFJ38INJSUU0UC5WOR7VZAUI
p1662
sbag1
(g2
g3
Ntp1663
Rp1664
(dp1665
g7
g8
sg9
V3N2YPY1GI6ZLQBY6FV63X1G16H5VEM
p1666
sbag1
(g2
g3
Ntp1667
Rp1668
(dp1669
g7
g8
sg9
V3M47JKRKCX2J2K9E1KCVTZ4GELH86A
p1670
sbag1
(g2
g3
Ntp1671
Rp1672
(dp1673
g7
g8
sg9
V39HYCOOPKOMX8IQX58US4NF3FCTDMV
p1674
sbag1
(g2
g3
Ntp1675
Rp1676
(dp1677
g7
g8
sg9
V3I6NF2WGIGX2CVFIFZEET67E69JG5I
p1678
sbag1
(g2
g3
Ntp1679
Rp1680
(dp1681
g7
g8
sg9
V32L724R85LLK1W3WP2NVCOPBCMCIPY
p1682
sbag1
(g2
g3
Ntp1683
Rp1684
(dp1685
g7
g8
sg9
V3KVQ0UJWPXMY9H5IU4IWF9T20X9W5X
p1686
sbag1
(g2
g3
Ntp1687
Rp1688
(dp1689
g7
g8
sg9
V3OEWW2KGQJCL8LB9IO95WR48AC8DOA
p1690
sbag1
(g2
g3
Ntp1691
Rp1692
(dp1693
g7
g8
sg9
V307FVKVSYRG1NJ0H8RRAI1O77A647Z
p1694
sbag1
(g2
g3
Ntp1695
Rp1696
(dp1697
g7
g8
sg9
V3O4VWC1GEW79PIIF9MBOBM1AK593JJ
p1698
sbag1
(g2
g3
Ntp1699
Rp1700
(dp1701
g7
g8
sg9
V35YHTYFL1G4DWPY2A6Q9FJ11IIKVF4
p1702
sbag1
(g2
g3
Ntp1703
Rp1704
(dp1705
g7
g8
sg9
V3BA7SXOG1JRCO37YT8FT4UVCA8VR8R
p1706
sbag1
(g2
g3
Ntp1707
Rp1708
(dp1709
g7
g8
sg9
V32TMVRKDGNZ5NX50IWJGW1K2IUC48M
p1710
sbag1
(g2
g3
Ntp1711
Rp1712
(dp1713
g7
g8
sg9
V3YZ7A3YHR5U520O9AZ8VIKQHUKD5SR
p1714
sbag1
(g2
g3
Ntp1715
Rp1716
(dp1717
g7
g8
sg9
V3XH7ZM9YX2VC28Q8Y0L74QQNUEDR9G
p1718
sbag1
(g2
g3
Ntp1719
Rp1720
(dp1721
g7
g8
sg9
V3EKTG13IZU4G6UEPIPSGN0N8OLVLMJ
p1722
sbag1
(g2
g3
Ntp1723
Rp1724
(dp1725
g7
g8
sg9
V3WPCIUYH1A91LDGHE5V4Q1AV9KPTDC
p1726
sbag1
(g2
g3
Ntp1727
Rp1728
(dp1729
g7
g8
sg9
V3CESM1J3EI4USL5WZNS17F72WSKW6D
p1730
sbag1
(g2
g3
Ntp1731
Rp1732
(dp1733
g7
g8
sg9
V3ZCC2DXSD7500AA2K75HB3CB6ADYYE
p1734
sbag1
(g2
g3
Ntp1735
Rp1736
(dp1737
g7
g8
sg9
V3L21G7IH47X3A4ZZ8IY8XG11ZP3Y1F
p1738
sbag1
(g2
g3
Ntp1739
Rp1740
(dp1741
g7
g8
sg9
V3O0M2G5VC63512OANOPUWXFD20U49B
p1742
sbag1
(g2
g3
Ntp1743
Rp1744
(dp1745
g7
g8
sg9
V3UUIU9GZC566H01OZZDLSPM3W3R5TG
p1746
sbag1
(g2
g3
Ntp1747
Rp1748
(dp1749
g7
g8
sg9
V363A7XIFV4NI0YHUZQ4H1IQAL28AV7
p1750
sbag1
(g2
g3
Ntp1751
Rp1752
(dp1753
g7
g8
sg9
V3HXCEECSQMU050K7GT70PALDC4HYZ5
p1754
sbag1
(g2
g3
Ntp1755
Rp1756
(dp1757
g7
g8
sg9
V3OPLMF3EU5OMOCZPUQ7G0FC8TB5LNJ
p1758
sbag1
(g2
g3
Ntp1759
Rp1760
(dp1761
g7
g8
sg9
V329E6HTMSW3402OXR7B0C11NZU93KI
p1762
sbag1
(g2
g3
Ntp1763
Rp1764
(dp1765
g7
g8
sg9
V37MQ8Z1JQEXAZPHVRMYM2ZB6RVHY2W
p1766
sbag1
(g2
g3
Ntp1767
Rp1768
(dp1769
g7
g8
sg9
V34HEO7RUG6VQ7R0DQ6Z70L170WVRAV
p1770
sbag1
(g2
g3
Ntp1771
Rp1772
(dp1773
g7
g8
sg9
V34YWR3PJ28BE3AO773860XBISR40X9
p1774
sbag1
(g2
g3
Ntp1775
Rp1776
(dp1777
g7
g8
sg9
V3NBFJK3IOHJOK5L0KEAD2C75N4OOGV
p1778
sbag1
(g2
g3
Ntp1779
Rp1780
(dp1781
g7
g8
sg9
V36FFXPMST9P2K1GB4KSVNCJ6241OHU
p1782
sbag1
(g2
g3
Ntp1783
Rp1784
(dp1785
g7
g8
sg9
V34O39PNDK69VQ155WKZ3VWLDIEGRBQ
p1786
sbag1
(g2
g3
Ntp1787
Rp1788
(dp1789
g7
g8
sg9
V37SOB9Z0SSYFK86FC7N1R1E2OUE3LL
p1790
sbag1
(g2
g3
Ntp1791
Rp1792
(dp1793
g7
g8
sg9
V3MGHRFQY2LQ33FEHCZU8JBIRUXY0YF
p1794
sbag1
(g2
g3
Ntp1795
Rp1796
(dp1797
g7
g8
sg9
V3AFT28WXLF32GWRVA2AGNOKL2HGOIN
p1798
sbag1
(g2
g3
Ntp1799
Rp1800
(dp1801
g7
g8
sg9
V37S0QRNUFBH66YS2UZ9TDD07KG788W
p1802
sbag1
(g2
g3
Ntp1803
Rp1804
(dp1805
g7
g8
sg9
V3Q2T3FD0ON9ZQQO0CJOGRETROZ43MN
p1806
sbag1
(g2
g3
Ntp1807
Rp1808
(dp1809
g7
g8
sg9
V3IVEC1GSLP0DFF40MIX5NTMDMLW1JQ
p1810
sbag1
(g2
g3
Ntp1811
Rp1812
(dp1813
g7
g8
sg9
V3Q9SPIIRWJNVFNHZP09DNK9OSBAAWH
p1814
sbag1
(g2
g3
Ntp1815
Rp1816
(dp1817
g7
g8
sg9
V31HLTCK4BLWJAPUXLQWRX41DJXKVG3
p1818
sbag1
(g2
g3
Ntp1819
Rp1820
(dp1821
g7
g8
sg9
V3APP19WN71FYVZFWKIOJLCLE24UG6Y
p1822
sbag1
(g2
g3
Ntp1823
Rp1824
(dp1825
g7
g8
sg9
V307L9TDWJYT58890OK3G4TIRTPE3NN
p1826
sbag1
(g2
g3
Ntp1827
Rp1828
(dp1829
g7
g8
sg9
V3VGET1QSZ00DWLJ1IXXTDT7YR34W7C
p1830
sbag1
(g2
g3
Ntp1831
Rp1832
(dp1833
g7
g8
sg9
V3TRB893CSJBHZZT13STBRQLAXFEG7X
p1834
sbag1
(g2
g3
Ntp1835
Rp1836
(dp1837
g7
g8
sg9
V341H3G5YF0F385OM8LWRXIRT0R20Z6
p1838
sbag1
(g2
g3
Ntp1839
Rp1840
(dp1841
g7
g8
sg9
V3KLL7H3EGD2XALP85WE9I4DEYXXVH2
p1842
sbag1
(g2
g3
Ntp1843
Rp1844
(dp1845
g7
g8
sg9
V341H3G5YF0F385OM8LWRXIRT0R2Z05
p1846
sbag1
(g2
g3
Ntp1847
Rp1848
(dp1849
g7
g8
sg9
V3LN50BUKPVCMRXB2A5K844H3TQ6LPF
p1850
sbag1
(g2
g3
Ntp1851
Rp1852
(dp1853
g7
g8
sg9
V3P520RYKCH7LHDGDZ43VXL85FHY5U7
p1854
sbag1
(g2
g3
Ntp1855
Rp1856
(dp1857
g7
g8
sg9
V3VDI8GSXAFULZDYKDXLH5QH58ZKG8K
p1858
sbag1
(g2
g3
Ntp1859
Rp1860
(dp1861
g7
g8
sg9
V3WRAAIUSBJ0A4NMPZ55ZP3NV1DGAXA
p1862
sbag1
(g2
g3
Ntp1863
Rp1864
(dp1865
g7
g8
sg9
V3E9VAUV7BWFZ4SCZ41R18HU43JAAYG
p1866
sbag1
(g2
g3
Ntp1867
Rp1868
(dp1869
g7
g8
sg9
V3V7ICJJAZAHOPV37L83QN3A3Q0X4BL
p1870
sbag1
(g2
g3
Ntp1871
Rp1872
(dp1873
g7
g8
sg9
V3Z3R5YC0P3OYJXUD5BQUE1DGLX5TFN
p1874
sbag1
(g2
g3
Ntp1875
Rp1876
(dp1877
g7
g8
sg9
V3W0XM68YZPW8QZAI43XHO8MQ1AW1KP
p1878
sbag1
(g2
g3
Ntp1879
Rp1880
(dp1881
g7
g8
sg9
V3BDORL6HKKEE06XBAKVY6GRV0ZGRCX
p1882
sbag1
(g2
g3
Ntp1883
Rp1884
(dp1885
g7
g8
sg9
V3HKIF5DF6YYLDIHUIPRV5MCGS52G99
p1886
sbag1
(g2
g3
Ntp1887
Rp1888
(dp1889
g7
g8
sg9
V3R15W654VDU7R9CHAIZX497DYMSLQ6
p1890
sbag1
(g2
g3
Ntp1891
Rp1892
(dp1893
g7
g8
sg9
V3ATYLI1PRT3YB7B1SKVGZPZLFW5OJZ
p1894
sbag1
(g2
g3
Ntp1895
Rp1896
(dp1897
g7
g8
sg9
V3X2LT8FDHWJHWZOKS2PZRT3T2NAW8Z
p1898
sbag1
(g2
g3
Ntp1899
Rp1900
(dp1901
g7
g8
sg9
V3OLZC0DJ8JGX6G0SBEWUIGETYACVIV
p1902
sbag1
(g2
g3
Ntp1903
Rp1904
(dp1905
g7
g8
sg9
V3511RHPADVF73ARHNXOX9ZHIU8ULR7
p1906
sbag1
(g2
g3
Ntp1907
Rp1908
(dp1909
g7
g8
sg9
V3G3AJKPCXLTK23WIV0HAVE84B9DY4S
p1910
sbag1
(g2
g3
Ntp1911
Rp1912
(dp1913
g7
g8
sg9
V30Y6N4AHYPXO5Y3PAGQ9QM9DLZSRDX
p1914
sbag1
(g2
g3
Ntp1915
Rp1916
(dp1917
g7
g8
sg9
V32W3UF2EZOM7Z0VDZ8ZLYNGL8LX4CS
p1918
sbag1
(g2
g3
Ntp1919
Rp1920
(dp1921
g7
g8
sg9
V3VMV5CHJZ8G4XXQ8GVWCWMDSMC5TGM
p1922
sbag1
(g2
g3
Ntp1923
Rp1924
(dp1925
g7
g8
sg9
V35ZRNT9RUIZNQT9CPZ3TJIIWJZJ3O2
p1926
sbag1
(g2
g3
Ntp1927
Rp1928
(dp1929
g7
g8
sg9
V3OYHVNTV5TZTMRHJA5VS04ZYUL5OKY
p1930
sbag1
(g2
g3
Ntp1931
Rp1932
(dp1933
g7
g8
sg9
V35XW21VSVGFJ4PRU2MO2Z9MEGADLSV
p1934
sbag1
(g2
g3
Ntp1935
Rp1936
(dp1937
g7
g8
sg9
V38Z7YZ2SB335184BPF2KCTFLHIYIQP
p1938
sbag1
(g2
g3
Ntp1939
Rp1940
(dp1941
g7
g8
sg9
V30P8I9JKOIMLUS5D4UD0T7AOTO75VW
p1942
sbag1
(g2
g3
Ntp1943
Rp1944
(dp1945
g7
g8
sg9
V38VTL6WC4AE2YM0I950K06EIB58Y5X
p1946
sbag1
(g2
g3
Ntp1947
Rp1948
(dp1949
g7
g8
sg9
V3MZ3TAMYTLO5D9JB2URKHJPQD40IRQ
p1950
sbag1
(g2
g3
Ntp1951
Rp1952
(dp1953
g7
g8
sg9
V3J9L0X0VDFNHA47UXUVDRPY4MTSW9O
p1954
sbag1
(g2
g3
Ntp1955
Rp1956
(dp1957
g7
g8
sg9
V30EV7DWJTVWYHQ0WEOAPSCSI70JY6D
p1958
sbag1
(g2
g3
Ntp1959
Rp1960
(dp1961
g7
g8
sg9
V3JGHED38EDSHLQE1XYFHYQSE2B3Y7C
p1962
sbag1
(g2
g3
Ntp1963
Rp1964
(dp1965
g7
g8
sg9
V3THR0FZ95PU46XZ1V57TF4CDJLAOL1
p1966
sbag1
(g2
g3
Ntp1967
Rp1968
(dp1969
g7
g8
sg9
V33N1S8XHHMM3FU94440RBNA35J8Z18
p1970
sbag1
(g2
g3
Ntp1971
Rp1972
(dp1973
g7
g8
sg9
V30Y6N4AHYPXO5Y3PAGQ9QM9DLZSDRJ
p1974
sbag1
(g2
g3
Ntp1975
Rp1976
(dp1977
g7
g8
sg9
V3RHLQY6EDT5H4S1RZ4UWITY3TL94DS
p1978
sbag1
(g2
g3
Ntp1979
Rp1980
(dp1981
g7
g8
sg9
V3CRWSLD91K5OCFHMVH88FHR2JQ0OM3
p1982
sbag1
(g2
g3
Ntp1983
Rp1984
(dp1985
g7
g8
sg9
V3ZVPAMTJWN4RHIDGC6RHW7CAYR8RG7
p1986
sbag1
(g2
g3
Ntp1987
Rp1988
(dp1989
g7
g8
sg9
V31S7M7DAGGRKJP49RMTS9EI0ITRLTK
p1990
sbag1
(g2
g3
Ntp1991
Rp1992
(dp1993
g7
g8
sg9
V3IQ9O0AYW60ITOW36JWFHYQ81PXTIE
p1994
sbag1
(g2
g3
Ntp1995
Rp1996
(dp1997
g7
g8
sg9
V3MVY4USGB6OHEOJOHJRP7TUMZ6JISE
p1998
sbag1
(g2
g3
Ntp1999
Rp2000
(dp2001
g7
g8
sg9
V3TZ0XG8CBUL6K3BCZRF7D9VI4MP89L
p2002
sbag1
(g2
g3
Ntp2003
Rp2004
(dp2005
g7
g8
sg9
V3L2OEKSTW9BLL4JK737NCQO9DV9Y8Z
p2006
sbag1
(g2
g3
Ntp2007
Rp2008
(dp2009
g7
g8
sg9
V3W3RSPVVGSSZJ2JYRRJ2EA4217YLUB
p2010
sbag1
(g2
g3
Ntp2011
Rp2012
(dp2013
g7
g8
sg9
V30Z7M1Q8UYLKPMLHRXT79462A478A0
p2014
sbag1
(g2
g3
Ntp2015
Rp2016
(dp2017
g7
g8
sg9
V379OL9DBSSFLZ92UCVD1CMJKX1RY9O
p2018
sbag1
(g2
g3
Ntp2019
Rp2020
(dp2021
g7
g8
sg9
V3CZH926SICFMWYFRVZ5GOBGOTXA4EL
p2022
sbag1
(g2
g3
Ntp2023
Rp2024
(dp2025
g7
g8
sg9
V37NXA7GVST7ZWH8YWHT7AW6LFE7LV0
p2026
sbag1
(g2
g3
Ntp2027
Rp2028
(dp2029
g7
g8
sg9
V3KVQ0UJWPXMY9H5IU4IWF9T20X95W6
p2030
sbag1
(g2
g3
Ntp2031
Rp2032
(dp2033
g7
g8
sg9
V3QD8LUVX4XZDYHA849EIHS799ZF5XZ
p2034
sbag1
(g2
g3
Ntp2035
Rp2036
(dp2037
g7
g8
sg9
V3Q9SPIIRWJNVFNHZP09DNK9OSBAWA3
p2038
sbag1
(g2
g3
Ntp2039
Rp2040
(dp2041
g7
g8
sg9
V3E9VAUV7BWFZ4SCZ41R18HU43J9YA3
p2042
sbag1
(g2
g3
Ntp2043
Rp2044
(dp2045
g7
g8
sg9
V3RTFSSG7T87CB683MRY3WYPZMN9LWA
p2046
sbag1
(g2
g3
Ntp2047
Rp2048
(dp2049
g7
g8
sg9
V3QGHA0EA0J10YXMRVE99IVTUATVWBY
p2050
sbag1
(g2
g3
Ntp2051
Rp2052
(dp2053
g7
g8
sg9
V306W7JMRYYZP8WQ9XBT34FQ8SMS8BV
p2054
sbag1
(g2
g3
Ntp2055
Rp2056
(dp2057
g7
g8
sg9
V3UV0D2KX1MKE2CFNQAPM6T1O5YP4F3
p2058
sbag1
(g2
g3
Ntp2059
Rp2060
(dp2061
g7
g8
sg9
V38VTL6WC4AE2YM0I950K06EIB595Y5
p2062
sbag1
(g2
g3
Ntp2063
Rp2064
(dp2065
g7
g8
sg9
V3QGTX7BCHP323CAN5R23EDNKHZD5ZW
p2066
sbag1
(g2
g3
Ntp2067
Rp2068
(dp2069
g7
g8
sg9
V3OKP4QVBP2YZI1RZAV5V1HN0YNKGAO
p2070
sbag1
(g2
g3
Ntp2071
Rp2072
(dp2073
g7
g8
sg9
V3OREP8RUT2C41BWRG95RWS76G55GBJ
p2074
sbag1
(g2
g3
Ntp2075
Rp2076
(dp2077
g7
g8
sg9
V31J7RYECZLRJA5S0P39I38Z5QA11LS
p2078
sbag1
(g2
g3
Ntp2079
Rp2080
(dp2081
g7
g8
sg9
V30U1YOGZGAX06D32P5QEGWE971BDS7
p2082
sbag1
(g2
g3
Ntp2083
Rp2084
(dp2085
g7
g8
sg9
V3QE4DGPGBRCKGCBI1UV4OE106DP4G2
p2086
sbag1
(g2
g3
Ntp2087
Rp2088
(dp2089
g7
g8
sg9
V3WUVMVA7OB4Z9IM40NTKMO369DEAZ7
p2090
sbag1
(g2
g3
Ntp2091
Rp2092
(dp2093
g7
g8
sg9
V3P7QK0GJ3TMA4FR0N805G6K8XPMZ2P
p2094
sbag1
(g2
g3
Ntp2095
Rp2096
(dp2097
g7
g8
sg9
V3EGKVCRQFWT4N2HRAFRX3SEAL1UYBY
p2098
sbag1
(g2
g3
Ntp2099
Rp2100
(dp2101
g7
g8
sg9
V3IZPORCT1FA5HE8RWC9ZH7OBDRLRH6
p2102
sbag1
(g2
g3
Ntp2103
Rp2104
(dp2105
g7
g8
sg9
V324N5FAHSXCOCBQGBHH6VWT6QE1VK6
p2106
sbag1
(g2
g3
Ntp2107
Rp2108
(dp2109
g7
g8
sg9
V37VHPF5VYC48I1IFBBPYFZWQA7S8C2
p2110
sbag1
(g2
g3
Ntp2111
Rp2112
(dp2113
g7
g8
sg9
V3WPCIUYH1A91LDGHE5V4Q1AV9KPDTW
p2114
sbag1
(g2
g3
Ntp2115
Rp2116
(dp2117
g7
g8
sg9
V3MZ3TAMYTLO5D9JB2URKHJPQD40RIZ
p2118
sbag1
(g2
g3
Ntp2119
Rp2120
(dp2121
g7
g8
sg9
V3NI0WFPPI9H1KV4B6GZG0KYYVN560L
p2122
sbag1
(g2
g3
Ntp2123
Rp2124
(dp2125
g7
g8
sg9
V3MQKOF1EE2PTDUKB9A0FDLHUDE7WD5
p2126
sbag1
(g2
g3
Ntp2127
Rp2128
(dp2129
g7
g8
sg9
V378G7J1SJLZY50YB55BZJ3ZFDQ8WEY
p2130
sbag1
(g2
g3
Ntp2131
Rp2132
(dp2133
g7
g8
sg9
V3MD8CKRQZZO18K3HKCCKTK4QQJPRJB
p2134
sbag1
(g2
g3
Ntp2135
Rp2136
(dp2137
g7
g8
sg9
V3X55NP42EOH5BTLD4ZG88INMT4F3PJ
p2138
sbag1
(g2
g3
Ntp2139
Rp2140
(dp2141
g7
g8
sg9
V386659BNTLI6D93E0ANZ5O7HNCP10I
p2142
sbag1
(g2
g3
Ntp2143
Rp2144
(dp2145
g7
g8
sg9
V3P4ZBJFX2V4QBEY70GV51LKFPRNWFG
p2146
sbag1
(g2
g3
Ntp2147
Rp2148
(dp2149
g7
g8
sg9
V3YOAVL4CA0IK7T6NRMJT9LH6H3IZ4L
p2150
sbag1
(g2
g3
Ntp2151
Rp2152
(dp2153
g7
g8
sg9
V3QGTX7BCHP323CAN5R23EDNKHZDZ5Q
p2154
sbag1
(g2
g3
Ntp2155
Rp2156
(dp2157
g7
g8
sg9
V3WGZLY9VCHNINTOTB7K9Z5E8V748D2
p2158
sbag1
(g2
g3
Ntp2159
Rp2160
(dp2161
g7
g8
sg9
V3R0WOCG21MAGLQV6EALEVXWXSYWDUN
p2162
sbag1
(g2
g3
Ntp2163
Rp2164
(dp2165
g7
g8
sg9
V30IRMPJWDZKWJ49Z2XCWUZ4358PRKA
p2166
sbag1
(g2
g3
Ntp2167
Rp2168
(dp2169
g7
g8
sg9
V3IQ9O0AYW60ITOW36JWFHYQ81PXIT3
p2170
sbag1
(g2
g3
Ntp2171
Rp2172
(dp2173
g7
g8
sg9
V3KTCJ4SCVG23GNALPFAX3LEUQFR1MU
p2174
sbag1
(g2
g3
Ntp2175
Rp2176
(dp2177
g7
g8
sg9
V3LN3BXKGC0WWPEU2B01NJ6KRQ6NWGF
p2178
sbag1
(g2
g3
Ntp2179
Rp2180
(dp2181
g7
g8
sg9
V3FTID4TN8LZG0B331SGRHVAFXV9LY9
p2182
sbag1
(g2
g3
Ntp2183
Rp2184
(dp2185
g7
g8
sg9
V33J5JKFMK6ZQB5MS4CVX8NDWY013QA
p2186
sbag1
(g2
g3
Ntp2187
Rp2188
(dp2189
g7
g8
sg9
V3M4KL7H8KVO1RKPT2Z3GEPH80FB61O
p2190
sbag1
(g2
g3
Ntp2191
Rp2192
(dp2193
g7
g8
sg9
V3MDKGGG61QO204124INQKV03SY36TY
p2194
sbag1
(g2
g3
Ntp2195
Rp2196
(dp2197
g7
g8
sg9
V3IZVJEBJ6ALYMGA1AAC86J1KDUOZ66
p2198
sbag1
(g2
g3
Ntp2199
Rp2200
(dp2201
g7
g8
sg9
V3VGZ74AYTGHNBGOXU91M7CDOYQ5GCQ
p2202
sbag1
(g2
g3
Ntp2203
Rp2204
(dp2205
g7
g8
sg9
V3HJ1EVZS2OKQN61SHRKXDDN1UM33RB
p2206
sbag1
(g2
g3
Ntp2207
Rp2208
(dp2209
g7
g8
sg9
V3UY4PIS8QRM9Y5VL1GPXG03UV511NU
p2210
sbag1
(g2
g3
Ntp2211
Rp2212
(dp2213
g7
g8
sg9
V3511RHPADVF73ARHNXOX9ZHIU8URLD
p2214
sbag1
(g2
g3
Ntp2215
Rp2216
(dp2217
g7
g8
sg9
V39I4RL8QGJIYG86TL0DM9ED1LD24H1
p2218
sbag1
(g2
g3
Ntp2219
Rp2220
(dp2221
g7
g8
sg9
V3MWOYZD5WVPUUX2M7IN8SWG2OGAON3
p2222
sbag1
(g2
g3
Ntp2223
Rp2224
(dp2225
g7
g8
sg9
V31KPKEKW4AE7Q7L627GOB0KQ9OGB0B
p2226
sbag1
(g2
g3
Ntp2227
Rp2228
(dp2229
g7
g8
sg9
V32K26U12DNPGY5K6J0VJRJYG655DVC
p2230
sbag1
(g2
g3
Ntp2231
Rp2232
(dp2233
g7
g8
sg9
V3W9XHF7WGKW9ZJMR6MHRUE5LTTMTKP
p2234
sbag1
(g2
g3
Ntp2235
Rp2236
(dp2237
g7
g8
sg9
V3ROUCZ907FVCCI2Y8XNL7LG7EQFOOI
p2238
sba.