ccollections
defaultdict
p0
(c__builtin__
list
p1
tp2
Rp3
V3B9J25CZ25EQ1LXOP9V49MUP6O2SCK
p4
(lp5
ccopy_reg
_reconstructor
p6
(cboto.mturk.connection
Assignment
p7
c__builtin__
object
p8
Ntp9
Rp10
(dp11
S'AutoApprovalTime'
p12
V2016-08-19T00:35:14Z
p13
sS'AssignmentId'
p14
V3Q5C1WP23M28V0N9NIYEOZWN2W115V
p15
sS'WorkerId'
p16
VAO235WMFCB1D9
p17
sS'answers'
p18
(lp19
g6
(cboto.resultset
ResultSet
p20
g1
(lp21
g6
(cboto.mturk.connection
QuestionFormAnswer
p22
g8
Ntp23
Rp24
(dp25
S'fields'
p26
(lp27
V63.png
p28
asS'qid'
p29
Vimage_id
p30
sbag6
(g22
g8
Ntp31
Rp32
(dp33
g26
(lp34
V[{"id":"T10","category":["unlabeled","IntraObjectLabel"],"group_n":[[0,0],[11,3]]},{"id":"T11","category":["unlabeled","arrowDescriptor"],"group_n":[[0,0],[6,1]]},{"id":"T12","category":["unlabeled","IntraObjectLabel"],"group_n":[[0,0],[10,1]]},{"id":"T13","category":["unlabeled","IntraObjectLabel"],"group_n":[[0,0],[11,1]]},{"id":"A1","category":["unlabeled","arrowDescriptor","InterObjectLinkage"],"group_n":[[0,0],[3,2],[14,2]]},{"id":"A0","category":["unlabeled","arrowDescriptor","InterObjectLinkage"],"group_n":[[0,0],[2,1],[13,2]]},{"id":"A3","category":["unlabeled","arrowDescriptor","InterObjectLinkage"],"group_n":[[0,0],[5,1],[17,2]]},{"id":"A2","category":["unlabeled","arrowDescriptor","InterObjectLinkage"],"group_n":[[0,0],[4,2],[16,2]]},{"id":"A5","category":["unlabeled","InterObjectLinkage"],"group_n":[[0,0],[12,2]]},{"id":"A6","category":["unlabeled","arrowDescriptor","InterObjectLinkage"],"group_n":[[0,0],[6,2],[18,2]]},{"id":"T8","category":["unlabeled","IntraObjectLabel"],"group_n":[[0,0],[8,1]]},{"id":"T9","category":["unlabeled","IntraObjectLabel"],"group_n":[[0,0],[9,1]]},{"id":"T6","category":["unlabeled","arrowDescriptor"],"group_n":[[0,0],[5,2]]},{"id":"T7","category":["unlabeled","IntraObjectLabel"],"group_n":[[0,0],[15,1]]},{"id":"T4","category":["unlabeled","arrowDescriptor"],"group_n":[[0,0],[3,1]]},{"id":"T5","category":["unlabeled","arrowDescriptor"],"group_n":[[0,0],[4,1]]},{"id":"T2","category":["unlabeled","arrowDescriptor"],"group_n":[[0,0],[2,2]]},{"id":"T3","category":["unlabeled","InterObjectLinkage","InterObjectLinkage","InterObjectLinkage","InterObjectLinkage"],"group_n":[[0,0],[13,3],[14,1],[16,3],[17,1]]},{"id":"T0","category":["unlabeled","imageTitle"],"group_n":[[0,0],[1,1]]},{"id":"T1","category":["unlabeled","IntraObjectLabel"],"group_n":[[0,0],[7,1]]},{"id":"B4","category":["unlabeled","InterObjectLinkage","IntraObjectLabel","InterObjectLinkage","InterObjectLinkage"],"group_n":[[0,0],[14,3],[15,2],[16,1],[18,1]]},{"id":"B5","category":["unlabeled","IntraObjectLabel","InterObjectLinkage","InterObjectLinkage"],"group_n":[[0,0],[8,2],[12,1],[18,3]]},{"id":"B6","category":["unlabeled","IntraObjectLabel","IntraObjectLabel"],"group_n":[[0,0],[9,2],[11,4]]},{"id":"B7","category":["unlabeled","IntraObjectLabel","IntraObjectLabel","InterObjectLinkage"],"group_n":[[0,0],[10,2],[11,2],[17,3]]},{"id":"B0","category":["unlabeled","IntraObjectLabel"],"group_n":[[0,0],[7,2]]},{"id":"B1","category":["unlabeled"],"group_n":[[0,0]]},{"id":"B2","category":["unlabeled"],"group_n":[[0,0]]},{"id":"B3","category":["unlabeled","InterObjectLinkage","InterObjectLinkage"],"group_n":[[0,0],[12,3],[13,1]]},{"id":"B8","category":["unlabeled"],"group_n":[[0,0]]},{"id":"B9","category":["unlabeled"],"group_n":[[0,0]]}]
p35
asg29
Vresults
p36
sbatp37
Rp38
(dp39
S'status'
p40
I01
sS'version_id_marker'
p41
NsS'next_version_id_marker'
p42
NsS'markers'
p43
(lp44
(S'Answer'
p45
g22
tp46
asS'next_key_marker'
p47
NsS'next_upload_id_marker'
p48
NsS'is_truncated'
p49
I00
sS'key_marker'
p50
NsS'next_generation_marker'
p51
NsS'marker'
p52
NsS'next_marker'
p53
NsS'QuestionFormAnswers'
p54
V\u000a
p55
sS'next_token'
p56
NsbasS'AcceptTime'
p57
V2016-07-20T00:30:22Z
p58
sS'HITId'
p59
V3B9J25CZ25EQ1LXOP9V49MUP6O2SCK
p60
sS'Assignment'
p61
S''
p62
sS'AssignmentStatus'
p63
VSubmitted
p64
sS'SubmitTime'
p65
V2016-07-20T00:35:14Z
p66
sbasV3JHB4BPSFKACQ7B8LLW8CWEGIFEQ9C
p67
(lp68
g6
(g7
g8
Ntp69
Rp70
(dp71
g12
V2016-08-19T00:56:32Z
p72
sg14
V3WJ1OXY92AHNC6JBHZYABKZH8G88AS
p73
sg16
VAO235WMFCB1D9
p74
sg18
(lp75
g6
(g20
g1
(lp76
g6
(g22
g8
Ntp77
Rp78
(dp79
g26
(lp80
V73.png
p81
asg29
Vimage_id
p82
sbag6
(g22
g8
Ntp83
Rp84
(dp85
g26
(lp86
V[{"id":"A1","category":["unlabeled","arrowDescriptor","InterObjectLinkage"],"group_n":[[0,0],[4,2],[7,2]]},{"id":"A0","category":["unlabeled","arrowDescriptor","InterObjectLinkage"],"group_n":[[0,0],[3,2],[8,2]]},{"id":"T4","category":["unlabeled","arrowDescriptor"],"group_n":[[0,0],[1,1]]},{"id":"A4","category":["unlabeled","arrowDescriptor","InterObjectLinkage"],"group_n":[[0,0],[5,2],[9,2]]},{"id":"T2","category":["unlabeled","arrowDescriptor","arrowDescriptor"],"group_n":[[0,0],[5,1],[6,1]]},{"id":"T3","category":["unlabeled","arrowDescriptor"],"group_n":[[0,0],[2,1]]},{"id":"T0","category":["unlabeled","arrowDescriptor"],"group_n":[[0,0],[3,1]]},{"id":"T1","category":["unlabeled","arrowDescriptor"],"group_n":[[0,0],[4,1]]},{"id":"B4","category":["unlabeled","InterObjectLinkage","InterObjectLinkage"],"group_n":[[0,0],[11,1],[12,3]]},{"id":"B5","category":["unlabeled","InterObjectLinkage","InterObjectLinkage"],"group_n":[[0,0],[9,3],[10,3]]},{"id":"B6","category":["unlabeled","InterObjectLinkage","InterObjectLinkage"],"group_n":[[0,0],[7,3],[8,1]]},{"id":"B7","category":["unlabeled","InterObjectLinkage","InterObjectLinkage"],"group_n":[[0,0],[11,3],[12,1]]},{"id":"B0","category":["unlabeled","InterObjectLinkage","InterObjectLinkage"],"group_n":[[0,0],[7,1],[8,3]]},{"id":"B1","category":["unlabeled"],"group_n":[[0,0]]},{"id":"B2","category":["unlabeled"],"group_n":[[0,0]]},{"id":"B3","category":["unlabeled"],"group_n":[[0,0]]},{"id":"A5","category":["unlabeled","arrowDescriptor","InterObjectLinkage"],"group_n":[[0,0],[6,2],[10,2]]},{"id":"B8","category":["unlabeled"],"group_n":[[0,0]]},{"id":"A2","category":["unlabeled","arrowDescriptor","InterObjectLinkage"],"group_n":[[0,0],[2,2],[12,2]]},{"id":"G0","category":["unlabeled","InterObjectLinkage","InterObjectLinkage"],"group_n":[[0,0],[9,1],[10,1]]},{"id":"A3","category":["unlabeled","arrowDescriptor","InterObjectLinkage"],"group_n":[[0,0],[1,2],[11,2]]}]
p87
asg29
Vresults
p88
sbatp89
Rp90
(dp91
g40
I01
sg41
Nsg42
Nsg43
(lp92
(g45
g22
tp93
asg47
Nsg48
Nsg49
I00
sg50
Nsg51
Nsg52
Nsg53
Nsg54
V\u000a
p94
sg56
Nsbasg57
V2016-07-20T00:53:50Z
p95
sg59
V3JHB4BPSFKACQ7B8LLW8CWEGIFEQ9C
p96
sg61
g62
sg63
VSubmitted
p97
sg65
V2016-07-20T00:56:32Z
p98
sbasV3M0556243SL0OKPT8F4JIY5MG2MNFE
p99
(lp100
g6
(g7
g8
Ntp101
Rp102
(dp103
g12
V2016-08-19T23:21:43Z
p104
sg14
V3H7Z272LX78PEH9W07PB6KAIR28LP8
p105
sg16
VAO235WMFCB1D9
p106
sg18
(lp107
g6
(g20
g1
(lp108
g6
(g22
g8
Ntp109
Rp110
(dp111
g26
(lp112
V61.png
p113
asg29
Vimage_id
p114
sbag6
(g22
g8
Ntp115
Rp116
(dp117
g26
(lp118
V[{"id":"T10","category":["unlabeled","intraObjectRegionLabel"],"group_n":[[0,0],[7,1]]},{"id":"T11","category":["unlabeled","arrowDescriptor"],"group_n":[[0,0],[3,2]]},{"id":"A10","category":["unlabeled"],"group_n":[[0,0]]},{"id":"G0","category":["unlabeled","InterObjectLinkage","InterObjectLinkage","InterObjectLinkage"],"group_n":[[0,0],[11,3],[12,3],[13,3]]},{"id":"A1","category":["unlabeled","arrowDescriptor"],"group_n":[[0,0],[15,1]]},{"id":"A0","category":["unlabeled","arrowDescriptor","InterObjectLinkage"],"group_n":[[0,0],[3,1],[14,2]]},{"id":"A3","category":["unlabeled","arrowDescriptor","InterObjectLinkage"],"group_n":[[0,0],[6,1],[13,2]]},{"id":"A2","category":["unlabeled","arrowDescriptor"],"group_n":[[0,0],[16,2]]},{"id":"A5","category":["unlabeled","arrowDescriptor","InterObjectLinkage"],"group_n":[[0,0],[4,2],[11,2]]},{"id":"A4","category":["unlabeled","arrowDescriptor","InterObjectLinkage"],"group_n":[[0,0],[5,2],[12,2]]},{"id":"A7","category":["unlabeled","InterObjectLinkage"],"group_n":[[0,0],[10,2]]},{"id":"A6","category":["unlabeled"],"group_n":[[0,0]]},{"id":"A9","category":["unlabeled"],"group_n":[[0,0]]},{"id":"A8","category":["unlabeled"],"group_n":[[0,0]]},{"id":"T8","category":["unlabeled","arrowDescriptor"],"group_n":[[0,0],[4,1]]},{"id":"T9","category":["unlabeled","IntraObjectLabel"],"group_n":[[0,0],[9,1]]},{"id":"T6","category":["unlabeled","InterObjectLinkage"],"group_n":[[0,0],[10,3]]},{"id":"T7","category":["unlabeled","InterObjectLinkage"],"group_n":[[0,0],[10,1]]},{"id":"T4","category":["unlabeled","intraObjectRegionLabel"],"group_n":[[0,0],[8,1]]},{"id":"T5","category":["unlabeled","IntraObjectLabel"],"group_n":[[0,0],[2,1]]},{"id":"T2","category":["unlabeled","arrowDescriptor","arrowDescriptor"],"group_n":[[0,0],[15,2],[16,1]]},{"id":"T3","category":["unlabeled","arrowDescriptor"],"group_n":[[0,0],[5,1]]},{"id":"T0","category":["unlabeled","IntraObjectLabel"],"group_n":[[0,0],[1,2]]},{"id":"T1","category":["unlabeled","arrowDescriptor"],"group_n":[[0,0],[6,2]]},{"id":"B4","category":["unlabeled","IntraObjectLabel","InterObjectLinkage"],"group_n":[[0,0],[9,2],[14,3]]},{"id":"B5","category":["unlabeled","InterObjectLinkage"],"group_n":[[0,0],[11,1]]},{"id":"B6","category":["unlabeled","InterObjectLinkage"],"group_n":[[0,0],[12,1]]},{"id":"B7","category":["unlabeled","InterObjectLinkage"],"group_n":[[0,0],[13,1]]},{"id":"B0","category":["unlabeled","IntraObjectLabel","InterObjectLinkage"],"group_n":[[0,0],[1,1],[14,1]]},{"id":"B1","category":["unlabeled"],"group_n":[[0,0]]},{"id":"B2","category":["unlabeled","intraObjectRegionLabel","intraObjectRegionLabel"],"group_n":[[0,0],[7,2],[8,2]]},{"id":"B3","category":["unlabeled","IntraObjectLabel"],"group_n":[[0,0],[2,2]]}]
p119
asg29
Vresults
p120
sbatp121
Rp122
(dp123
g40
I01
sg41
Nsg42
Nsg43
(lp124
(g45
g22
tp125
asg47
Nsg48
Nsg49
I00
sg50
Nsg51
Nsg52
Nsg53
Nsg54
V\u000a
p126
sg56
Nsbasg57
V2016-07-20T23:12:27Z
p127
sg59
V3M0556243SL0OKPT8F4JIY5MG2MNFE
p128
sg61
g62
sg63
VSubmitted
p129
sg65
V2016-07-20T23:21:43Z
p130
sbasV3VAOOVPI3ZTW0CW4IDR20J6H838LLF
p131
(lp132
g6
(g7
g8
Ntp133
Rp134
(dp135
g12
V2016-08-19T01:11:31Z
p136
sg14
V3GS6S824SQY5MQ9IO6JLB6M3PU9WNE
p137
sg16
VAO235WMFCB1D9
p138
sg18
(lp139
g6
(g20
g1
(lp140
g6
(g22
g8
Ntp141
Rp142
(dp143
g26
(lp144
V77.png
p145
asg29
Vimage_id
p146
sbag6
(g22
g8
Ntp147
Rp148
(dp149
g26
(lp150
V[{"id":"T10","category":["unlabeled","IntraObjectLabel"],"group_n":[[0,0],[8,1]]},{"id":"G0","category":["unlabeled","InterObjectLinkage","InterObjectLinkage","InterObjectLinkage"],"group_n":[[0,0],[12,3],[13,3],[14,3]]},{"id":"A1","category":["unlabeled","arrowDescriptor","InterObjectLinkage"],"group_n":[[0,0],[4,2],[14,2]]},{"id":"A0","category":["unlabeled","arrowDescriptor","InterObjectLinkage"],"group_n":[[0,0],[5,1],[12,2]]},{"id":"A3","category":["unlabeled","arrowDescriptor"],"group_n":[[0,0],[9,3]]},{"id":"A2","category":["unlabeled","arrowDescriptor","InterObjectLinkage"],"group_n":[[0,0],[3,2],[13,2]]},{"id":"A5","category":["unlabeled"],"group_n":[[0,0]]},{"id":"A4","category":["unlabeled"],"group_n":[[0,0]]},{"id":"A7","category":["unlabeled"],"group_n":[[0,0]]},{"id":"A6","category":["unlabeled","arrowDescriptor","InterObjectLinkage"],"group_n":[[0,0],[2,2],[11,2]]},{"id":"T8","category":["unlabeled","arrowDescriptor"],"group_n":[[0,0],[2,1]]},{"id":"T9","category":["unlabeled","sectionTitle"],"group_n":[[0,0],[10,1]]},{"id":"T6","category":["unlabeled","IntraObjectLabel","arrowDescriptor"],"group_n":[[0,0],[9,1],[9,2]]},{"id":"T7","category":["unlabeled","IntraObjectLabel"],"group_n":[[0,0],[6,1]]},{"id":"T4","category":["unlabeled","IntraObjectLabel"],"group_n":[[0,0],[7,1]]},{"id":"T5","category":["unlabeled"],"group_n":[[0,0]]},{"id":"T2","category":["unlabeled","arrowDescriptor"],"group_n":[[0,0],[4,1]]},{"id":"T3","category":["unlabeled","arrowDescriptor"],"group_n":[[0,0],[3,1]]},{"id":"T0","category":["unlabeled","imageTitle"],"group_n":[[0,0],[1,1]]},{"id":"T1","category":["unlabeled","arrowDescriptor"],"group_n":[[0,0],[5,2]]},{"id":"B4","category":["unlabeled","InterObjectLinkage"],"group_n":[[0,0],[12,1]]},{"id":"B0","category":["unlabeled","InterObjectLinkage"],"group_n":[[0,0],[11,1]]},{"id":"B1","category":["unlabeled","IntraObjectLabel","IntraObjectLabel","InterObjectLinkage"],"group_n":[[0,0],[6,2],[8,2],[11,3]]},{"id":"B2","category":["unlabeled","InterObjectLinkage"],"group_n":[[0,0],[13,1]]},{"id":"B3","category":["unlabeled","IntraObjectLabel","InterObjectLinkage"],"group_n":[[0,0],[7,2],[14,1]]}]
p151
asg29
Vresults
p152
sbatp153
Rp154
(dp155
g40
I01
sg41
Nsg42
Nsg43
(lp156
(g45
g22
tp157
asg47
Nsg48
Nsg49
I00
sg50
Nsg51
Nsg52
Nsg53
Nsg54
V\u000a
p158
sg56
Nsbasg57
V2016-07-20T01:05:10Z
p159
sg59
V3VAOOVPI3ZTW0CW4IDR20J6H838LLF
p160
sg61
g62
sg63
VSubmitted
p161
sg65
V2016-07-20T01:11:31Z
p162
sbasV30U1YOGZGAX06D32P5QFTSC7ROESDK
p163
(lp164
g6
(g7
g8
Ntp165
Rp166
(dp167
g12
V2016-08-19T22:24:49Z
p168
sg14
V3COPXFW7XBDEUBREF7DARKX3223PK9
p169
sg16
VAO235WMFCB1D9
p170
sg18
(lp171
g6
(g20
g1
(lp172
g6
(g22
g8
Ntp173
Rp174
(dp175
g26
(lp176
V66.png
p177
asg29
Vimage_id
p178
sbag6
(g22
g8
Ntp179
Rp180
(dp181
g26
(lp182
V[{"id":"G0","category":["unlabeled"],"group_n":[[0,0]]},{"id":"A1","category":["unlabeled","arrowDescriptor","InterObjectLinkage"],"group_n":[[0,0],[6,2],[15,2]]},{"id":"A0","category":["unlabeled","arrowDescriptor","InterObjectLinkage"],"group_n":[[0,0],[1,2],[11,2]]},{"id":"A3","category":["unlabeled","arrowDescriptor","InterObjectLinkage"],"group_n":[[0,0],[3,2],[14,2]]},{"id":"A2","category":["unlabeled","arrowDescriptor","InterObjectLinkage"],"group_n":[[0,0],[2,2],[16,2]]},{"id":"A5","category":["unlabeled","arrowDescriptor","InterObjectLinkage"],"group_n":[[0,0],[5,2],[13,2]]},{"id":"A4","category":["unlabeled","arrowDescriptor","InterObjectLinkage"],"group_n":[[0,0],[4,2],[12,2]]},{"id":"A7","category":["unlabeled","arrowDescriptor","InterObjectLinkage"],"group_n":[[0,0],[8,2],[19,2]]},{"id":"A6","category":["unlabeled","arrowDescriptor","InterObjectLinkage"],"group_n":[[0,0],[7,2],[18,2]]},{"id":"A8","category":["unlabeled","arrowDescriptor","InterObjectLinkage"],"group_n":[[0,0],[9,2],[20,2]]},{"id":"T8","category":["unlabeled","IntraObjectLabel"],"group_n":[[0,0],[10,1]]},{"id":"T6","category":["unlabeled","arrowDescriptor"],"group_n":[[0,0],[4,1]]},{"id":"T7","category":["unlabeled","arrowDescriptor","arrowDescriptor","arrowDescriptor"],"group_n":[[0,0],[7,1],[8,1],[9,1]]},{"id":"T4","category":["unlabeled","arrowDescriptor"],"group_n":[[0,0],[6,1]]},{"id":"T5","category":["unlabeled","arrowDescriptor"],"group_n":[[0,0],[5,1]]},{"id":"T2","category":["unlabeled","arrowDescriptor"],"group_n":[[0,0],[2,1]]},{"id":"T3","category":["unlabeled","IntraObjectLabel"],"group_n":[[0,0],[17,1]]},{"id":"T0","category":["unlabeled","arrowDescriptor"],"group_n":[[0,0],[3,1]]},{"id":"T1","category":["unlabeled","arrowDescriptor"],"group_n":[[0,0],[1,1]]},{"id":"B4","category":["unlabeled","InterObjectLinkage","InterObjectLinkage","InterObjectLinkage","InterObjectLinkage","InterObjectLinkage","InterObjectLinkage"],"group_n":[[0,0],[11,3],[12,1],[16,1],[18,1],[19,1],[20,1]]},{"id":"B5","category":["unlabeled","InterObjectLinkage","InterObjectLinkage"],"group_n":[[0,0],[13,3],[14,1]]},{"id":"B6","category":["unlabeled","InterObjectLinkage"],"group_n":[[0,0],[11,1]]},{"id":"B7","category":["unlabeled"],"group_n":[[0,0]]},{"id":"B0","category":["unlabeled","InterObjectLinkage","InterObjectLinkage","InterObjectLinkage"],"group_n":[[0,0],[18,3],[19,3],[20,3]]},{"id":"B1","category":["unlabeled","IntraObjectLabel"],"group_n":[[0,0],[10,2]]},{"id":"B2","category":["unlabeled","InterObjectLinkage","InterObjectLinkage"],"group_n":[[0,0],[12,3],[13,1]]},{"id":"B3","category":["unlabeled","InterObjectLinkage","IntraObjectLabel"],"group_n":[[0,0],[15,1],[17,2]]},{"id":"B8","category":["unlabeled","InterObjectLinkage","InterObjectLinkage","InterObjectLinkage"],"group_n":[[0,0],[14,3],[15,3],[16,3]]},{"id":"B9","category":["unlabeled"],"group_n":[[0,0]]}]
p183
asg29
Vresults
p184
sbatp185
Rp186
(dp187
g40
I01
sg41
Nsg42
Nsg43
(lp188
(g45
g22
tp189
asg47
Nsg48
Nsg49
I00
sg50
Nsg51
Nsg52
Nsg53
Nsg54
V\u000a
p190
sg56
Nsbasg57
V2016-07-20T21:59:58Z
p191
sg59
V30U1YOGZGAX06D32P5QFTSC7ROESDK
p192
sg61
g62
sg63
VSubmitted
p193
sg65
V2016-07-20T22:24:49Z
p194
sbasV3P4C70TRMRIGEKI37MUMNR19CMMLG9
p195
(lp196
g6
(g7
g8
Ntp197
Rp198
(dp199
g12
V2016-08-19T01:01:54Z
p200
sg14
V3WQQ9FUS6AVSVGO3NDY66VJNQYT8BN
p201
sg16
VAO235WMFCB1D9
p202
sg18
(lp203
g6
(g20
g1
(lp204
g6
(g22
g8
Ntp205
Rp206
(dp207
g26
(lp208
V65.png
p209
asg29
Vimage_id
p210
sbag6
(g22
g8
Ntp211
Rp212
(dp213
g26
(lp214
V[{"id":"T10","category":["unlabeled","arrowDescriptor"],"group_n":[[0,0],[3,2]]},{"id":"A11","category":["unlabeled","IntraObjectLoop"],"group_n":[[0,0],[18,2]]},{"id":"A10","category":["unlabeled","IntraObjectLoop"],"group_n":[[0,0],[19,2]]},{"id":"A1","category":["unlabeled","arrowDescriptor"],"group_n":[[0,0],[3,1]]},{"id":"A0","category":["unlabeled","arrowDescriptor","InterObjectLinkage"],"group_n":[[0,0],[1,2],[12,2]]},{"id":"A3","category":["unlabeled","InterObjectLinkage"],"group_n":[[0,0],[9,2]]},{"id":"A2","category":["unlabeled","arrowDescriptor","InterObjectLinkage"],"group_n":[[0,0],[2,1],[11,2]]},{"id":"A5","category":["unlabeled","InterObjectLinkage"],"group_n":[[0,0],[8,2]]},{"id":"A4","category":["unlabeled","InterObjectLinkage"],"group_n":[[0,0],[8,5]]},{"id":"A7","category":["unlabeled","arrowDescriptor","InterObjectLinkage"],"group_n":[[0,0],[4,1],[13,2]]},{"id":"A6","category":["unlabeled","InterObjectLinkage"],"group_n":[[0,0],[10,2]]},{"id":"A9","category":["unlabeled","arrowDescriptor","InterObjectLinkage"],"group_n":[[0,0],[6,2],[15,2]]},{"id":"A8","category":["unlabeled","arrowDescriptor","InterObjectLinkage"],"group_n":[[0,0],[5,2],[14,2]]},{"id":"T8","category":["unlabeled","InterObjectLinkage","InterObjectLinkage","InterObjectLinkage","InterObjectLinkage","InterObjectLinkage"],"group_n":[[0,0],[8,3],[8,6],[9,1],[10,3],[13,1]]},{"id":"T9","category":["unlabeled","arrowDescriptor","arrowDescriptor"],"group_n":[[0,0],[1,1],[2,2]]},{"id":"T6","category":["unlabeled","intraObjectRegionLabel"],"group_n":[[0,0],[16,1]]},{"id":"T7","category":["unlabeled","intraObjectRegionLabel"],"group_n":[[0,0],[17,1]]},{"id":"T4","category":["unlabeled","arrowDescriptor"],"group_n":[[0,0],[5,1]]},{"id":"T5","category":["unlabeled","arrowDescriptor"],"group_n":[[0,0],[6,1]]},{"id":"T2","category":["unlabeled","InterObjectLinkage","InterObjectLinkage","InterObjectLinkage","InterObjectLinkage","InterObjectLinkage"],"group_n":[[0,0],[11,3],[12,1],[13,3],[14,3],[15,3]]},{"id":"T3","category":["unlabeled","arrowDescriptor"],"group_n":[[0,0],[4,2]]},{"id":"T0","category":["unlabeled","imageTitle"],"group_n":[[0,0],[7,1]]},{"id":"T1","category":["unlabeled"],"group_n":[[0,0]]},{"id":"B4","category":["unlabeled"],"group_n":[[0,0]]},{"id":"B5","category":["unlabeled","InterObjectLinkage"],"group_n":[[0,0],[9,3]]},{"id":"B6","category":["unlabeled"],"group_n":[[0,0]]},{"id":"B7","category":["unlabeled"],"group_n":[[0,0]]},{"id":"B0","category":["unlabeled","InterObjectLinkage","InterObjectLinkage","InterObjectLinkage","InterObjectLinkage"],"group_n":[[0,0],[8,1],[8,4],[11,1],[12,3]]},{"id":"B1","category":["unlabeled"],"group_n":[[0,0]]},{"id":"B2","category":["unlabeled","InterObjectLinkage","InterObjectLinkage"],"group_n":[[0,0],[10,1],[14,1]]},{"id":"B3","category":["unlabeled","InterObjectLinkage","intraObjectRegionLabel","intraObjectRegionLabel","IntraObjectLoop","IntraObjectLoop"],"group_n":[[0,0],[15,1],[16,2],[17,2],[18,1],[19,1]]},{"id":"B8","category":["unlabeled"],"group_n":[[0,0]]},{"id":"B9","category":["unlabeled"],"group_n":[[0,0]]}]
p215
asg29
Vresults
p216
sbatp217
Rp218
(dp219
g40
I01
sg41
Nsg42
Nsg43
(lp220
(g45
g22
tp221
asg47
Nsg48
Nsg49
I00
sg50
Nsg51
Nsg52
Nsg53
Nsg54
V\u000a
p222
sg56
Nsbasg57
V2016-07-20T00:56:36Z
p223
sg59
V3P4C70TRMRIGEKI37MUMNR19CMMLG9
p224
sg61
g62
sg63
VSubmitted
p225
sg65
V2016-07-20T01:01:54Z
p226
sbasV3XABXM4AJ16CC2SYGTQUC0J5Y9WQ8N
p227
(lp228
g6
(g7
g8
Ntp229
Rp230
(dp231
g12
V2016-08-19T00:53:40Z
p232
sg14
V3M0NZ3JDP1Z5QW8HVT76GTGZFBE5ZO
p233
sg16
VAO235WMFCB1D9
p234
sg18
(lp235
g6
(g20
g1
(lp236
g6
(g22
g8
Ntp237
Rp238
(dp239
g26
(lp240
V70.png
p241
asg29
Vimage_id
p242
sbag6
(g22
g8
Ntp243
Rp244
(dp245
g26
(lp246
V[{"id":"T6","category":["unlabeled","InterObjectLinkage","InterObjectLinkage"],"group_n":[[0,0],[6,3],[7,1]]},{"id":"T4","category":["unlabeled","InterObjectLinkage","InterObjectLinkage","InterObjectLinkage"],"group_n":[[0,0],[5,3],[6,1],[8,1]]},{"id":"T5","category":["unlabeled","InterObjectLinkage","InterObjectLinkage"],"group_n":[[0,0],[2,1],[7,3]]},{"id":"T2","category":["unlabeled","InterObjectLinkage","InterObjectLinkage","InterObjectLinkage"],"group_n":[[0,0],[2,3],[3,1],[8,3]]},{"id":"T3","category":["unlabeled","InterObjectLinkage","InterObjectLinkage"],"group_n":[[0,0],[4,3],[5,1]]},{"id":"T0","category":["unlabeled","imageTitle"],"group_n":[[0,0],[1,1]]},{"id":"T1","category":["unlabeled","InterObjectLinkage","InterObjectLinkage"],"group_n":[[0,0],[3,3],[4,1]]},{"id":"A1","category":["unlabeled","InterObjectLinkage"],"group_n":[[0,0],[5,2]]},{"id":"A0","category":["unlabeled","InterObjectLinkage"],"group_n":[[0,0],[4,2]]},{"id":"A3","category":["unlabeled","InterObjectLinkage"],"group_n":[[0,0],[6,2]]},{"id":"A5","category":["unlabeled","InterObjectLinkage"],"group_n":[[0,0],[2,2]]},{"id":"A4","category":["unlabeled","InterObjectLinkage"],"group_n":[[0,0],[7,2]]},{"id":"A7","category":["unlabeled","InterObjectLinkage"],"group_n":[[0,0],[3,2]]},{"id":"A6","category":["unlabeled","InterObjectLinkage"],"group_n":[[0,0],[8,2]]}]
p247
asg29
Vresults
p248
sbatp249
Rp250
(dp251
g40
I01
sg41
Nsg42
Nsg43
(lp252
(g45
g22
tp253
asg47
Nsg48
Nsg49
I00
sg50
Nsg51
Nsg52
Nsg53
Nsg54
V\u000a
p254
sg56
Nsbasg57
V2016-07-20T00:53:12Z
p255
sg59
V3XABXM4AJ16CC2SYGTQUC0J5Y9WQ8N
p256
sg61
g62
sg63
VSubmitted
p257
sg65
V2016-07-20T00:53:40Z
p258
sbasV3LCXHSGDLT75YJH2L01ZZAUSR0FSED
p259
(lp260
g6
(g7
g8
Ntp261
Rp262
(dp263
g12
V2016-08-19T01:05:07Z
p264
sg14
V3RSDURM96AN5HPR5A8YQ6GDAMA8YEQ
p265
sg16
VAO235WMFCB1D9
p266
sg18
(lp267
g6
(g20
g1
(lp268
g6
(g22
g8
Ntp269
Rp270
(dp271
g26
(lp272
V78.png
p273
asg29
Vimage_id
p274
sbag6
(g22
g8
Ntp275
Rp276
(dp277
g26
(lp278
V[{"id":"A14","category":["unlabeled","arrowDescriptor","InterObjectLinkage"],"group_n":[[0,0],[3,1],[18,2]]},{"id":"A11","category":["unlabeled","InterObjectLinkage"],"group_n":[[0,0],[12,2]]},{"id":"A10","category":["unlabeled","InterObjectLinkage"],"group_n":[[0,0],[11,2]]},{"id":"A13","category":["unlabeled","arrowDescriptor","InterObjectLinkage"],"group_n":[[0,0],[1,2],[13,2]]},{"id":"A12","category":["unlabeled","arrowDescriptor","InterObjectLinkage"],"group_n":[[0,0],[2,2],[14,2]]},{"id":"A1","category":["unlabeled","InterObjectLinkage"],"group_n":[[0,0],[10,2]]},{"id":"A0","category":["unlabeled","InterObjectLinkage"],"group_n":[[0,0],[9,2]]},{"id":"A2","category":["unlabeled","InterObjectLinkage"],"group_n":[[0,0],[17,2]]},{"id":"A5","category":["unlabeled","InterObjectLinkage"],"group_n":[[0,0],[15,2]]},{"id":"A6","category":["unlabeled","InterObjectLinkage","InterObjectLinkage"],"group_n":[[0,0],[16,2],[16,3]]},{"id":"T8","category":["unlabeled","IntraObjectLabel"],"group_n":[[0,0],[8,1]]},{"id":"T9","category":["unlabeled","InterObjectLinkage","InterObjectLinkage","InterObjectLinkage"],"group_n":[[0,0],[9,1],[10,3],[11,1]]},{"id":"T6","category":["unlabeled","IntraObjectLabel"],"group_n":[[0,0],[7,1]]},{"id":"T7","category":["unlabeled","IntraObjectLabel"],"group_n":[[0,0],[6,1]]},{"id":"T4","category":["unlabeled","arrowDescriptor"],"group_n":[[0,0],[1,1]]},{"id":"T5","category":["unlabeled","arrowDescriptor"],"group_n":[[0,0],[2,1]]},{"id":"T2","category":["unlabeled","IntraObjectLabel"],"group_n":[[0,0],[4,1]]},{"id":"T3","category":["unlabeled","arrowDescriptor"],"group_n":[[0,0],[3,2]]},{"id":"T0","category":["unlabeled","IntraObjectLabel"],"group_n":[[0,0],[5,3]]},{"id":"T1","category":["unlabeled","IntraObjectLabel"],"group_n":[[0,0],[5,1]]},{"id":"B4","category":["unlabeled","IntraObjectLabel","IntraObjectLabel","InterObjectLinkage","InterObjectLinkage","InterObjectLinkage","InterObjectLinkage","InterObjectLinkage","InterObjectLinkage"],"group_n":[[0,0],[5,2],[5,4],[13,3],[14,3],[15,1],[16,4],[17,1],[18,3]]},{"id":"B5","category":["unlabeled","IntraObjectLabel","InterObjectLinkage","InterObjectLinkage"],"group_n":[[0,0],[4,2],[10,1],[17,3]]},{"id":"B0","category":["unlabeled","IntraObjectLabel","InterObjectLinkage","InterObjectLinkage"],"group_n":[[0,0],[8,2],[11,3],[12,1]]},{"id":"B1","category":["unlabeled","IntraObjectLabel","InterObjectLinkage","InterObjectLinkage","InterObjectLinkage"],"group_n":[[0,0],[6,2],[12,3],[13,1],[14,1]]},{"id":"B2","category":["unlabeled","InterObjectLinkage","InterObjectLinkage"],"group_n":[[0,0],[9,3],[18,1]]},{"id":"B3","category":["unlabeled","IntraObjectLabel","InterObjectLinkage","InterObjectLinkage"],"group_n":[[0,0],[7,2],[15,3],[16,1]]}]
p279
asg29
Vresults
p280
sbatp281
Rp282
(dp283
g40
I01
sg41
Nsg42
Nsg43
(lp284
(g45
g22
tp285
asg47
Nsg48
Nsg49
I00
sg50
Nsg51
Nsg52
Nsg53
Nsg54
V\u000a
p286
sg56
Nsbasg57
V2016-07-20T01:02:50Z
p287
sg59
V3LCXHSGDLT75YJH2L01ZZAUSR0FSED
p288
sg61
g62
sg63
VSubmitted
p289
sg65
V2016-07-20T01:05:07Z
p290
sbasV3OLZC0DJ8JGX6G0SBEWVVCCRIXGIVH
p291
(lp292
g6
(g7
g8
Ntp293
Rp294
(dp295
g12
V2016-08-19T00:45:30Z
p296
sg14
V34FNN24DCMA5L6YCZ75N2M7X9HA5YX
p297
sg16
VAO235WMFCB1D9
p298
sg18
(lp299
g6
(g20
g1
(lp300
g6
(g22
g8
Ntp301
Rp302
(dp303
g26
(lp304
V64.png
p305
asg29
Vimage_id
p306
sbag6
(g22
g8
Ntp307
Rp308
(dp309
g26
(lp310
V[{"id":"T10","category":["unlabeled","InterObjectLinkage","InterObjectLinkage"],"group_n":[[0,0],[9,1],[12,3]]},{"id":"T11","category":["unlabeled","IntraObjectLabel"],"group_n":[[0,0],[2,3]]},{"id":"T12","category":["unlabeled","IntraObjectLabel"],"group_n":[[0,0],[2,1]]},{"id":"A1","category":["unlabeled","InterObjectLinkage"],"group_n":[[0,0],[12,2]]},{"id":"A0","category":["unlabeled","InterObjectLinkage","arrowDescriptor"],"group_n":[[0,0],[8,2],[16,2]]},{"id":"A3","category":["unlabeled","InterObjectLinkage"],"group_n":[[0,0],[10,2]]},{"id":"A2","category":["unlabeled","InterObjectLinkage"],"group_n":[[0,0],[11,2]]},{"id":"A5","category":["unlabeled","InterObjectLinkage"],"group_n":[[0,0],[15,2]]},{"id":"A4","category":["unlabeled","InterObjectLinkage"],"group_n":[[0,0],[9,2]]},{"id":"A7","category":["unlabeled","InterObjectLinkage"],"group_n":[[0,0],[14,2]]},{"id":"A6","category":["unlabeled","InterObjectLinkage"],"group_n":[[0,0],[13,2]]},{"id":"T8","category":["unlabeled","IntraObjectLabel"],"group_n":[[0,0],[4,2]]},{"id":"T9","category":["unlabeled","InterObjectLinkage","InterObjectLinkage","InterObjectLinkage"],"group_n":[[0,0],[10,1],[11,3],[12,1]]},{"id":"T6","category":["unlabeled","IntraObjectLabel","InterObjectLinkage"],"group_n":[[0,0],[3,1],[15,1]]},{"id":"T7","category":["unlabeled","IntraObjectLabel"],"group_n":[[0,0],[1,1]]},{"id":"T4","category":["unlabeled","InterObjectLinkage","InterObjectLinkage","InterObjectLinkage","InterObjectLinkage","InterObjectLinkage"],"group_n":[[0,0],[10,3],[11,1],[13,3],[14,1],[15,3]]},{"id":"T5","category":["unlabeled","IntraObjectLabel","InterObjectLinkage","InterObjectLinkage"],"group_n":[[0,0],[5,1],[13,1],[14,3]]},{"id":"T2","category":["unlabeled","IntraObjectLabel"],"group_n":[[0,0],[6,1]]},{"id":"T3","category":["unlabeled","IntraObjectLabel"],"group_n":[[0,0],[7,1]]},{"id":"T0","category":["unlabeled","InterObjectLinkage"],"group_n":[[0,0],[8,1]]},{"id":"T1","category":["unlabeled","arrowDescriptor"],"group_n":[[0,0],[16,1]]},{"id":"B4","category":["unlabeled","IntraObjectLabel","IntraObjectLabel"],"group_n":[[0,0],[5,2],[7,2]]},{"id":"B5","category":["unlabeled","IntraObjectLabel","InterObjectLinkage"],"group_n":[[0,0],[4,1],[8,3]]},{"id":"B6","category":["unlabeled","IntraObjectLabel","IntraObjectLabel","InterObjectLinkage"],"group_n":[[0,0],[2,2],[2,4],[9,3]]},{"id":"B7","category":["unlabeled","IntraObjectLabel","IntraObjectLabel"],"group_n":[[0,0],[1,2],[3,2]]},{"id":"B0","category":["unlabeled"],"group_n":[[0,0]]},{"id":"B1","category":["unlabeled"],"group_n":[[0,0]]},{"id":"B2","category":["unlabeled","IntraObjectLabel"],"group_n":[[0,0],[6,2]]},{"id":"B3","category":["unlabeled"],"group_n":[[0,0]]}]
p311
asg29
Vresults
p312
sbatp313
Rp314
(dp315
g40
I01
sg41
Nsg42
Nsg43
(lp316
(g45
g22
tp317
asg47
Nsg48
Nsg49
I00
sg50
Nsg51
Nsg52
Nsg53
Nsg54
V\u000a
p318
sg56
Nsbasg57
V2016-07-20T00:41:41Z
p319
sg59
V3OLZC0DJ8JGX6G0SBEWVVCCRIXGIVH
p320
sg61
g62
sg63
VSubmitted
p321
sg65
V2016-07-20T00:45:30Z
p322
sbasV3FDWKV9VCN3JPK1JR3KIRJHPLZRUMK
p323
(lp324
g6
(g7
g8
Ntp325
Rp326
(dp327
g12
V2016-08-19T00:37:09Z
p328
sg14
V3GFK2QRXX9I1W13CK6NZHPMHY9A5WY
p329
sg16
VAO235WMFCB1D9
p330
sg18
(lp331
g6
(g20
g1
(lp332
g6
(g22
g8
Ntp333
Rp334
(dp335
g26
(lp336
V72.png
p337
asg29
Vimage_id
p338
sbag6
(g22
g8
Ntp339
Rp340
(dp341
g26
(lp342
V[{"id":"A1","category":["unlabeled","InterObjectLinkage"],"group_n":[[0,0],[14,2]]},{"id":"A8","category":["unlabeled","InterObjectLinkage"],"group_n":[[0,0],[13,5]]},{"id":"A7","category":["unlabeled","InterObjectLinkage"],"group_n":[[0,0],[13,2]]},{"id":"T6","category":["unlabeled","imageTitle"],"group_n":[[0,0],[6,1]]},{"id":"T4","category":["unlabeled","IntraObjectLabel"],"group_n":[[0,0],[5,1]]},{"id":"T5","category":["unlabeled","InterObjectLinkage","InterObjectLinkage","InterObjectLinkage","InterObjectLinkage","InterObjectLinkage"],"group_n":[[0,0],[7,3],[8,1],[10,3],[11,3],[13,3]]},{"id":"T2","category":["unlabeled","IntraObjectLabel"],"group_n":[[0,0],[4,1]]},{"id":"T3","category":["unlabeled","IntraObjectLabel"],"group_n":[[0,0],[1,1]]},{"id":"T0","category":["unlabeled","IntraObjectLabel"],"group_n":[[0,0],[2,1]]},{"id":"T1","category":["unlabeled","IntraObjectLabel"],"group_n":[[0,0],[3,1]]},{"id":"B4","category":["unlabeled","IntraObjectLabel","InterObjectLinkage","InterObjectLinkage","InterObjectLinkage","InterObjectLinkage"],"group_n":[[0,0],[4,2],[8,3],[9,1],[11,1],[12,1]]},{"id":"A0","category":["unlabeled","InterObjectLinkage"],"group_n":[[0,0],[7,2]]},{"id":"A3","category":["unlabeled","InterObjectLinkage"],"group_n":[[0,0],[11,2]]},{"id":"A2","category":["unlabeled","InterObjectLinkage"],"group_n":[[0,0],[8,2]]},{"id":"B0","category":["unlabeled","IntraObjectLabel","InterObjectLinkage","InterObjectLinkage"],"group_n":[[0,0],[2,2],[7,1],[14,3]]},{"id":"B1","category":["unlabeled","IntraObjectLabel","InterObjectLinkage"],"group_n":[[0,0],[1,2],[14,1]]},{"id":"B2","category":["unlabeled","IntraObjectLabel","InterObjectLinkage","InterObjectLinkage","InterObjectLinkage"],"group_n":[[0,0],[5,2],[9,3],[10,1],[13,6]]},{"id":"B3","category":["unlabeled","IntraObjectLabel","InterObjectLinkage","InterObjectLinkage","InterObjectLinkage"],"group_n":[[0,0],[3,2],[12,3],[13,1],[13,4]]},{"id":"A9","category":["unlabeled","InterObjectLinkage"],"group_n":[[0,0],[10,2]]},{"id":"A5","category":["unlabeled","InterObjectLinkage"],"group_n":[[0,0],[12,2]]},{"id":"A6","category":["unlabeled","InterObjectLinkage"],"group_n":[[0,0],[9,2]]}]
p343
asg29
Vresults
p344
sbatp345
Rp346
(dp347
g40
I01
sg41
Nsg42
Nsg43
(lp348
(g45
g22
tp349
asg47
Nsg48
Nsg49
I00
sg50
Nsg51
Nsg52
Nsg53
Nsg54
V\u000a
p350
sg56
Nsbasg57
V2016-07-20T00:35:29Z
p351
sg59
V3FDWKV9VCN3JPK1JR3KIRJHPLZRUMK
p352
sg61
g62
sg63
VSubmitted
p353
sg65
V2016-07-20T00:37:09Z
p354
sbas.