(lp0
ccopy_reg
_reconstructor
p1
(cboto.mturk.connection
HIT
p2
c__builtin__
object
p3
Ntp4
Rp5
(dp6
S'HIT'
p7
S''
p8
sS'HITId'
p9
V3M0556243SL0OKPT8F4JIY5MG2MNFE
p10
sbag1
(g2
g3
Ntp11
Rp12
(dp13
g7
g8
sg9
V3OLZC0DJ8JGX6G0SBEWVVCCRIXGIVH
p14
sbag1
(g2
g3
Ntp15
Rp16
(dp17
g7
g8
sg9
V3P4C70TRMRIGEKI37MUMNR19CMMLG9
p18
sbag1
(g2
g3
Ntp19
Rp20
(dp21
g7
g8
sg9
V3B9J25CZ25EQ1LXOP9V49MUP6O2SCK
p22
sbag1
(g2
g3
Ntp23
Rp24
(dp25
g7
g8
sg9
V30U1YOGZGAX06D32P5QFTSC7ROESDK
p26
sbag1
(g2
g3
Ntp27
Rp28
(dp29
g7
g8
sg9
V3XABXM4AJ16CC2SYGTQUC0J5Y9WQ8N
p30
sbag1
(g2
g3
Ntp31
Rp32
(dp33
g7
g8
sg9
V3FDWKV9VCN3JPK1JR3KIRJHPLZRUMK
p34
sbag1
(g2
g3
Ntp35
Rp36
(dp37
g7
g8
sg9
V3JHB4BPSFKACQ7B8LLW8CWEGIFEQ9C
p38
sbag1
(g2
g3
Ntp39
Rp40
(dp41
g7
g8
sg9
V3VAOOVPI3ZTW0CW4IDR20J6H838LLF
p42
sbag1
(g2
g3
Ntp43
Rp44
(dp45
g7
g8
sg9
V3LCXHSGDLT75YJH2L01ZZAUSR0FSED
p46
sba.