ccollections
defaultdict
p0
(c__builtin__
list
p1
tp2
Rp3
V356TQKY9XFY26KNJKUHNZD4C9W1879
p4
(lp5
ccopy_reg
_reconstructor
p6
(cboto.mturk.connection
Assignment
p7
c__builtin__
object
p8
Ntp9
Rp10
(dp11
S'AutoApprovalTime'
p12
V2016-07-08T05:27:27Z
p13
sS'AssignmentId'
p14
V38F5OAUN5NDYMFM6D0GU0ASV6G0H79
p15
sS'WorkerId'
p16
VA3I9WD8P9RBFHR
p17
sS'answers'
p18
(lp19
g6
(cboto.resultset
ResultSet
p20
g1
(lp21
g6
(cboto.mturk.connection
QuestionFormAnswer
p22
g8
Ntp23
Rp24
(dp25
S'fields'
p26
(lp27
VDaily_Science_Grade_6_(Daily_Practice_Books)_Evan_Moor_69.jpeg
p28
asS'qid'
p29
Vimage_id
p30
sbag6
(g22
g8
Ntp31
Rp32
(dp33
g26
(lp34
V[{"id":"T14","category":"unlabeled"},{"id":"T15","category":"unlabeled"},{"id":"T16","category":"Answer"},{"id":"T17","category":"unlabeled"},{"id":"T10","category":"unlabeled"},{"id":"T11","category":"Answer"},{"id":"T12","category":"unlabeled"},{"id":"T13","category":"unlabeled"},{"id":"T18","category":"Answer"},{"id":"T19","category":"unlabeled"},{"id":"T8","category":"Answer"},{"id":"T9","category":"unlabeled"},{"id":"T6","category":"Answer"},{"id":"T7","category":"unlabeled"},{"id":"T4","category":"Question"},{"id":"T5","category":"unlabeled"},{"id":"T2","category":"Header/Topic"},{"id":"T3","category":"unlabeled"},{"id":"T1","category":"unlabeled"},{"id":"T21","category":"Answer"},{"id":"T20","category":"unlabeled"},{"id":"T23","category":"unlabeled"},{"id":"T22","category":"unlabeled"},{"id":"T25","category":"unlabeled"},{"id":"T24","category":"unlabeled"}]
p35
asg29
Vresults
p36
sbatp37
Rp38
(dp39
S'status'
p40
I01
sS'version_id_marker'
p41
NsS'next_version_id_marker'
p42
NsS'markers'
p43
(lp44
(S'Answer'
p45
g22
tp46
asS'next_key_marker'
p47
NsS'next_upload_id_marker'
p48
NsS'is_truncated'
p49
I00
sS'key_marker'
p50
NsS'next_generation_marker'
p51
NsS'marker'
p52
NsS'next_marker'
p53
NsS'QuestionFormAnswers'
p54
V\u000a
p55
sS'next_token'
p56
NsbasS'AcceptTime'
p57
V2016-06-08T05:26:42Z
p58
sS'HITId'
p59
V356TQKY9XFY26KNJKUHNZD4C9W1879
p60
sS'Assignment'
p61
S''
p62
sS'AssignmentStatus'
p63
VSubmitted
p64
sS'SubmitTime'
p65
V2016-06-08T05:27:27Z
p66
sbag6
(g7
g8
Ntp67
Rp68
(dp69
g12
V2016-07-08T05:43:43Z
p70
sg14
V3RXPCZQMQPC6BXCT4EH3E0PHOUO1GY
p71
sg16
VA3RJ8NZQ8BRTZM
p72
sg18
(lp73
g6
(g20
g1
(lp74
g6
(g22
g8
Ntp75
Rp76
(dp77
g26
(lp78
VDaily_Science_Grade_6_(Daily_Practice_Books)_Evan_Moor_69.jpeg
p79
asg29
Vimage_id
p80
sbag6
(g22
g8
Ntp81
Rp82
(dp83
g26
(lp84
V[{"id":"T14","category":"unlabeled"},{"id":"T15","category":"unlabeled"},{"id":"T16","category":"unlabeled"},{"id":"T17","category":"unlabeled"},{"id":"T10","category":"unlabeled"},{"id":"T11","category":"unlabeled"},{"id":"T12","category":"unlabeled"},{"id":"T13","category":"unlabeled"},{"id":"T18","category":"unlabeled"},{"id":"T19","category":"unlabeled"},{"id":"T8","category":"unlabeled"},{"id":"T9","category":"unlabeled"},{"id":"T6","category":"unlabeled"},{"id":"T7","category":"unlabeled"},{"id":"T4","category":"Header/Topic"},{"id":"T5","category":"unlabeled"},{"id":"T2","category":"unlabeled"},{"id":"T3","category":"unlabeled"},{"id":"T1","category":"unlabeled"},{"id":"T21","category":"unlabeled"},{"id":"T20","category":"unlabeled"},{"id":"T23","category":"unlabeled"},{"id":"T22","category":"unlabeled"},{"id":"T25","category":"unlabeled"},{"id":"T24","category":"unlabeled"}]
p85
asg29
Vresults
p86
sbatp87
Rp88
(dp89
g40
I01
sg41
Nsg42
Nsg43
(lp90
(g45
g22
tp91
asg47
Nsg48
Nsg49
I00
sg50
Nsg51
Nsg52
Nsg53
Nsg54
V\u000a
p92
sg56
Nsbasg57
V2016-06-08T05:43:02Z
p93
sg59
V356TQKY9XFY26KNJKUHNZD4C9W1879
p94
sg61
g62
sg63
VSubmitted
p95
sg65
V2016-06-08T05:43:43Z
p96
sbag6
(g7
g8
Ntp97
Rp98
(dp99
g12
V2016-07-09T01:15:24Z
p100
sg14
V3NOKK93PR197BKAEA7MULHNZ1PZEE4
p101
sg16
VA03922113RU44GENR8ATX
p102
sg18
(lp103
g6
(g20
g1
(lp104
g6
(g22
g8
Ntp105
Rp106
(dp107
g26
(lp108
VDaily_Science_Grade_6_(Daily_Practice_Books)_Evan_Moor_69.jpeg
p109
asg29
Vimage_id
p110
sbag6
(g22
g8
Ntp111
Rp112
(dp113
g26
(lp114
V[{"id":"T14","category":"unlabeled"},{"id":"T15","category":"unlabeled"},{"id":"T16","category":"unlabeled"},{"id":"T17","category":"unlabeled"},{"id":"T10","category":"unlabeled"},{"id":"T11","category":"unlabeled"},{"id":"T12","category":"unlabeled"},{"id":"T13","category":"unlabeled"},{"id":"T18","category":"unlabeled"},{"id":"T19","category":"unlabeled"},{"id":"T8","category":"unlabeled"},{"id":"T9","category":"unlabeled"},{"id":"T6","category":"Discussion"},{"id":"T7","category":"unlabeled"},{"id":"T4","category":"Header/Topic"},{"id":"T5","category":"unlabeled"},{"id":"T2","category":"unlabeled"},{"id":"T3","category":"unlabeled"},{"id":"T1","category":"unlabeled"},{"id":"T21","category":"unlabeled"},{"id":"T20","category":"unlabeled"},{"id":"T23","category":"unlabeled"},{"id":"T22","category":"unlabeled"},{"id":"T25","category":"unlabeled"},{"id":"T24","category":"unlabeled"}]
p115
asg29
Vresults
p116
sbatp117
Rp118
(dp119
g40
I01
sg41
Nsg42
Nsg43
(lp120
(g45
g22
tp121
asg47
Nsg48
Nsg49
I00
sg50
Nsg51
Nsg52
Nsg53
Nsg54
V\u000a
p122
sg56
Nsbasg57
V2016-06-09T01:14:58Z
p123
sg59
V356TQKY9XFY26KNJKUHNZD4C9W1879
p124
sg61
g62
sg63
VSubmitted
p125
sg65
V2016-06-09T01:15:24Z
p126
sbasV31MCUE39BKNZYGSE1GQLE99USDS3GF
p127
(lp128
g6
(g7
g8
Ntp129
Rp130
(dp131
g12
V2016-07-08T02:52:47Z
p132
sg14
V3YDGXNSEOZV8AH3U8YOHKLFMCVA84R
p133
sg16
VA3KIE6ZNXVEIAY
p134
sg18
(lp135
g6
(g20
g1
(lp136
g6
(g22
g8
Ntp137
Rp138
(dp139
g26
(lp140
VDaily_Science_Grade_5_Evan_Moor_193.jpeg
p141
asg29
Vimage_id
p142
sbag6
(g22
g8
Ntp143
Rp144
(dp145
g26
(lp146
V[{"id":"T38","category":"unlabeled"},{"id":"T39","category":"Answer"},{"id":"T14","category":"Answer"},{"id":"T15","category":"Answer"},{"id":"T16","category":"Answer"},{"id":"T17","category":"unlabeled"},{"id":"T10","category":"Answer"},{"id":"T11","category":"Answer"},{"id":"T12","category":"Answer"},{"id":"T13","category":"unlabeled"},{"id":"T36","category":"Answer"},{"id":"T37","category":"Answer"},{"id":"T34","category":"Answer"},{"id":"T35","category":"Answer"},{"id":"T18","category":"Answer"},{"id":"T19","category":"unlabeled"},{"id":"T30","category":"Answer"},{"id":"T31","category":"Answer"},{"id":"T32","category":"Answer"},{"id":"T33","category":"Answer"},{"id":"T8","category":"Answer"},{"id":"T9","category":"unlabeled"},{"id":"T6","category":"Answer"},{"id":"T7","category":"Answer"},{"id":"T4","category":"unlabeled"},{"id":"T5","category":"unlabeled"},{"id":"T2","category":"Answer"},{"id":"T3","category":"Answer"},{"id":"T1","category":"Answer"},{"id":"T29","category":"Answer"},{"id":"T28","category":"Answer"},{"id":"T21","category":"Answer"},{"id":"T20","category":"Answer"},{"id":"T23","category":"Answer"},{"id":"T22","category":"Answer"},{"id":"T25","category":"unlabeled"},{"id":"T24","category":"Answer"},{"id":"T27","category":"Answer"},{"id":"T26","category":"unlabeled"},{"id":"T49","category":"unlabeled"},{"id":"T48","category":"unlabeled"},{"id":"T43","category":"Answer"},{"id":"T42","category":"Answer"},{"id":"T41","category":"Answer"},{"id":"T40","category":"Answer"},{"id":"T47","category":"unlabeled"},{"id":"T46","category":"Answer"},{"id":"T45","category":"Answer"},{"id":"T44","category":"Answer"}]
p147
asg29
Vresults
p148
sbatp149
Rp150
(dp151
g40
I01
sg41
Nsg42
Nsg43
(lp152
(g45
g22
tp153
asg47
Nsg48
Nsg49
I00
sg50
Nsg51
Nsg52
Nsg53
Nsg54
V\u000a
p154
sg56
Nsbasg57
V2016-06-08T02:52:01Z
p155
sg59
V31MCUE39BKNZYGSE1GQLE99USDS3GF
p156
sg61
g62
sg63
VSubmitted
p157
sg65
V2016-06-08T02:52:47Z
p158
sbag6
(g7
g8
Ntp159
Rp160
(dp161
g12
V2016-07-08T06:16:32Z
p162
sg14
V3XM0HYN6NK0B8BZ4JL25FTM3EUFPE9
p163
sg16
VA3IVXZJS7DQIQQ
p164
sg18
(lp165
g6
(g20
g1
(lp166
g6
(g22
g8
Ntp167
Rp168
(dp169
g26
(lp170
VDaily_Science_Grade_5_Evan_Moor_193.jpeg
p171
asg29
Vimage_id
p172
sbag6
(g22
g8
Ntp173
Rp174
(dp175
g26
(lp176
V[{"id":"T38","category":"Answer"},{"id":"T39","category":"Answer"},{"id":"T14","category":"Answer"},{"id":"T15","category":"Answer"},{"id":"T16","category":"Answer"},{"id":"T17","category":"unlabeled"},{"id":"T10","category":"Answer"},{"id":"T11","category":"Answer"},{"id":"T12","category":"Answer"},{"id":"T13","category":"unlabeled"},{"id":"T36","category":"Answer"},{"id":"T37","category":"Answer"},{"id":"T34","category":"Answer"},{"id":"T35","category":"Answer"},{"id":"T18","category":"Answer"},{"id":"T19","category":"Answer"},{"id":"T30","category":"Answer"},{"id":"T31","category":"Answer"},{"id":"T32","category":"Answer"},{"id":"T33","category":"Answer"},{"id":"T8","category":"Answer"},{"id":"T9","category":"unlabeled"},{"id":"T6","category":"Answer"},{"id":"T7","category":"Answer"},{"id":"T4","category":"Answer"},{"id":"T5","category":"Answer"},{"id":"T2","category":"Answer"},{"id":"T3","category":"Answer"},{"id":"T1","category":"Answer"},{"id":"T29","category":"Answer"},{"id":"T28","category":"Answer"},{"id":"T21","category":"Answer"},{"id":"T20","category":"Answer"},{"id":"T23","category":"Answer"},{"id":"T22","category":"Answer"},{"id":"T25","category":"Answer"},{"id":"T24","category":"Answer"},{"id":"T27","category":"Answer"},{"id":"T26","category":"Answer"},{"id":"T49","category":"unlabeled"},{"id":"T48","category":"unlabeled"},{"id":"T43","category":"Answer"},{"id":"T42","category":"Answer"},{"id":"T41","category":"Answer"},{"id":"T40","category":"Answer"},{"id":"T47","category":"unlabeled"},{"id":"T46","category":"Answer"},{"id":"T45","category":"Answer"},{"id":"T44","category":"Answer"}]
p177
asg29
Vresults
p178
sbatp179
Rp180
(dp181
g40
I01
sg41
Nsg42
Nsg43
(lp182
(g45
g22
tp183
asg47
Nsg48
Nsg49
I00
sg50
Nsg51
Nsg52
Nsg53
Nsg54
V\u000a
p184
sg56
Nsbasg57
V2016-06-08T06:14:38Z
p185
sg59
V31MCUE39BKNZYGSE1GQLE99USDS3GF
p186
sg61
g62
sg63
VSubmitted
p187
sg65
V2016-06-08T06:16:32Z
p188
sbag6
(g7
g8
Ntp189
Rp190
(dp191
g12
V2016-07-09T01:25:46Z
p192
sg14
V3ATPCQ38J8B2RCATU3W2W1POYM7AYL
p193
sg16
VA03922113RU44GENR8ATX
p194
sg18
(lp195
g6
(g20
g1
(lp196
g6
(g22
g8
Ntp197
Rp198
(dp199
g26
(lp200
VDaily_Science_Grade_5_Evan_Moor_193.jpeg
p201
asg29
Vimage_id
p202
sbag6
(g22
g8
Ntp203
Rp204
(dp205
g26
(lp206
V[{"id":"T38","category":"Answer"},{"id":"T39","category":"Answer"},{"id":"T14","category":"Answer"},{"id":"T15","category":"Answer"},{"id":"T16","category":"Answer"},{"id":"T17","category":"Answer"},{"id":"T10","category":"Answer"},{"id":"T11","category":"Answer"},{"id":"T12","category":"Answer"},{"id":"T13","category":"Answer"},{"id":"T36","category":"Answer"},{"id":"T37","category":"Answer"},{"id":"T34","category":"Answer"},{"id":"T35","category":"Answer"},{"id":"T18","category":"Answer"},{"id":"T19","category":"Answer"},{"id":"T30","category":"Answer"},{"id":"T31","category":"Answer"},{"id":"T32","category":"Answer"},{"id":"T33","category":"Answer"},{"id":"T8","category":"Answer"},{"id":"T9","category":"Answer"},{"id":"T6","category":"Answer"},{"id":"T7","category":"Answer"},{"id":"T4","category":"Answer"},{"id":"T5","category":"Answer"},{"id":"T2","category":"Answer"},{"id":"T3","category":"Answer"},{"id":"T1","category":"Answer"},{"id":"T29","category":"Answer"},{"id":"T28","category":"Answer"},{"id":"T21","category":"Answer"},{"id":"T20","category":"Answer"},{"id":"T23","category":"Answer"},{"id":"T22","category":"Answer"},{"id":"T25","category":"Answer"},{"id":"T24","category":"Answer"},{"id":"T27","category":"Answer"},{"id":"T26","category":"Answer"},{"id":"T49","category":"unlabeled"},{"id":"T48","category":"unlabeled"},{"id":"T43","category":"Answer"},{"id":"T42","category":"Answer"},{"id":"T41","category":"Answer"},{"id":"T40","category":"Answer"},{"id":"T47","category":"unlabeled"},{"id":"T46","category":"Answer"},{"id":"T45","category":"Answer"},{"id":"T44","category":"Answer"}]
p207
asg29
Vresults
p208
sbatp209
Rp210
(dp211
g40
I01
sg41
Nsg42
Nsg43
(lp212
(g45
g22
tp213
asg47
Nsg48
Nsg49
I00
sg50
Nsg51
Nsg52
Nsg53
Nsg54
V\u000a
p214
sg56
Nsbasg57
V2016-06-09T01:24:44Z
p215
sg59
V31MCUE39BKNZYGSE1GQLE99USDS3GF
p216
sg61
g62
sg63
VSubmitted
p217
sg65
V2016-06-09T01:25:46Z
p218
sbasV3G57RS03HH6CX17BGKTPR2DDWQE52O
p219
(lp220
g6
(g7
g8
Ntp221
Rp222
(dp223
g12
V2016-07-08T05:39:40Z
p224
sg14
V3M68NM076H8S79M4QVNW80U5YEDR6G
p225
sg16
VA03922113RU44GENR8ATX
p226
sg18
(lp227
g6
(g20
g1
(lp228
g6
(g22
g8
Ntp229
Rp230
(dp231
g26
(lp232
VDaily_Science_Grade_4_Evan_Moor_109.jpeg
p233
asg29
Vimage_id
p234
sbag6
(g22
g8
Ntp235
Rp236
(dp237
g26
(lp238
V[{"id":"T14","category":"unlabeled"},{"id":"T15","category":"unlabeled"},{"id":"T16","category":"Question"},{"id":"T17","category":"Question"},{"id":"T10","category":"unlabeled"},{"id":"T11","category":"unlabeled"},{"id":"T12","category":"unlabeled"},{"id":"T13","category":"Question"},{"id":"T18","category":"Question"},{"id":"T19","category":"Question"},{"id":"T8","category":"unlabeled"},{"id":"T9","category":"unlabeled"},{"id":"T6","category":"unlabeled"},{"id":"T7","category":"Discussion"},{"id":"T4","category":"unlabeled"},{"id":"T5","category":"Header/Topic"},{"id":"T2","category":"unlabeled"},{"id":"T3","category":"unlabeled"},{"id":"T1","category":"unlabeled"},{"id":"T21","category":"Question"},{"id":"T20","category":"Question"},{"id":"T23","category":"Question"},{"id":"T22","category":"Question"},{"id":"T25","category":"unlabeled"},{"id":"T24","category":"unlabeled"},{"id":"T27","category":"unlabeled"},{"id":"T26","category":"unlabeled"}]
p239
asg29
Vresults
p240
sbatp241
Rp242
(dp243
g40
I01
sg41
Nsg42
Nsg43
(lp244
(g45
g22
tp245
asg47
Nsg48
Nsg49
I00
sg50
Nsg51
Nsg52
Nsg53
Nsg54
V\u000a
p246
sg56
Nsbasg57
V2016-06-08T05:25:44Z
p247
sg59
V3G57RS03HH6CX17BGKTPR2DDWQE52O
p248
sg61
g62
sg63
VSubmitted
p249
sg65
V2016-06-08T05:39:40Z
p250
sbag6
(g7
g8
Ntp251
Rp252
(dp253
g12
V2016-07-08T05:41:10Z
p254
sg14
V3CN4LGXD5XPNPNUCL2MBJY3O5ANY45
p255
sg16
VA3I9WD8P9RBFHR
p256
sg18
(lp257
g6
(g20
g1
(lp258
g6
(g22
g8
Ntp259
Rp260
(dp261
g26
(lp262
VDaily_Science_Grade_4_Evan_Moor_109.jpeg
p263
asg29
Vimage_id
p264
sbag6
(g22
g8
Ntp265
Rp266
(dp267
g26
(lp268
V[{"id":"T14","category":"Definition"},{"id":"T15","category":"unlabeled"},{"id":"T16","category":"Question"},{"id":"T17","category":"Question"},{"id":"T10","category":"Definition"},{"id":"T11","category":"unlabeled"},{"id":"T12","category":"Definition"},{"id":"T13","category":"unlabeled"},{"id":"T18","category":"Question"},{"id":"T19","category":"Question"},{"id":"T8","category":"unlabeled"},{"id":"T9","category":"unlabeled"},{"id":"T6","category":"unlabeled"},{"id":"T7","category":"Discussion"},{"id":"T4","category":"unlabeled"},{"id":"T5","category":"Header/Topic"},{"id":"T2","category":"unlabeled"},{"id":"T3","category":"unlabeled"},{"id":"T1","category":"unlabeled"},{"id":"T21","category":"Question"},{"id":"T20","category":"Question"},{"id":"T23","category":"Question"},{"id":"T22","category":"Question"},{"id":"T25","category":"unlabeled"},{"id":"T24","category":"unlabeled"},{"id":"T27","category":"unlabeled"},{"id":"T26","category":"unlabeled"}]
p269
asg29
Vresults
p270
sbatp271
Rp272
(dp273
g40
I01
sg41
Nsg42
Nsg43
(lp274
(g45
g22
tp275
asg47
Nsg48
Nsg49
I00
sg50
Nsg51
Nsg52
Nsg53
Nsg54
V\u000a
p276
sg56
Nsbasg57
V2016-06-08T05:39:20Z
p277
sg59
V3G57RS03HH6CX17BGKTPR2DDWQE52O
p278
sg61
g62
sg63
VSubmitted
p279
sg65
V2016-06-08T05:41:10Z
p280
sbag6
(g7
g8
Ntp281
Rp282
(dp283
g12
V2016-07-09T17:59:21Z
p284
sg14
V3TK8OJTYM1MSAMLQEBRFFXAPEP1VP4
p285
sg16
VA3AUOQRKMZTSC1
p286
sg18
(lp287
g6
(g20
g1
(lp288
g6
(g22
g8
Ntp289
Rp290
(dp291
g26
(lp292
VDaily_Science_Grade_4_Evan_Moor_109.jpeg
p293
asg29
Vimage_id
p294
sbag6
(g22
g8
Ntp295
Rp296
(dp297
g26
(lp298
V[{"id":"T14","category":"Definition"},{"id":"T15","category":"unlabeled"},{"id":"T16","category":"Question"},{"id":"T17","category":"Question"},{"id":"T10","category":"Definition"},{"id":"T11","category":"unlabeled"},{"id":"T12","category":"Definition"},{"id":"T13","category":"Discussion"},{"id":"T18","category":"Question"},{"id":"T19","category":"Question"},{"id":"T8","category":"unlabeled"},{"id":"T9","category":"unlabeled"},{"id":"T6","category":"unlabeled"},{"id":"T7","category":"Discussion"},{"id":"T4","category":"unlabeled"},{"id":"T5","category":"Header/Topic"},{"id":"T2","category":"unlabeled"},{"id":"T3","category":"unlabeled"},{"id":"T1","category":"unlabeled"},{"id":"T21","category":"Question"},{"id":"T20","category":"Question"},{"id":"T23","category":"Question"},{"id":"T22","category":"Question"},{"id":"T25","category":"unlabeled"},{"id":"T24","category":"unlabeled"},{"id":"T27","category":"unlabeled"},{"id":"T26","category":"unlabeled"}]
p299
asg29
Vresults
p300
sbatp301
Rp302
(dp303
g40
I01
sg41
Nsg42
Nsg43
(lp304
(g45
g22
tp305
asg47
Nsg48
Nsg49
I00
sg50
Nsg51
Nsg52
Nsg53
Nsg54
V\u000a
p306
sg56
Nsbasg57
V2016-06-08T01:46:02Z
p307
sg59
V3G57RS03HH6CX17BGKTPR2DDWQE52O
p308
sg61
g62
sg63
VSubmitted
p309
sg65
V2016-06-09T17:59:21Z
p310
sbasV3ZQX1VYFTD69RQFI1GYPAZQ7ZLBO8F
p311
(lp312
g6
(g7
g8
Ntp313
Rp314
(dp315
g12
V2016-07-08T02:45:03Z
p316
sg14
V36V4Q8R5ZK1UKBSW0W5DS6HMSSFQMD
p317
sg16
VA3GNQDFPZALU92
p318
sg18
(lp319
g6
(g20
g1
(lp320
g6
(g22
g8
Ntp321
Rp322
(dp323
g26
(lp324
VDaily_Science_Grade_5_Evan_Moor_152.jpeg
p325
asg29
Vimage_id
p326
sbag6
(g22
g8
Ntp327
Rp328
(dp329
g26
(lp330
V[{"id":"T14","category":"Question"},{"id":"T15","category":"Question"},{"id":"T16","category":"Question"},{"id":"T17","category":"Question"},{"id":"T10","category":"Question"},{"id":"T11","category":"Question"},{"id":"T12","category":"Question"},{"id":"T13","category":"Question"},{"id":"T18","category":"Question"},{"id":"T19","category":"Question"},{"id":"T8","category":"unlabeled"},{"id":"T9","category":"Question"},{"id":"T6","category":"Header/Topic"},{"id":"T7","category":"Question"},{"id":"T4","category":"Header/Topic"},{"id":"T5","category":"unlabeled"},{"id":"T2","category":"unlabeled"},{"id":"T3","category":"unlabeled"},{"id":"T1","category":"unlabeled"},{"id":"T21","category":"Figure Label"},{"id":"T20","category":"Question"},{"id":"T23","category":"Figure Label"},{"id":"T22","category":"Figure Label"},{"id":"T25","category":"unlabeled"},{"id":"T24","category":"Figure Label"},{"id":"T27","category":"unlabeled"},{"id":"T26","category":"unlabeled"}]
p331
asg29
Vresults
p332
sbatp333
Rp334
(dp335
g40
I01
sg41
Nsg42
Nsg43
(lp336
(g45
g22
tp337
asg47
Nsg48
Nsg49
I00
sg50
Nsg51
Nsg52
Nsg53
Nsg54
V\u000a
p338
sg56
Nsbasg57
V2016-06-08T02:44:25Z
p339
sg59
V3ZQX1VYFTD69RQFI1GYPAZQ7ZLBO8F
p340
sg61
g62
sg63
VSubmitted
p341
sg65
V2016-06-08T02:45:03Z
p342
sbag6
(g7
g8
Ntp343
Rp344
(dp345
g12
V2016-07-08T03:49:53Z
p346
sg14
V34MAJL3QP4OM9KXOWHTLT47BW9M43Z
p347
sg16
VA36PFUM96J0ES6
p348
sg18
(lp349
g6
(g20
g1
(lp350
g6
(g22
g8
Ntp351
Rp352
(dp353
g26
(lp354
VDaily_Science_Grade_5_Evan_Moor_152.jpeg
p355
asg29
Vimage_id
p356
sbag6
(g22
g8
Ntp357
Rp358
(dp359
g26
(lp360
V[{"id":"T14","category":"Question"},{"id":"T15","category":"Question"},{"id":"T16","category":"Question"},{"id":"T17","category":"Question"},{"id":"T10","category":"Question"},{"id":"T11","category":"Question"},{"id":"T12","category":"Question"},{"id":"T13","category":"Question"},{"id":"T18","category":"Question"},{"id":"T19","category":"Question"},{"id":"T8","category":"unlabeled"},{"id":"T9","category":"Question"},{"id":"T6","category":"Header/Topic"},{"id":"T7","category":"Question"},{"id":"T4","category":"unlabeled"},{"id":"T5","category":"unlabeled"},{"id":"T2","category":"unlabeled"},{"id":"T3","category":"unlabeled"},{"id":"T1","category":"unlabeled"},{"id":"T21","category":"Figure Label"},{"id":"T20","category":"Question"},{"id":"T23","category":"Figure Label"},{"id":"T22","category":"Figure Label"},{"id":"T25","category":"unlabeled"},{"id":"T24","category":"Figure Label"},{"id":"T27","category":"unlabeled"},{"id":"T26","category":"unlabeled"}]
p361
asg29
Vresults
p362
sbatp363
Rp364
(dp365
g40
I01
sg41
Nsg42
Nsg43
(lp366
(g45
g22
tp367
asg47
Nsg48
Nsg49
I00
sg50
Nsg51
Nsg52
Nsg53
Nsg54
V\u000a
p368
sg56
Nsbasg57
V2016-06-08T03:49:31Z
p369
sg59
V3ZQX1VYFTD69RQFI1GYPAZQ7ZLBO8F
p370
sg61
g62
sg63
VSubmitted
p371
sg65
V2016-06-08T03:49:53Z
p372
sbag6
(g7
g8
Ntp373
Rp374
(dp375
g12
V2016-07-09T13:14:15Z
p376
sg14
V3ZPPDN2SLVXQGOJX2W68T3MOAS19E7
p377
sg16
VAAC5XT7UY7B2K
p378
sg18
(lp379
g6
(g20
g1
(lp380
g6
(g22
g8
Ntp381
Rp382
(dp383
g26
(lp384
VDaily_Science_Grade_5_Evan_Moor_152.jpeg
p385
asg29
Vimage_id
p386
sbag6
(g22
g8
Ntp387
Rp388
(dp389
g26
(lp390
V[{"id":"T14","category":"Question"},{"id":"T15","category":"Question"},{"id":"T16","category":"Question"},{"id":"T17","category":"Question"},{"id":"T10","category":"Question"},{"id":"T11","category":"Question"},{"id":"T12","category":"Question"},{"id":"T13","category":"Question"},{"id":"T18","category":"Question"},{"id":"T19","category":"Question"},{"id":"T8","category":"unlabeled"},{"id":"T9","category":"Question"},{"id":"T6","category":"Header/Topic"},{"id":"T7","category":"Question"},{"id":"T4","category":"unlabeled"},{"id":"T5","category":"unlabeled"},{"id":"T2","category":"unlabeled"},{"id":"T3","category":"unlabeled"},{"id":"T1","category":"unlabeled"},{"id":"T21","category":"Figure Label"},{"id":"T20","category":"Question"},{"id":"T23","category":"Figure Label"},{"id":"T22","category":"Figure Label"},{"id":"T25","category":"unlabeled"},{"id":"T24","category":"Figure Label"},{"id":"T27","category":"unlabeled"},{"id":"T26","category":"unlabeled"}]
p391
asg29
Vresults
p392
sbatp393
Rp394
(dp395
g40
I01
sg41
Nsg42
Nsg43
(lp396
(g45
g22
tp397
asg47
Nsg48
Nsg49
I00
sg50
Nsg51
Nsg52
Nsg53
Nsg54
V\u000a
p398
sg56
Nsbasg57
V2016-06-09T13:12:49Z
p399
sg59
V3ZQX1VYFTD69RQFI1GYPAZQ7ZLBO8F
p400
sg61
g62
sg63
VSubmitted
p401
sg65
V2016-06-09T13:14:15Z
p402
sbasV3YOAVL4CA0IK7T6NRMJT9LH6H3I4ZQ
p403
(lp404
g6
(g7
g8
Ntp405
Rp406
(dp407
g12
V2016-07-08T04:08:48Z
p408
sg14
V3KKG4CDWKIZ8OMM4DQUVKHAXW1X94M
p409
sg16
VA19WSWPHT6RS0G
p410
sg18
(lp411
g6
(g20
g1
(lp412
g6
(g22
g8
Ntp413
Rp414
(dp415
g26
(lp416
VDaily_Science_Grade_4_Evan_Moor_97.jpeg
p417
asg29
Vimage_id
p418
sbag6
(g22
g8
Ntp419
Rp420
(dp421
g26
(lp422
V[{"id":"T14","category":"Discussion"},{"id":"T15","category":"Discussion"},{"id":"T16","category":"unlabeled"},{"id":"T17","category":"Discussion"},{"id":"T10","category":"Discussion"},{"id":"T11","category":"Discussion"},{"id":"T12","category":"Discussion"},{"id":"T13","category":"Discussion"},{"id":"T18","category":"Discussion"},{"id":"T19","category":"Discussion"},{"id":"T8","category":"Discussion"},{"id":"T9","category":"Discussion"},{"id":"T6","category":"Discussion"},{"id":"T7","category":"Discussion"},{"id":"T4","category":"Discussion"},{"id":"T5","category":"unlabeled"},{"id":"T2","category":"unlabeled"},{"id":"T3","category":"Discussion"},{"id":"T1","category":"Discussion"},{"id":"T21","category":"unlabeled"},{"id":"T20","category":"Discussion"},{"id":"T23","category":"unlabeled"},{"id":"T22","category":"unlabeled"},{"id":"T24","category":"unlabeled"}]
p423
asg29
Vresults
p424
sbatp425
Rp426
(dp427
g40
I01
sg41
Nsg42
Nsg43
(lp428
(g45
g22
tp429
asg47
Nsg48
Nsg49
I00
sg50
Nsg51
Nsg52
Nsg53
Nsg54
V\u000a
p430
sg56
Nsbasg57
V2016-06-08T04:08:11Z
p431
sg59
V3YOAVL4CA0IK7T6NRMJT9LH6H3I4ZQ
p432
sg61
g62
sg63
VSubmitted
p433
sg65
V2016-06-08T04:08:48Z
p434
sbag6
(g7
g8
Ntp435
Rp436
(dp437
g12
V2016-07-08T05:56:26Z
p438
sg14
V3MRNMEIQW57GPK66VYYESUVY98DLDE
p439
sg16
VA3I9WD8P9RBFHR
p440
sg18
(lp441
g6
(g20
g1
(lp442
g6
(g22
g8
Ntp443
Rp444
(dp445
g26
(lp446
VDaily_Science_Grade_4_Evan_Moor_97.jpeg
p447
asg29
Vimage_id
p448
sbag6
(g22
g8
Ntp449
Rp450
(dp451
g26
(lp452
V[{"id":"T14","category":"unlabeled"},{"id":"T15","category":"unlabeled"},{"id":"T16","category":"unlabeled"},{"id":"T17","category":"unlabeled"},{"id":"T10","category":"Discussion"},{"id":"T11","category":"unlabeled"},{"id":"T12","category":"unlabeled"},{"id":"T13","category":"Discussion"},{"id":"T18","category":"Discussion"},{"id":"T19","category":"Discussion"},{"id":"T8","category":"Discussion"},{"id":"T9","category":"Discussion"},{"id":"T6","category":"Discussion"},{"id":"T7","category":"Discussion"},{"id":"T4","category":"Definition"},{"id":"T5","category":"unlabeled"},{"id":"T2","category":"Header/Topic"},{"id":"T3","category":"Definition"},{"id":"T1","category":"Header/Topic"},{"id":"T21","category":"unlabeled"},{"id":"T20","category":"Discussion"},{"id":"T23","category":"unlabeled"},{"id":"T22","category":"unlabeled"},{"id":"T24","category":"unlabeled"}]
p453
asg29
Vresults
p454
sbatp455
Rp456
(dp457
g40
I01
sg41
Nsg42
Nsg43
(lp458
(g45
g22
tp459
asg47
Nsg48
Nsg49
I00
sg50
Nsg51
Nsg52
Nsg53
Nsg54
V\u000a
p460
sg56
Nsbasg57
V2016-06-08T05:54:51Z
p461
sg59
V3YOAVL4CA0IK7T6NRMJT9LH6H3I4ZQ
p462
sg61
g62
sg63
VSubmitted
p463
sg65
V2016-06-08T05:56:26Z
p464
sbag6
(g7
g8
Ntp465
Rp466
(dp467
g12
V2016-07-09T01:28:27Z
p468
sg14
V3NPFYT4IZC5E1YXMB72A99TIUBPXGD
p469
sg16
VA03922113RU44GENR8ATX
p470
sg18
(lp471
g6
(g20
g1
(lp472
g6
(g22
g8
Ntp473
Rp474
(dp475
g26
(lp476
VDaily_Science_Grade_4_Evan_Moor_97.jpeg
p477
asg29
Vimage_id
p478
sbag6
(g22
g8
Ntp479
Rp480
(dp481
g26
(lp482
V[{"id":"T14","category":"Discussion"},{"id":"T15","category":"Discussion"},{"id":"T16","category":"Discussion"},{"id":"T17","category":"Discussion"},{"id":"T10","category":"unlabeled"},{"id":"T11","category":"Discussion"},{"id":"T12","category":"Discussion"},{"id":"T13","category":"unlabeled"},{"id":"T18","category":"unlabeled"},{"id":"T19","category":"unlabeled"},{"id":"T8","category":"unlabeled"},{"id":"T9","category":"Discussion"},{"id":"T6","category":"Discussion"},{"id":"T7","category":"unlabeled"},{"id":"T4","category":"unlabeled"},{"id":"T5","category":"unlabeled"},{"id":"T2","category":"unlabeled"},{"id":"T3","category":"unlabeled"},{"id":"T1","category":"Header/Topic"},{"id":"T21","category":"unlabeled"},{"id":"T20","category":"unlabeled"},{"id":"T23","category":"unlabeled"},{"id":"T22","category":"unlabeled"},{"id":"T24","category":"unlabeled"}]
p483
asg29
Vresults
p484
sbatp485
Rp486
(dp487
g40
I01
sg41
Nsg42
Nsg43
(lp488
(g45
g22
tp489
asg47
Nsg48
Nsg49
I00
sg50
Nsg51
Nsg52
Nsg53
Nsg54
V\u000a
p490
sg56
Nsbasg57
V2016-06-09T01:26:57Z
p491
sg59
V3YOAVL4CA0IK7T6NRMJT9LH6H3I4ZQ
p492
sg61
g62
sg63
VSubmitted
p493
sg65
V2016-06-09T01:28:27Z
p494
sbasV3JVP4ZJHDPTHDFZC8H85XNO34E00I9
p495
(lp496
g6
(g7
g8
Ntp497
Rp498
(dp499
g12
V2016-07-08T03:29:03Z
p500
sg14
V3MH9DQ757WDMKU3R62RNP2UEZRDUGI
p501
sg16
VA1Y50NM443ITPK
p502
sg18
(lp503
g6
(g20
g1
(lp504
g6
(g22
g8
Ntp505
Rp506
(dp507
g26
(lp508
VDaily_Science_Grade_5_Evan_Moor_75.jpeg
p509
asg29
Vimage_id
p510
sbag6
(g22
g8
Ntp511
Rp512
(dp513
g26
(lp514
V[{"id":"T14","category":"Discussion"},{"id":"T15","category":"Definition"},{"id":"T16","category":"unlabeled"},{"id":"T17","category":"Discussion"},{"id":"T10","category":"Definition"},{"id":"T11","category":"unlabeled"},{"id":"T12","category":"Discussion"},{"id":"T13","category":"Definition"},{"id":"T18","category":"unlabeled"},{"id":"T19","category":"Discussion"},{"id":"T8","category":"Discussion"},{"id":"T9","category":"Discussion"},{"id":"T6","category":"Discussion"},{"id":"T7","category":"Discussion"},{"id":"T4","category":"Header/Topic"},{"id":"T5","category":"unlabeled"},{"id":"T2","category":"Header/Topic"},{"id":"T3","category":"unlabeled"},{"id":"T1","category":"unlabeled"},{"id":"T21","category":"unlabeled"},{"id":"T20","category":"unlabeled"},{"id":"T23","category":"unlabeled"},{"id":"T22","category":"unlabeled"},{"id":"T25","category":"unlabeled"},{"id":"T24","category":"unlabeled"}]
p515
asg29
Vresults
p516
sbatp517
Rp518
(dp519
g40
I01
sg41
Nsg42
Nsg43
(lp520
(g45
g22
tp521
asg47
Nsg48
Nsg49
I00
sg50
Nsg51
Nsg52
Nsg53
Nsg54
V\u000a
p522
sg56
Nsbasg57
V2016-06-08T03:28:20Z
p523
sg59
V3JVP4ZJHDPTHDFZC8H85XNO34E00I9
p524
sg61
g62
sg63
VSubmitted
p525
sg65
V2016-06-08T03:29:03Z
p526
sbag6
(g7
g8
Ntp527
Rp528
(dp529
g12
V2016-07-08T05:41:16Z
p530
sg14
V3TR2532VIPVB9L3RIQEN698EOXL6J5
p531
sg16
VA3I9WD8P9RBFHR
p532
sg18
(lp533
g6
(g20
g1
(lp534
g6
(g22
g8
Ntp535
Rp536
(dp537
g26
(lp538
VDaily_Science_Grade_5_Evan_Moor_75.jpeg
p539
asg29
Vimage_id
p540
sbag6
(g22
g8
Ntp541
Rp542
(dp543
g26
(lp544
V[{"id":"T14","category":"Answer"},{"id":"T15","category":"unlabeled"},{"id":"T16","category":"unlabeled"},{"id":"T17","category":"Answer"},{"id":"T10","category":"unlabeled"},{"id":"T11","category":"unlabeled"},{"id":"T12","category":"Answer"},{"id":"T13","category":"unlabeled"},{"id":"T18","category":"unlabeled"},{"id":"T19","category":"Answer"},{"id":"T8","category":"Discussion"},{"id":"T9","category":"Answer"},{"id":"T6","category":"Discussion"},{"id":"T7","category":"unlabeled"},{"id":"T4","category":"Header/Topic"},{"id":"T5","category":"unlabeled"},{"id":"T2","category":"unlabeled"},{"id":"T3","category":"unlabeled"},{"id":"T1","category":"unlabeled"},{"id":"T21","category":"unlabeled"},{"id":"T20","category":"unlabeled"},{"id":"T23","category":"unlabeled"},{"id":"T22","category":"unlabeled"},{"id":"T25","category":"unlabeled"},{"id":"T24","category":"unlabeled"}]
p545
asg29
Vresults
p546
sbatp547
Rp548
(dp549
g40
I01
sg41
Nsg42
Nsg43
(lp550
(g45
g22
tp551
asg47
Nsg48
Nsg49
I00
sg50
Nsg51
Nsg52
Nsg53
Nsg54
V\u000a
p552
sg56
Nsbasg57
V2016-06-08T05:40:40Z
p553
sg59
V3JVP4ZJHDPTHDFZC8H85XNO34E00I9
p554
sg61
g62
sg63
VSubmitted
p555
sg65
V2016-06-08T05:41:16Z
p556
sbag6
(g7
g8
Ntp557
Rp558
(dp559
g12
V2016-07-09T17:59:37Z
p560
sg14
V3QY7M81QH7NPO5NEJLJRD28NYXQK72
p561
sg16
VA3AUOQRKMZTSC1
p562
sg18
(lp563
g6
(g20
g1
(lp564
g6
(g22
g8
Ntp565
Rp566
(dp567
g26
(lp568
VDaily_Science_Grade_5_Evan_Moor_75.jpeg
p569
asg29
Vimage_id
p570
sbag6
(g22
g8
Ntp571
Rp572
(dp573
g26
(lp574
V[{"id":"T14","category":"unlabeled"},{"id":"T15","category":"unlabeled"},{"id":"T16","category":"unlabeled"},{"id":"T17","category":"unlabeled"},{"id":"T10","category":"unlabeled"},{"id":"T11","category":"unlabeled"},{"id":"T12","category":"unlabeled"},{"id":"T13","category":"unlabeled"},{"id":"T18","category":"unlabeled"},{"id":"T19","category":"unlabeled"},{"id":"T8","category":"Discussion"},{"id":"T9","category":"unlabeled"},{"id":"T6","category":"Discussion"},{"id":"T7","category":"Discussion"},{"id":"T4","category":"Header/Topic"},{"id":"T5","category":"unlabeled"},{"id":"T2","category":"unlabeled"},{"id":"T3","category":"unlabeled"},{"id":"T1","category":"unlabeled"},{"id":"T21","category":"unlabeled"},{"id":"T20","category":"unlabeled"},{"id":"T23","category":"unlabeled"},{"id":"T22","category":"unlabeled"},{"id":"T25","category":"unlabeled"},{"id":"T24","category":"unlabeled"}]
p575
asg29
Vresults
p576
sbatp577
Rp578
(dp579
g40
I01
sg41
Nsg42
Nsg43
(lp580
(g45
g22
tp581
asg47
Nsg48
Nsg49
I00
sg50
Nsg51
Nsg52
Nsg53
Nsg54
V\u000a
p582
sg56
Nsbasg57
V2016-06-08T02:01:43Z
p583
sg59
V3JVP4ZJHDPTHDFZC8H85XNO34E00I9
p584
sg61
g62
sg63
VSubmitted
p585
sg65
V2016-06-09T17:59:37Z
p586
sbasV3X52SWXE0X6J82EX9E54TFZCSEVWC5
p587
(lp588
g6
(g7
g8
Ntp589
Rp590
(dp591
g12
V2016-07-08T06:11:41Z
p592
sg14
V3H0W84IWBK3WKOFJWD6UKOMIFC3RE3
p593
sg16
VA230N919X9GWNN
p594
sg18
(lp595
g6
(g20
g1
(lp596
g6
(g22
g8
Ntp597
Rp598
(dp599
g26
(lp600
VDaily_Science_Grade_6_(Daily_Practice_Books)_Evan_Moor_155.jpeg
p601
asg29
Vimage_id
p602
sbag6
(g22
g8
Ntp603
Rp604
(dp605
g26
(lp606
V[{"id":"T72","category":"unlabeled"},{"id":"T73","category":"unlabeled"},{"id":"T70","category":"unlabeled"},{"id":"T71","category":"unlabeled"},{"id":"T76","category":"unlabeled"},{"id":"T77","category":"unlabeled"},{"id":"T74","category":"unlabeled"},{"id":"T75","category":"unlabeled"},{"id":"T78","category":"unlabeled"},{"id":"T79","category":"unlabeled"},{"id":"T89","category":"unlabeled"},{"id":"T88","category":"unlabeled"},{"id":"T87","category":"unlabeled"},{"id":"T86","category":"unlabeled"},{"id":"T85","category":"unlabeled"},{"id":"T84","category":"unlabeled"},{"id":"T83","category":"unlabeled"},{"id":"T82","category":"unlabeled"},{"id":"T81","category":"unlabeled"},{"id":"T80","category":"unlabeled"},{"id":"T14","category":"unlabeled"},{"id":"T15","category":"unlabeled"},{"id":"T16","category":"Figure Label"},{"id":"T17","category":"unlabeled"},{"id":"T10","category":"Figure Label"},{"id":"T11","category":"Figure Label"},{"id":"T12","category":"Figure Label"},{"id":"T13","category":"Figure Label"},{"id":"T18","category":"Figure Label"},{"id":"T19","category":"unlabeled"},{"id":"T98","category":"Question"},{"id":"T99","category":"Question"},{"id":"T94","category":"unlabeled"},{"id":"T95","category":"unlabeled"},{"id":"T96","category":"Question"},{"id":"T97","category":"Question"},{"id":"T90","category":"unlabeled"},{"id":"T91","category":"unlabeled"},{"id":"T92","category":"unlabeled"},{"id":"T93","category":"unlabeled"},{"id":"T29","category":"unlabeled"},{"id":"T28","category":"unlabeled"},{"id":"T21","category":"unlabeled"},{"id":"T20","category":"unlabeled"},{"id":"T23","category":"unlabeled"},{"id":"T22","category":"unlabeled"},{"id":"T25","category":"unlabeled"},{"id":"T24","category":"unlabeled"},{"id":"T27","category":"unlabeled"},{"id":"T26","category":"unlabeled"},{"id":"T38","category":"unlabeled"},{"id":"T39","category":"unlabeled"},{"id":"T36","category":"unlabeled"},{"id":"T37","category":"unlabeled"},{"id":"T34","category":"unlabeled"},{"id":"T35","category":"unlabeled"},{"id":"T32","category":"unlabeled"},{"id":"T33","category":"unlabeled"},{"id":"T30","category":"unlabeled"},{"id":"T31","category":"unlabeled"},{"id":"T49","category":"unlabeled"},{"id":"T48","category":"unlabeled"},{"id":"T43","category":"unlabeled"},{"id":"T42","category":"unlabeled"},{"id":"T41","category":"unlabeled"},{"id":"T40","category":"unlabeled"},{"id":"T47","category":"unlabeled"},{"id":"T46","category":"unlabeled"},{"id":"T45","category":"unlabeled"},{"id":"T44","category":"unlabeled"},{"id":"T58","category":"unlabeled"},{"id":"T59","category":"unlabeled"},{"id":"T50","category":"unlabeled"},{"id":"T51","category":"unlabeled"},{"id":"T52","category":"unlabeled"},{"id":"T53","category":"unlabeled"},{"id":"T54","category":"unlabeled"},{"id":"T55","category":"unlabeled"},{"id":"T56","category":"unlabeled"},{"id":"T57","category":"unlabeled"},{"id":"T101","category":"unlabeled"},{"id":"T100","category":"Question"},{"id":"T103","category":"unlabeled"},{"id":"T102","category":"unlabeled"},{"id":"T104","category":"unlabeled"},{"id":"T8","category":"Question"},{"id":"T9","category":"unlabeled"},{"id":"T6","category":"unlabeled"},{"id":"T7","category":"Header/Topic"},{"id":"T4","category":"unlabeled"},{"id":"T5","category":"unlabeled"},{"id":"T2","category":"unlabeled"},{"id":"T3","category":"unlabeled"},{"id":"T1","category":"unlabeled"},{"id":"T69","category":"unlabeled"},{"id":"T68","category":"unlabeled"},{"id":"T65","category":"unlabeled"},{"id":"T64","category":"unlabeled"},{"id":"T67","category":"unlabeled"},{"id":"T66","category":"unlabeled"},{"id":"T61","category":"unlabeled"},{"id":"T60","category":"unlabeled"},{"id":"T63","category":"unlabeled"},{"id":"T62","category":"unlabeled"}]
p607
asg29
Vresults
p608
sbatp609
Rp610
(dp611
g40
I01
sg41
Nsg42
Nsg43
(lp612
(g45
g22
tp613
asg47
Nsg48
Nsg49
I00
sg50
Nsg51
Nsg52
Nsg53
Nsg54
V\u000a
p614
sg56
Nsbasg57
V2016-06-08T06:01:11Z
p615
sg59
V3X52SWXE0X6J82EX9E54TFZCSEVWC5
p616
sg61
g62
sg63
VSubmitted
p617
sg65
V2016-06-08T06:11:41Z
p618
sbag6
(g7
g8
Ntp619
Rp620
(dp621
g12
V2016-07-08T19:15:02Z
p622
sg14
V3WETL7AQWT94531OAMCVYWDPW5N359
p623
sg16
VA3TXJLD6JNR280
p624
sg18
(lp625
g6
(g20
g1
(lp626
g6
(g22
g8
Ntp627
Rp628
(dp629
g26
(lp630
VDaily_Science_Grade_6_(Daily_Practice_Books)_Evan_Moor_155.jpeg
p631
asg29
Vimage_id
p632
sbag6
(g22
g8
Ntp633
Rp634
(dp635
g26
(lp636
V[{"id":"T72","category":"unlabeled"},{"id":"T73","category":"unlabeled"},{"id":"T70","category":"unlabeled"},{"id":"T71","category":"unlabeled"},{"id":"T76","category":"unlabeled"},{"id":"T77","category":"unlabeled"},{"id":"T74","category":"unlabeled"},{"id":"T75","category":"unlabeled"},{"id":"T78","category":"unlabeled"},{"id":"T79","category":"unlabeled"},{"id":"T89","category":"unlabeled"},{"id":"T88","category":"unlabeled"},{"id":"T87","category":"unlabeled"},{"id":"T86","category":"unlabeled"},{"id":"T85","category":"unlabeled"},{"id":"T84","category":"unlabeled"},{"id":"T83","category":"unlabeled"},{"id":"T82","category":"unlabeled"},{"id":"T81","category":"unlabeled"},{"id":"T80","category":"unlabeled"},{"id":"T14","category":"unlabeled"},{"id":"T15","category":"unlabeled"},{"id":"T16","category":"Question"},{"id":"T17","category":"unlabeled"},{"id":"T10","category":"Question"},{"id":"T11","category":"Question"},{"id":"T12","category":"Question"},{"id":"T13","category":"Question"},{"id":"T18","category":"Question"},{"id":"T19","category":"unlabeled"},{"id":"T98","category":"Question"},{"id":"T99","category":"Question"},{"id":"T94","category":"unlabeled"},{"id":"T95","category":"unlabeled"},{"id":"T96","category":"Question"},{"id":"T97","category":"Question"},{"id":"T90","category":"unlabeled"},{"id":"T91","category":"unlabeled"},{"id":"T92","category":"unlabeled"},{"id":"T93","category":"unlabeled"},{"id":"T29","category":"unlabeled"},{"id":"T28","category":"unlabeled"},{"id":"T21","category":"unlabeled"},{"id":"T20","category":"unlabeled"},{"id":"T23","category":"unlabeled"},{"id":"T22","category":"unlabeled"},{"id":"T25","category":"unlabeled"},{"id":"T24","category":"unlabeled"},{"id":"T27","category":"unlabeled"},{"id":"T26","category":"unlabeled"},{"id":"T38","category":"unlabeled"},{"id":"T39","category":"unlabeled"},{"id":"T36","category":"unlabeled"},{"id":"T37","category":"unlabeled"},{"id":"T34","category":"unlabeled"},{"id":"T35","category":"unlabeled"},{"id":"T32","category":"unlabeled"},{"id":"T33","category":"unlabeled"},{"id":"T30","category":"unlabeled"},{"id":"T31","category":"unlabeled"},{"id":"T49","category":"unlabeled"},{"id":"T48","category":"unlabeled"},{"id":"T43","category":"unlabeled"},{"id":"T42","category":"unlabeled"},{"id":"T41","category":"unlabeled"},{"id":"T40","category":"unlabeled"},{"id":"T47","category":"unlabeled"},{"id":"T46","category":"unlabeled"},{"id":"T45","category":"unlabeled"},{"id":"T44","category":"unlabeled"},{"id":"T58","category":"unlabeled"},{"id":"T59","category":"unlabeled"},{"id":"T50","category":"unlabeled"},{"id":"T51","category":"unlabeled"},{"id":"T52","category":"unlabeled"},{"id":"T53","category":"unlabeled"},{"id":"T54","category":"unlabeled"},{"id":"T55","category":"unlabeled"},{"id":"T56","category":"unlabeled"},{"id":"T57","category":"unlabeled"},{"id":"T101","category":"unlabeled"},{"id":"T100","category":"Question"},{"id":"T103","category":"unlabeled"},{"id":"T102","category":"unlabeled"},{"id":"T104","category":"unlabeled"},{"id":"T8","category":"Question"},{"id":"T9","category":"unlabeled"},{"id":"T6","category":"unlabeled"},{"id":"T7","category":"Header/Topic"},{"id":"T4","category":"unlabeled"},{"id":"T5","category":"unlabeled"},{"id":"T2","category":"unlabeled"},{"id":"T3","category":"unlabeled"},{"id":"T1","category":"unlabeled"},{"id":"T69","category":"unlabeled"},{"id":"T68","category":"unlabeled"},{"id":"T65","category":"unlabeled"},{"id":"T64","category":"unlabeled"},{"id":"T67","category":"unlabeled"},{"id":"T66","category":"unlabeled"},{"id":"T61","category":"unlabeled"},{"id":"T60","category":"unlabeled"},{"id":"T63","category":"unlabeled"},{"id":"T62","category":"unlabeled"}]
p637
asg29
Vresults
p638
sbatp639
Rp640
(dp641
g40
I01
sg41
Nsg42
Nsg43
(lp642
(g45
g22
tp643
asg47
Nsg48
Nsg49
I00
sg50
Nsg51
Nsg52
Nsg53
Nsg54
V\u000a
p644
sg56
Nsbasg57
V2016-06-08T05:38:17Z
p645
sg59
V3X52SWXE0X6J82EX9E54TFZCSEVWC5
p646
sg61
g62
sg63
VSubmitted
p647
sg65
V2016-06-08T19:15:02Z
p648
sbag6
(g7
g8
Ntp649
Rp650
(dp651
g12
V2016-07-09T06:46:39Z
p652
sg14
V3PJ71Z61R43RWNPLQ8BTMJ3ULJM195
p653
sg16
VA03922113RU44GENR8ATX
p654
sg18
(lp655
g6
(g20
g1
(lp656
g6
(g22
g8
Ntp657
Rp658
(dp659
g26
(lp660
VDaily_Science_Grade_6_(Daily_Practice_Books)_Evan_Moor_155.jpeg
p661
asg29
Vimage_id
p662
sbag6
(g22
g8
Ntp663
Rp664
(dp665
g26
(lp666
V[{"id":"T72","category":"unlabeled"},{"id":"T73","category":"unlabeled"},{"id":"T70","category":"unlabeled"},{"id":"T71","category":"unlabeled"},{"id":"T76","category":"unlabeled"},{"id":"T77","category":"unlabeled"},{"id":"T74","category":"unlabeled"},{"id":"T75","category":"unlabeled"},{"id":"T78","category":"unlabeled"},{"id":"T79","category":"unlabeled"},{"id":"T89","category":"unlabeled"},{"id":"T88","category":"unlabeled"},{"id":"T87","category":"unlabeled"},{"id":"T86","category":"unlabeled"},{"id":"T85","category":"unlabeled"},{"id":"T84","category":"unlabeled"},{"id":"T83","category":"unlabeled"},{"id":"T82","category":"unlabeled"},{"id":"T81","category":"unlabeled"},{"id":"T80","category":"unlabeled"},{"id":"T14","category":"unlabeled"},{"id":"T15","category":"unlabeled"},{"id":"T16","category":"unlabeled"},{"id":"T17","category":"unlabeled"},{"id":"T10","category":"unlabeled"},{"id":"T11","category":"unlabeled"},{"id":"T12","category":"unlabeled"},{"id":"T13","category":"unlabeled"},{"id":"T18","category":"unlabeled"},{"id":"T19","category":"unlabeled"},{"id":"T98","category":"Question"},{"id":"T99","category":"Question"},{"id":"T94","category":"unlabeled"},{"id":"T95","category":"unlabeled"},{"id":"T96","category":"Question"},{"id":"T97","category":"Question"},{"id":"T90","category":"unlabeled"},{"id":"T91","category":"unlabeled"},{"id":"T92","category":"unlabeled"},{"id":"T93","category":"unlabeled"},{"id":"T29","category":"unlabeled"},{"id":"T28","category":"unlabeled"},{"id":"T21","category":"unlabeled"},{"id":"T20","category":"unlabeled"},{"id":"T23","category":"unlabeled"},{"id":"T22","category":"unlabeled"},{"id":"T25","category":"unlabeled"},{"id":"T24","category":"unlabeled"},{"id":"T27","category":"unlabeled"},{"id":"T26","category":"unlabeled"},{"id":"T38","category":"unlabeled"},{"id":"T39","category":"unlabeled"},{"id":"T36","category":"unlabeled"},{"id":"T37","category":"unlabeled"},{"id":"T34","category":"unlabeled"},{"id":"T35","category":"unlabeled"},{"id":"T32","category":"unlabeled"},{"id":"T33","category":"unlabeled"},{"id":"T30","category":"unlabeled"},{"id":"T31","category":"unlabeled"},{"id":"T49","category":"unlabeled"},{"id":"T48","category":"unlabeled"},{"id":"T43","category":"unlabeled"},{"id":"T42","category":"unlabeled"},{"id":"T41","category":"unlabeled"},{"id":"T40","category":"unlabeled"},{"id":"T47","category":"unlabeled"},{"id":"T46","category":"unlabeled"},{"id":"T45","category":"unlabeled"},{"id":"T44","category":"unlabeled"},{"id":"T58","category":"unlabeled"},{"id":"T59","category":"unlabeled"},{"id":"T50","category":"unlabeled"},{"id":"T51","category":"unlabeled"},{"id":"T52","category":"unlabeled"},{"id":"T53","category":"unlabeled"},{"id":"T54","category":"unlabeled"},{"id":"T55","category":"unlabeled"},{"id":"T56","category":"unlabeled"},{"id":"T57","category":"unlabeled"},{"id":"T101","category":"unlabeled"},{"id":"T100","category":"Question"},{"id":"T103","category":"unlabeled"},{"id":"T102","category":"unlabeled"},{"id":"T104","category":"unlabeled"},{"id":"T8","category":"unlabeled"},{"id":"T9","category":"unlabeled"},{"id":"T6","category":"unlabeled"},{"id":"T7","category":"Header/Topic"},{"id":"T4","category":"unlabeled"},{"id":"T5","category":"unlabeled"},{"id":"T2","category":"unlabeled"},{"id":"T3","category":"unlabeled"},{"id":"T1","category":"unlabeled"},{"id":"T69","category":"unlabeled"},{"id":"T68","category":"unlabeled"},{"id":"T65","category":"unlabeled"},{"id":"T64","category":"unlabeled"},{"id":"T67","category":"unlabeled"},{"id":"T66","category":"unlabeled"},{"id":"T61","category":"unlabeled"},{"id":"T60","category":"unlabeled"},{"id":"T63","category":"unlabeled"},{"id":"T62","category":"unlabeled"}]
p667
asg29
Vresults
p668
sbatp669
Rp670
(dp671
g40
I01
sg41
Nsg42
Nsg43
(lp672
(g45
g22
tp673
asg47
Nsg48
Nsg49
I00
sg50
Nsg51
Nsg52
Nsg53
Nsg54
V\u000a
p674
sg56
Nsbasg57
V2016-06-09T06:43:37Z
p675
sg59
V3X52SWXE0X6J82EX9E54TFZCSEVWC5
p676
sg61
g62
sg63
VSubmitted
p677
sg65
V2016-06-09T06:46:39Z
p678
sbasV362E9TQF2HREOJAXMJX8IFBJBVPIGU
p679
(lp680
g6
(g7
g8
Ntp681
Rp682
(dp683
g12
V2016-07-08T05:41:24Z
p684
sg14
V33UKMF9319LBPMA8QX0KJPN167MTT7
p685
sg16
VA3I9WD8P9RBFHR
p686
sg18
(lp687
g6
(g20
g1
(lp688
g6
(g22
g8
Ntp689
Rp690
(dp691
g26
(lp692
VDaily_Science_Grade_5_Evan_Moor_66.jpeg
p693
asg29
Vimage_id
p694
sbag6
(g22
g8
Ntp695
Rp696
(dp697
g26
(lp698
V[{"id":"T14","category":"Discussion"},{"id":"T15","category":"Discussion"},{"id":"T16","category":"Discussion"},{"id":"T17","category":"Discussion"},{"id":"T10","category":"Discussion"},{"id":"T11","category":"Discussion"},{"id":"T12","category":"Discussion"},{"id":"T13","category":"Discussion"},{"id":"T18","category":"Discussion"},{"id":"T19","category":"Question"},{"id":"T8","category":"unlabeled"},{"id":"T9","category":"unlabeled"},{"id":"T6","category":"unlabeled"},{"id":"T7","category":"Discussion"},{"id":"T4","category":"Header/Topic"},{"id":"T5","category":"unlabeled"},{"id":"T2","category":"unlabeled"},{"id":"T3","category":"unlabeled"},{"id":"T1","category":"unlabeled"},{"id":"T21","category":"Question"},{"id":"T20","category":"Question"},{"id":"T23","category":"unlabeled"},{"id":"T22","category":"Question"},{"id":"T25","category":"unlabeled"},{"id":"T24","category":"unlabeled"},{"id":"T26","category":"unlabeled"}]
p699
asg29
Vresults
p700
sbatp701
Rp702
(dp703
g40
I01
sg41
Nsg42
Nsg43
(lp704
(g45
g22
tp705
asg47
Nsg48
Nsg49
I00
sg50
Nsg51
Nsg52
Nsg53
Nsg54
V\u000a
p706
sg56
Nsbasg57
V2016-06-08T05:40:48Z
p707
sg59
V362E9TQF2HREOJAXMJX8IFBJBVPIGU
p708
sg61
g62
sg63
VSubmitted
p709
sg65
V2016-06-08T05:41:24Z
p710
sbag6
(g7
g8
Ntp711
Rp712
(dp713
g12
V2016-07-08T05:45:10Z
p714
sg14
V35BLDD71I6YMOQNW1KPH6VC3OOOVZ5
p715
sg16
VA20WSGI3N7S4PQ
p716
sg18
(lp717
g6
(g20
g1
(lp718
g6
(g22
g8
Ntp719
Rp720
(dp721
g26
(lp722
VDaily_Science_Grade_5_Evan_Moor_66.jpeg
p723
asg29
Vimage_id
p724
sbag6
(g22
g8
Ntp725
Rp726
(dp727
g26
(lp728
V[{"id":"T14","category":"Discussion"},{"id":"T15","category":"Discussion"},{"id":"T16","category":"Discussion"},{"id":"T17","category":"Discussion"},{"id":"T10","category":"Discussion"},{"id":"T11","category":"Discussion"},{"id":"T12","category":"Discussion"},{"id":"T13","category":"Discussion"},{"id":"T18","category":"Discussion"},{"id":"T19","category":"Question"},{"id":"T8","category":"unlabeled"},{"id":"T9","category":"Discussion"},{"id":"T6","category":"unlabeled"},{"id":"T7","category":"Discussion"},{"id":"T4","category":"Header/Topic"},{"id":"T5","category":"Header/Topic"},{"id":"T2","category":"unlabeled"},{"id":"T3","category":"unlabeled"},{"id":"T1","category":"unlabeled"},{"id":"T21","category":"Question"},{"id":"T20","category":"Question"},{"id":"T23","category":"unlabeled"},{"id":"T22","category":"Question"},{"id":"T25","category":"unlabeled"},{"id":"T24","category":"unlabeled"},{"id":"T26","category":"unlabeled"}]
p729
asg29
Vresults
p730
sbatp731
Rp732
(dp733
g40
I01
sg41
Nsg42
Nsg43
(lp734
(g45
g22
tp735
asg47
Nsg48
Nsg49
I00
sg50
Nsg51
Nsg52
Nsg53
Nsg54
V\u000a
p736
sg56
Nsbasg57
V2016-06-08T05:43:03Z
p737
sg59
V362E9TQF2HREOJAXMJX8IFBJBVPIGU
p738
sg61
g62
sg63
VSubmitted
p739
sg65
V2016-06-08T05:45:10Z
p740
sbag6
(g7
g8
Ntp741
Rp742
(dp743
g12
V2016-07-09T01:26:11Z
p744
sg14
V3EWIJTFFVO88KUVK20NF0SLV7OQ0E5
p745
sg16
VA03922113RU44GENR8ATX
p746
sg18
(lp747
g6
(g20
g1
(lp748
g6
(g22
g8
Ntp749
Rp750
(dp751
g26
(lp752
VDaily_Science_Grade_5_Evan_Moor_66.jpeg
p753
asg29
Vimage_id
p754
sbag6
(g22
g8
Ntp755
Rp756
(dp757
g26
(lp758
V[{"id":"T14","category":"unlabeled"},{"id":"T15","category":"unlabeled"},{"id":"T16","category":"unlabeled"},{"id":"T17","category":"unlabeled"},{"id":"T10","category":"unlabeled"},{"id":"T11","category":"unlabeled"},{"id":"T12","category":"unlabeled"},{"id":"T13","category":"unlabeled"},{"id":"T18","category":"unlabeled"},{"id":"T19","category":"Question"},{"id":"T8","category":"unlabeled"},{"id":"T9","category":"unlabeled"},{"id":"T6","category":"unlabeled"},{"id":"T7","category":"unlabeled"},{"id":"T4","category":"Header/Topic"},{"id":"T5","category":"unlabeled"},{"id":"T2","category":"unlabeled"},{"id":"T3","category":"unlabeled"},{"id":"T1","category":"unlabeled"},{"id":"T21","category":"Question"},{"id":"T20","category":"Question"},{"id":"T23","category":"Question"},{"id":"T22","category":"Question"},{"id":"T25","category":"unlabeled"},{"id":"T24","category":"unlabeled"},{"id":"T26","category":"unlabeled"}]
p759
asg29
Vresults
p760
sbatp761
Rp762
(dp763
g40
I01
sg41
Nsg42
Nsg43
(lp764
(g45
g22
tp765
asg47
Nsg48
Nsg49
I00
sg50
Nsg51
Nsg52
Nsg53
Nsg54
V\u000a
p766
sg56
Nsbasg57
V2016-06-09T01:24:58Z
p767
sg59
V362E9TQF2HREOJAXMJX8IFBJBVPIGU
p768
sg61
g62
sg63
VSubmitted
p769
sg65
V2016-06-09T01:26:11Z
p770
sbasV37G6BXQPLQMTL32PTWCTREHTPPRQEO
p771
(lp772
g6
(g7
g8
Ntp773
Rp774
(dp775
g12
V2016-07-08T02:37:26Z
p776
sg14
V37C0GNLMHF4Y6Z3Z8USC3BD1JDCD6M
p777
sg16
VA1GG77WVYNWZ8R
p778
sg18
(lp779
g6
(g20
g1
(lp780
g6
(g22
g8
Ntp781
Rp782
(dp783
g26
(lp784
VDaily_Science_Grade_3_(Daily_Practice_Books)_Evan_Moore_153.jpeg
p785
asg29
Vimage_id
p786
sbag6
(g22
g8
Ntp787
Rp788
(dp789
g26
(lp790
V[{"id":"T14","category":"Question"},{"id":"T15","category":"Question"},{"id":"T16","category":"Question"},{"id":"T17","category":"Question"},{"id":"T10","category":"Question"},{"id":"T11","category":"Question"},{"id":"T12","category":"Question"},{"id":"T13","category":"Question"},{"id":"T18","category":"Question"},{"id":"T19","category":"Question"},{"id":"T8","category":"unlabeled"},{"id":"T9","category":"Question"},{"id":"T6","category":"unlabeled"},{"id":"T7","category":"Question"},{"id":"T4","category":"Header/Topic"},{"id":"T5","category":"unlabeled"},{"id":"T2","category":"unlabeled"},{"id":"T3","category":"unlabeled"},{"id":"T1","category":"unlabeled"},{"id":"T29","category":"unlabeled"},{"id":"T28","category":"unlabeled"},{"id":"T21","category":"Question"},{"id":"T20","category":"Question"},{"id":"T23","category":"Question"},{"id":"T22","category":"Question"},{"id":"T25","category":"Question"},{"id":"T24","category":"Question"},{"id":"T27","category":"Question"},{"id":"T26","category":"Question"}]
p791
asg29
Vresults
p792
sbatp793
Rp794
(dp795
g40
I01
sg41
Nsg42
Nsg43
(lp796
(g45
g22
tp797
asg47
Nsg48
Nsg49
I00
sg50
Nsg51
Nsg52
Nsg53
Nsg54
V\u000a
p798
sg56
Nsbasg57
V2016-06-08T02:37:01Z
p799
sg59
V37G6BXQPLQMTL32PTWCTREHTPPRQEO
p800
sg61
g62
sg63
VSubmitted
p801
sg65
V2016-06-08T02:37:26Z
p802
sbag6
(g7
g8
Ntp803
Rp804
(dp805
g12
V2016-07-08T05:20:03Z
p806
sg14
V3PJUZCGDJ6H97N96PTK81TQ2YNX89W
p807
sg16
VA36PFUM96J0ES6
p808
sg18
(lp809
g6
(g20
g1
(lp810
g6
(g22
g8
Ntp811
Rp812
(dp813
g26
(lp814
VDaily_Science_Grade_3_(Daily_Practice_Books)_Evan_Moore_153.jpeg
p815
asg29
Vimage_id
p816
sbag6
(g22
g8
Ntp817
Rp818
(dp819
g26
(lp820
V[{"id":"T14","category":"Question"},{"id":"T15","category":"Question"},{"id":"T16","category":"Question"},{"id":"T17","category":"Question"},{"id":"T10","category":"Question"},{"id":"T11","category":"Question"},{"id":"T12","category":"Question"},{"id":"T13","category":"Question"},{"id":"T18","category":"Question"},{"id":"T19","category":"Question"},{"id":"T8","category":"unlabeled"},{"id":"T9","category":"Question"},{"id":"T6","category":"unlabeled"},{"id":"T7","category":"Question"},{"id":"T4","category":"Header/Topic"},{"id":"T5","category":"unlabeled"},{"id":"T2","category":"unlabeled"},{"id":"T3","category":"unlabeled"},{"id":"T1","category":"unlabeled"},{"id":"T29","category":"unlabeled"},{"id":"T28","category":"unlabeled"},{"id":"T21","category":"Question"},{"id":"T20","category":"Question"},{"id":"T23","category":"Question"},{"id":"T22","category":"Question"},{"id":"T25","category":"Question"},{"id":"T24","category":"Question"},{"id":"T27","category":"Question"},{"id":"T26","category":"Question"}]
p821
asg29
Vresults
p822
sbatp823
Rp824
(dp825
g40
I01
sg41
Nsg42
Nsg43
(lp826
(g45
g22
tp827
asg47
Nsg48
Nsg49
I00
sg50
Nsg51
Nsg52
Nsg53
Nsg54
V\u000a
p828
sg56
Nsbasg57
V2016-06-08T05:19:46Z
p829
sg59
V37G6BXQPLQMTL32PTWCTREHTPPRQEO
p830
sg61
g62
sg63
VSubmitted
p831
sg65
V2016-06-08T05:20:03Z
p832
sbag6
(g7
g8
Ntp833
Rp834
(dp835
g12
V2016-07-09T01:32:21Z
p836
sg14
V37UQDCYH6XW34GHQIPXYFBJ4EVU7V8
p837
sg16
VA03922113RU44GENR8ATX
p838
sg18
(lp839
g6
(g20
g1
(lp840
g6
(g22
g8
Ntp841
Rp842
(dp843
g26
(lp844
VDaily_Science_Grade_3_(Daily_Practice_Books)_Evan_Moore_153.jpeg
p845
asg29
Vimage_id
p846
sbag6
(g22
g8
Ntp847
Rp848
(dp849
g26
(lp850
V[{"id":"T14","category":"Question"},{"id":"T15","category":"Question"},{"id":"T16","category":"Question"},{"id":"T17","category":"Question"},{"id":"T10","category":"Question"},{"id":"T11","category":"Question"},{"id":"T12","category":"Question"},{"id":"T13","category":"Question"},{"id":"T18","category":"Question"},{"id":"T19","category":"Question"},{"id":"T8","category":"unlabeled"},{"id":"T9","category":"Question"},{"id":"T6","category":"unlabeled"},{"id":"T7","category":"Question"},{"id":"T4","category":"Header/Topic"},{"id":"T5","category":"unlabeled"},{"id":"T2","category":"unlabeled"},{"id":"T3","category":"unlabeled"},{"id":"T1","category":"unlabeled"},{"id":"T29","category":"unlabeled"},{"id":"T28","category":"unlabeled"},{"id":"T21","category":"Question"},{"id":"T20","category":"Question"},{"id":"T23","category":"Question"},{"id":"T22","category":"unlabeled"},{"id":"T25","category":"Question"},{"id":"T24","category":"Question"},{"id":"T27","category":"Question"},{"id":"T26","category":"Question"}]
p851
asg29
Vresults
p852
sbatp853
Rp854
(dp855
g40
I01
sg41
Nsg42
Nsg43
(lp856
(g45
g22
tp857
asg47
Nsg48
Nsg49
I00
sg50
Nsg51
Nsg52
Nsg53
Nsg54
V\u000a
p858
sg56
Nsbasg57
V2016-06-09T01:31:27Z
p859
sg59
V37G6BXQPLQMTL32PTWCTREHTPPRQEO
p860
sg61
g62
sg63
VSubmitted
p861
sg65
V2016-06-09T01:32:21Z
p862
sbas.