(lp0
ccopy_reg
_reconstructor
p1
(cboto.mturk.connection
HIT
p2
c__builtin__
object
p3
Ntp4
Rp5
(dp6
S'HIT'
p7
S''
p8
sS'HITId'
p9
V386T3MLZLNWOO9NZZVWEKYUP2XP08Q
p10
sbag1
(g2
g3
Ntp11
Rp12
(dp13
g7
g8
sg9
V3OQQD2WO8I7DU7Y9R4QOZLMA85E3IW
p14
sbag1
(g2
g3
Ntp15
Rp16
(dp17
g7
g8
sg9
V3UDTAB6HH60O2E694N2SKUP0M3709F
p18
sbag1
(g2
g3
Ntp19
Rp20
(dp21
g7
g8
sg9
V378G7J1SJLZY50YB55BZJ3ZFE51WEM
p22
sbag1
(g2
g3
Ntp23
Rp24
(dp25
g7
g8
sg9
V3HUR21WDDUQB05KSFBJFSP525JCYXW
p26
sbag1
(g2
g3
Ntp27
Rp28
(dp29
g7
g8
sg9
V3ZCC2DXSD7500AA2K75HB3CB7P6YY2
p30
sbag1
(g2
g3
Ntp31
Rp32
(dp33
g7
g8
sg9
V3U74KRR67MMA7P7U3Z97M6MPO3KTNI
p34
sbag1
(g2
g3
Ntp35
Rp36
(dp37
g7
g8
sg9
V31D0ZWOD0A027XGEWTGSGP0KSLP0AU
p38
sbag1
(g2
g3
Ntp39
Rp40
(dp41
g7
g8
sg9
V35A1YQPVFEHG8MLD5NEHEIKUM155IO
p42
sbag1
(g2
g3
Ntp43
Rp44
(dp45
g7
g8
sg9
V3HXCEECSQMU050K7GT70PALDDJAYZT
p46
sbag1
(g2
g3
Ntp47
Rp48
(dp49
g7
g8
sg9
V3BAWBGQGYL00HWJWSNSXRROKL9W7V2
p50
sbag1
(g2
g3
Ntp51
Rp52
(dp53
g7
g8
sg9
V3ZZAYRN1I6SSPA764E9K1VMUEDPTOX
p54
sbag1
(g2
g3
Ntp55
Rp56
(dp57
g7
g8
sg9
V35O6H0UNLSHC3X5JN5ZHQJZUZGU5J0
p58
sbag1
(g2
g3
Ntp59
Rp60
(dp61
g7
g8
sg9
V341H3G5YF0F385OM8LWRXIRT16VZ0T
p62
sbag1
(g2
g3
Ntp63
Rp64
(dp65
g7
g8
sg9
V3SU800BH86TAAZZBJWRYVW3WCSEQUT
p66
sbag1
(g2
g3
Ntp67
Rp68
(dp69
g7
g8
sg9
V33EEIIWHK78ANEOBOM13RI5FQZNQVI
p70
sbag1
(g2
g3
Ntp71
Rp72
(dp73
g7
g8
sg9
V3NKW03WTLM8N23OGEW6ZDKOTX8PQWS
p74
sbag1
(g2
g3
Ntp75
Rp76
(dp77
g7
g8
sg9
V3R5OYNIC2CAAAAJ7JEMZQVRKOILTPE
p78
sbag1
(g2
g3
Ntp79
Rp80
(dp81
g7
g8
sg9
V3D06DR5225KZABNLLY3QEM7XVOQAMF
p82
sbag1
(g2
g3
Ntp83
Rp84
(dp85
g7
g8
sg9
V33N1S8XHHMM3FU94440RBNA36Y1Z1W
p86
sbag1
(g2
g3
Ntp87
Rp88
(dp89
g7
g8
sg9
V3P7QK0GJ3TMA4FR0N805G6K8Y4FZ2D
p90
sbag1
(g2
g3
Ntp91
Rp92
(dp93
g7
g8
sg9
V3T2EL38U0ML2R3T6O12LF3206AVQXL
p94
sbag1
(g2
g3
Ntp95
Rp96
(dp97
g7
g8
sg9
V3O4VWC1GEW79PIIF9MBOBM1ALK33J8
p98
sbag1
(g2
g3
Ntp99
Rp100
(dp101
g7
g8
sg9
V3JTPR5MTZSD7EHB15QZTRYZ7E5U5KZ
p102
sbag1
(g2
g3
Ntp103
Rp104
(dp105
g7
g8
sg9
V3VGET1QSZ00DWLJ1IXXTDT7YSIY7WC
p106
sbag1
(g2
g3
Ntp107
Rp108
(dp109
g7
g8
sg9
V329E6HTMSW3402OXR7B0C11N0933K7
p110
sbag1
(g2
g3
Ntp111
Rp112
(dp113
g7
g8
sg9
V37SOB9Z0SSYFK86FC7N1R1E2P983LA
p114
sbag1
(g2
g3
Ntp115
Rp116
(dp117
g7
g8
sg9
V3XJOUITW8USVAMKMJR1OQ0HUTE7TQ5
p118
sbag1
(g2
g3
Ntp119
Rp120
(dp121
g7
g8
sg9
V3OCZWXS7ZO8IYNTJQQBU6YCM35Z5L2
p122
sbag1
(g2
g3
Ntp123
Rp124
(dp125
g7
g8
sg9
V37M4O367VJJ245B4Q2C96BRB3AP5M4
p126
sbag1
(g2
g3
Ntp127
Rp128
(dp129
g7
g8
sg9
V39WICJI5ATTZPXNJR8EAZGP04IFZ3O
p130
sbag1
(g2
g3
Ntp131
Rp132
(dp133
g7
g8
sg9
V3YOAVL4CA0IK7T6NRMJT9LH6IIBZ49
p134
sbag1
(g2
g3
Ntp135
Rp136
(dp137
g7
g8
sg9
V3BKZLF990Z0RR8JGTXONYH998GPQYR
p138
sbag1
(g2
g3
Ntp139
Rp140
(dp141
g7
g8
sg9
V3Q2T3FD0ON9ZQQO0CJOGRETRPEY3MC
p142
sbag1
(g2
g3
Ntp143
Rp144
(dp145
g7
g8
sg9
V3P4ZBJFX2V4QBEY70GV51LKFQ6GWF4
p146
sbag1
(g2
g3
Ntp147
Rp148
(dp149
g7
g8
sg9
V3QGTX7BCHP323CAN5R23EDNKIE6Z5E
p150
sbag1
(g2
g3
Ntp151
Rp152
(dp153
g7
g8
sg9
V3IZVJEBJ6ALYMGA1AAC86J1KE9HZ6U
p154
sbag1
(g2
g3
Ntp155
Rp156
(dp157
g7
g8
sg9
V3T5ZXGO9DEPRWYTLPJQ6COIBEATQZI
p158
sbag1
(g2
g3
Ntp159
Rp160
(dp161
g7
g8
sg9
V31YWE12TE0DSLLORS2TFFCL51K47X5
p162
sbag1
(g2
g3
Ntp163
Rp164
(dp165
g7
g8
sg9
V3N5YJ55YXG45ST8LXZIQR1WX0E0ANF
p166
sbag1
(g2
g3
Ntp167
Rp168
(dp169
g7
g8
sg9
V31KPKEKW4AE7Q7L627GOB0KQA3A0BP
p170
sbag1
(g2
g3
Ntp171
Rp172
(dp173
g7
g8
sg9
V389A2A304OJQ0CDCG7CJMKQ8SOA0CW
p174
sbag1
(g2
g3
Ntp175
Rp176
(dp177
g7
g8
sg9
V3HRWUH63QU38MNW423R9JQGB80Z5N4
p178
sbag1
(g2
g3
Ntp179
Rp180
(dp181
g7
g8
sg9
V3BJKPTD2QCDVMNZMW6QOVQRZP09TR6
p182
sbag1
(g2
g3
Ntp183
Rp184
(dp185
g7
g8
sg9
V3LN3BXKGC0WWPEU2B01NJ6KRRLGWG3
p186
sbag1
(g2
g3
Ntp187
Rp188
(dp189
g7
g8
sg9
V311HQEI8RSHHQGO6TKH0CX1G9K1Z7T
p190
sbag1
(g2
g3
Ntp191
Rp192
(dp193
g7
g8
sg9
V33NOQL7T9O0LQUTP3P96QXXBK47Z8G
p194
sbag1
(g2
g3
Ntp195
Rp196
(dp197
g7
g8
sg9
V3PUOXASB574L4ZCZ8HFKQTSM4APZ95
p198
sbag1
(g2
g3
Ntp199
Rp200
(dp201
g7
g8
sg9
V3CO05SML7V6U6E2VY42EBFPUSPCR0S
p202
sbag1
(g2
g3
Ntp203
Rp204
(dp205
g7
g8
sg9
V3INZSNUD80RI1Y73GZQNZ19JGSGD9L
p206
sbag1
(g2
g3
Ntp207
Rp208
(dp209
g7
g8
sg9
V3SX4X51T80ANAE8XYEI36QW2QO5AOU
p210
sbag1
(g2
g3
Ntp211
Rp212
(dp213
g7
g8
sg9
V3XUSYT70IT2054JQG37U6Q8QDOM0DW
p214
sbag1
(g2
g3
Ntp215
Rp216
(dp217
g7
g8
sg9
V34R3P23QHS2APAPDV6J546WS6LTWH2
p218
sbag1
(g2
g3
Ntp219
Rp220
(dp221
g7
g8
sg9
V3PN6H8C9R4RW6HH8854NVWK3MAYDA0
p222
sbag1
(g2
g3
Ntp223
Rp224
(dp225
g7
g8
sg9
V311HQEI8RSHHQGO6TKH0CX1G9K27Z2
p226
sbag1
(g2
g3
Ntp227
Rp228
(dp229
g7
g8
sg9
V3K3IX1W4S6S5VEKYDEVIVQ1S0T1APB
p230
sbag1
(g2
g3
Ntp231
Rp232
(dp233
g7
g8
sg9
V3ICOHX7ENCC5XAXQCYIEC8QBD0N0EP
p234
sbag1
(g2
g3
Ntp235
Rp236
(dp237
g7
g8
sg9
V38RHULDV9YGAL50X1O1Q4IX76Y8WIV
p238
sbag1
(g2
g3
Ntp239
Rp240
(dp241
g7
g8
sg9
V3PUV2Q8SV451PRM0EJ4JQ7494SJDBV
p242
sbag1
(g2
g3
Ntp243
Rp244
(dp245
g7
g8
sg9
V386T3MLZLNWOO9NZZVWEKYUP2XP80Y
p246
sbag1
(g2
g3
Ntp247
Rp248
(dp249
g7
g8
sg9
V3QHITW7OYOAQVQLDDRA7VVR25PNAQ2
p250
sbag1
(g2
g3
Ntp251
Rp252
(dp253
g7
g8
sg9
V3WUVMVA7OB4Z9IM40NTKMO36AS7ZAK
p254
sbag1
(g2
g3
Ntp255
Rp256
(dp257
g7
g8
sg9
V3WJGKMRWVIAKZWE6SJ0E1RARMDJDC2
p258
sbag1
(g2
g3
Ntp259
Rp260
(dp261
g7
g8
sg9
V37SDSEDIN93OVY8HVE0EY3DZ7PV811
p262
sbag1
(g2
g3
Ntp263
Rp264
(dp265
g7
g8
sg9
V307L9TDWJYT58890OK3G4TIRU483NC
p266
sbag1
(g2
g3
Ntp267
Rp268
(dp269
g7
g8
sg9
V3BFF0DJK8XD7N2ZZBVQTL0WVB2STSU
p270
sbag1
(g2
g3
Ntp271
Rp272
(dp273
g7
g8
sg9
V3L4YG5VW9NTU4OKKSFVPLXS97DVDD2
p274
sbag1
(g2
g3
Ntp275
Rp276
(dp277
g7
g8
sg9
V3TC2K6WK9G3VKJQDEI0S3MN4ZV982I
p278
sbag1
(g2
g3
Ntp279
Rp280
(dp281
g7
g8
sg9
V385MDVINFCG6GGK3J6MQGJC7JDXWJ7
p282
sbag1
(g2
g3
Ntp283
Rp284
(dp285
g7
g8
sg9
V3MJ28H2Y1E9Q48WG3IRMYFGGYA45OJ
p286
sbag1
(g2
g3
Ntp287
Rp288
(dp289
g7
g8
sg9
V36MUZ9VAE63ZWUYKOA69RFAU7PWDEV
p290
sbag1
(g2
g3
Ntp291
Rp292
(dp293
g7
g8
sg9
V34HEO7RUG6VQ7R0DQ6Z70L171BPAR3
p294
sbag1
(g2
g3
Ntp295
Rp296
(dp297
g7
g8
sg9
V3087LXLJ6MHX3OXM792KUQBBP120F7
p298
sbag1
(g2
g3
Ntp299
Rp300
(dp301
g7
g8
sg9
V3W1K7D6QSBI4SSRW61TGHZNCSASZBF
p302
sbag1
(g2
g3
Ntp303
Rp304
(dp305
g7
g8
sg9
V3OID399FXG8R28YGJLQF9XVUJQBDFD
p306
sbag1
(g2
g3
Ntp307
Rp308
(dp309
g7
g8
sg9
V3VDVA3ILIDG3ODEZECC2QGUXV88G1P
p310
sbag1
(g2
g3
Ntp311
Rp312
(dp313
g7
g8
sg9
V34D9ZRXCYRV2860Q5VZCQV63ND8ASR
p314
sbag1
(g2
g3
Ntp315
Rp316
(dp317
g7
g8
sg9
V3MA5N0ATTCC1R0QL1RM2HYCKY2XWK6
p318
sbag1
(g2
g3
Ntp319
Rp320
(dp321
g7
g8
sg9
V3IQ9O0AYW60ITOW36JWFHYQ824RITS
p322
sbag1
(g2
g3
Ntp323
Rp324
(dp325
g7
g8
sg9
V33Q5P9PUSPNN2XJ2K1PBSJTUAVSZCM
p326
sbag1
(g2
g3
Ntp327
Rp328
(dp329
g7
g8
sg9
V3K1H3NEY7L0XG8UBU5WXRIV6K5BDGC
p330
sbag1
(g2
g3
Ntp331
Rp332
(dp333
g7
g8
sg9
V3HXK2V1N4KGADYWVXGCGVZ42NEMG26
p334
sbag1
(g2
g3
Ntp335
Rp336
(dp337
g7
g8
sg9
V3WRBLBQ2GR93HOTHIT82CBBNQG20G6
p338
sbag1
(g2
g3
Ntp339
Rp340
(dp341
g7
g8
sg9
V3VAOOVPI3ZTW0CW4IDR1NN8JPVZLL6
p342
sbag1
(g2
g3
Ntp343
Rp344
(dp345
g7
g8
sg9
V3EKTG13IZU4G6UEPIPSGN0N8P0PLM8
p346
sbag1
(g2
g3
Ntp347
Rp348
(dp349
g7
g8
sg9
V3OPLMF3EU5OMOCZPUQ7G0FC8UQZLN8
p350
sbag1
(g2
g3
Ntp351
Rp352
(dp353
g7
g8
sg9
V35ZRNT9RUIZNQT9CPZ3TJIIWKED3OR
p354
sbag1
(g2
g3
Ntp355
Rp356
(dp357
g7
g8
sg9
V308KJXFUJR73N6D5UV42002PPWMATG
p358
sbag1
(g2
g3
Ntp359
Rp360
(dp361
g7
g8
sg9
V3FVBZG9CLJFHHKOS2ZQKXBNO5GF0H5
p362
sbag1
(g2
g3
Ntp363
Rp364
(dp365
g7
g8
sg9
V3JVP4ZJHDPTHDFZC8H85XNO35TU0IY
p366
sbag1
(g2
g3
Ntp367
Rp368
(dp369
g7
g8
sg9
V3D1TUISJWI1XT1BS6OMPMUCALIYIUJ
p370
sbag1
(g2
g3
Ntp371
Rp372
(dp373
g7
g8
sg9
V3OLZC0DJ8JGX6G0SBEWUIGETZP7IV8
p374
sbag1
(g2
g3
Ntp375
Rp376
(dp377
g7
g8
sg9
V3THR0FZ95PU46XZ1V57TF4CDK04LON
p378
sbag1
(g2
g3
Ntp379
Rp380
(dp381
g7
g8
sg9
V38RHULDV9YGAL50X1O1Q4IX76Y9IWI
p382
sbag1
(g2
g3
Ntp383
Rp384
(dp385
g7
g8
sg9
V3K3G488TR29TPK9WIVJQNKBGDBM5QR
p386
sbag1
(g2
g3
Ntp387
Rp388
(dp389
g7
g8
sg9
V3Y3CZJSZ9KUT1LOWVA8QSALL9XO5RS
p390
sbag1
(g2
g3
Ntp391
Rp392
(dp393
g7
g8
sg9
V3X55NP42EOH5BTLD4ZG88INMUJ93P8
p394
sbag1
(g2
g3
Ntp395
Rp396
(dp397
g7
g8
sg9
V31MCUE39BKNZYGSE1GQLE99UTSMG3H
p398
sbag1
(g2
g3
Ntp399
Rp400
(dp401
g7
g8
sg9
V3E9ZFLPWOYTPA55NBTXC61BEF0FIXB
p402
sbag1
(g2
g3
Ntp403
Rp404
(dp405
g7
g8
sg9
V3YZ7A3YHR5U520O9AZ8VIKQHVZ75SG
p406
sbag1
(g2
g3
Ntp407
Rp408
(dp409
g7
g8
sg9
V3LN50BUKPVCMRXB2A5K844H3U50LP4
p410
sbag1
(g2
g3
Ntp411
Rp412
(dp413
g7
g8
sg9
V3D1UCPY6GGAK51MWIIEXMWSW59983T
p414
sbag1
(g2
g3
Ntp415
Rp416
(dp417
g7
g8
sg9
V32TMVRKDGNZ5NX50IWJGW1K2J9584E
p418
sbag1
(g2
g3
Ntp419
Rp420
(dp421
g7
g8
sg9
V3VJ4PFXFJ38INJSUU0UC5WOR8ATAU7
p422
sbag1
(g2
g3
Ntp423
Rp424
(dp425
g7
g8
sg9
V3UUIU9GZC566H01OZZDLSPM3XIL5T5
p426
sbag1
(g2
g3
Ntp427
Rp428
(dp429
g7
g8
sg9
V3R15W654VDU7R9CHAIZX497DZ1MLQV
p430
sbag1
(g2
g3
Ntp431
Rp432
(dp433
g7
g8
sg9
V3UL5XDRDNCKNJG90W12Q1TQGJ5085J
p434
sbag1
(g2
g3
Ntp435
Rp436
(dp437
g7
g8
sg9
V3HJ1EVZS2OKQN61SHRKXDDN1V1X3R0
p438
sbag1
(g2
g3
Ntp439
Rp440
(dp441
g7
g8
sg9
V363A7XIFV4NI0YHUZQ4H1IQAMH2AVW
p442
sbag1
(g2
g3
Ntp443
Rp444
(dp445
g7
g8
sg9
V3P520RYKCH7LHDGDZ43VXL85GWS5UW
p446
sbag1
(g2
g3
Ntp447
Rp448
(dp449
g7
g8
sg9
V3511RHPADVF73ARHNXOX9ZHIVNOLRW
p450
sbag1
(g2
g3
Ntp451
Rp452
(dp453
g7
g8
sg9
V3M47JKRKCX2J2K9E1KCVTZ4GF0B86Z
p454
sbag1
(g2
g3
Ntp455
Rp456
(dp457
g7
g8
sg9
V3QE4DGPGBRCKGCBI1UV4OE107SIG42
p458
sbag1
(g2
g3
Ntp459
Rp460
(dp461
g7
g8
sg9
V3J9UN9O9J3TD8QJIQZT59O33I8J0JA
p462
sbag1
(g2
g3
Ntp463
Rp464
(dp465
g7
g8
sg9
V35XW21VSVGFJ4PRU2MO2Z9MEHP7LSK
p466
sbag1
(g2
g3
Ntp467
Rp468
(dp469
g7
g8
sg9
V335HHSX8CD6BG4PMEBEFCI77Z5ODHB
p470
sbag1
(g2
g3
Ntp471
Rp472
(dp473
g7
g8
sg9
V375VMB7D4JKBCZ06KTW0CU8MZI3DI4
p474
sbag1
(g2
g3
Ntp475
Rp476
(dp477
g7
g8
sg9
V356TQKY9XFY26KNJKUHNZD4CABV87Y
p478
sbag1
(g2
g3
Ntp479
Rp480
(dp481
g7
g8
sg9
V3I6NF2WGIGX2CVFIFZEET67E7ODG57
p482
sbag1
(g2
g3
Ntp483
Rp484
(dp485
g7
g8
sg9
V30P8I9JKOIMLUS5D4UD0T7AOU315VL
p486
sbag1
(g2
g3
Ntp487
Rp488
(dp489
g7
g8
sg9
V3KVQ0UJWPXMY9H5IU4IWF9T21C35WV
p490
sbag1
(g2
g3
Ntp491
Rp492
(dp493
g7
g8
sg9
V3QD8LUVX4XZDYHA849EIHS79AE95XO
p494
sbag1
(g2
g3
Ntp495
Rp496
(dp497
g7
g8
sg9
V3HFWPF5AK9K2OL15WGK23NSXH3G3SO
p498
sbag1
(g2
g3
Ntp499
Rp500
(dp501
g7
g8
sg9
V3Q9SPIIRWJNVFNHZP09DNK9OTQ4AW6
p502
sbag1
(g2
g3
Ntp503
Rp504
(dp505
g7
g8
sg9
V38VTL6WC4AE2YM0I950K06EICK35YU
p506
sbag1
(g2
g3
Ntp507
Rp508
(dp509
g7
g8
sg9
V37J05LC5AXK77AKC2BH0OVNMCXSDJG
p510
sbag1
(g2
g3
Ntp511
Rp512
(dp513
g7
g8
sg9
V37S0QRNUFBH66YS2UZ9TDD07LV188L
p514
sbag1
(g2
g3
Ntp515
Rp516
(dp517
g7
g8
sg9
V3TZ0XG8CBUL6K3BCZRF7D9VI51J89A
p518
sbag1
(g2
g3
Ntp519
Rp520
(dp521
g7
g8
sg9
V3APP19WN71FYVZFWKIOJLCLE3JOG6N
p522
sbag1
(g2
g3
Ntp523
Rp524
(dp525
g7
g8
sg9
V3XEDXEGFX3P8JAP08KTHA33GXXJ0K9
p526
sbag1
(g2
g3
Ntp527
Rp528
(dp529
g7
g8
sg9
V3QGTX7BCHP323CAN5R23EDNKIE75ZL
p530
sbag1
(g2
g3
Ntp531
Rp532
(dp533
g7
g8
sg9
V30Z7M1Q8UYLKPMLHRXT79462BJ18AP
p534
sbag1
(g2
g3
Ntp535
Rp536
(dp537
g7
g8
sg9
V306W7JMRYYZP8WQ9XBT34FQ8T1M8BK
p538
sbag1
(g2
g3
Ntp539
Rp540
(dp541
g7
g8
sg9
V3DA79LNS59W33LEKLGPSDSOJJMU3TD
p542
sbag1
(g2
g3
Ntp543
Rp544
(dp545
g7
g8
sg9
V3WRAAIUSBJ0A4NMPZ55ZP3NV2SAAXZ
p546
sbag1
(g2
g3
Ntp547
Rp548
(dp549
g7
g8
sg9
V32XN26MTXZKJ3G7ITK5IP3GVMXO0LC
p550
sbag1
(g2
g3
Ntp551
Rp552
(dp553
g7
g8
sg9
V3WRKFXQBOB8EAAVXGPJEPFINH69IYH
p554
sbag1
(g2
g3
Ntp555
Rp556
(dp557
g7
g8
sg9
V31S7M7DAGGRKJP49RMTS9EI0J8LLT9
p558
sbag1
(g2
g3
Ntp559
Rp560
(dp561
g7
g8
sg9
V3E9VAUV7BWFZ4SCZ41R18HU44Y4AY5
p562
sbag1
(g2
g3
Ntp563
Rp564
(dp565
g7
g8
sg9
V3WUVMVA7OB4Z9IM40NTKMO36AS8AZW
p566
sbag1
(g2
g3
Ntp567
Rp568
(dp569
g7
g8
sg9
V38LRF35D5LXI3YT9LLF2IOAL2013U4
p570
sbag1
(g2
g3
Ntp571
Rp572
(dp573
g7
g8
sg9
V3TRB893CSJBHZZT13STBRQLAYU8G7M
p574
sbag1
(g2
g3
Ntp575
Rp576
(dp577
g7
g8
sg9
V3VDI8GSXAFULZDYKDXLH5QH59EEG89
p578
sbag1
(g2
g3
Ntp579
Rp580
(dp581
g7
g8
sg9
V31KPKEKW4AE7Q7L627GOB0KQA3AB00
p582
sbag1
(g2
g3
Ntp583
Rp584
(dp585
g7
g8
sg9
V3L7SUC0TTUV39YP3TW6XPGVKM2E0ME
p586
sbag1
(g2
g3
Ntp587
Rp588
(dp589
g7
g8
sg9
V3NI0WFPPI9H1KV4B6GZG0KYYW2Z60A
p590
sbag1
(g2
g3
Ntp591
Rp592
(dp593
g7
g8
sg9
V37VHPF5VYC48I1IFBBPYFZWQBMM8CR
p594
sbag1
(g2
g3
Ntp595
Rp596
(dp597
g7
g8
sg9
V3J5XXLQDHMCIGDI9QBP7EAC4G7A3VT
p598
sbag1
(g2
g3
Ntp599
Rp600
(dp601
g7
g8
sg9
V3VCK0Q0PO5F9RGA35XLX2VKKRSO0NE
p602
sbag1
(g2
g3
Ntp603
Rp604
(dp605
g7
g8
sg9
V3ECKRY5B1QXEF052CBLX3MRPN0DIZ8
p606
sbag1
(g2
g3
Ntp607
Rp608
(dp609
g7
g8
sg9
V3W3RSPVVGSSZJ2JYRRJ2EA422MSLU0
p610
sbag1
(g2
g3
Ntp611
Rp612
(dp613
g7
g8
sg9
V3LOJFQ4BOXG2IUQUKWHCPANZRMSDKF
p614
sbag1
(g2
g3
Ntp615
Rp616
(dp617
g7
g8
sg9
V3Q7TKIAPOTBD208C5WTD4A0EGMXDLI
p618
sbag1
(g2
g3
Ntp619
Rp620
(dp621
g7
g8
sg9
V39HYCOOPKOMX8IQX58US4NF3GRNDMK
p622
sbag1
(g2
g3
Ntp623
Rp624
(dp625
g7
g8
sg9
V306996CF6WL7XW6OYQKOP530FVGB13
p626
sbag1
(g2
g3
Ntp627
Rp628
(dp629
g7
g8
sg9
V304QEQWKZPLR91AF6CLAHKKPH2T0OT
p630
sbag1
(g2
g3
Ntp631
Rp632
(dp633
g7
g8
sg9
V3J9UN9O9J3TD8QJIQZT59O33I8JJ0T
p634
sbag1
(g2
g3
Ntp635
Rp636
(dp637
g7
g8
sg9
V37NXA7GVST7ZWH8YWHT7AW6LGT1LVP
p638
sbag1
(g2
g3
Ntp639
Rp640
(dp641
g7
g8
sg9
V3WGZLY9VCHNINTOTB7K9Z5E8WMY8DR
p642
sbag1
(g2
g3
Ntp643
Rp644
(dp645
g7
g8
sg9
V3IVEC1GSLP0DFF40MIX5NTMDN0PJ1W
p646
sbag1
(g2
g3
Ntp647
Rp648
(dp649
g7
g8
sg9
V34F34TZU7W0K40MW5MXJSCWIF63J2D
p650
sbag1
(g2
g3
Ntp651
Rp652
(dp653
g7
g8
sg9
V3O4VWC1GEW79PIIF9MBOBM1ALK3J3O
p654
sbag1
(g2
g3
Ntp655
Rp656
(dp657
g7
g8
sg9
V3M4KL7H8KVO1RKPT2Z3GEPH81U561D
p658
sbag1
(g2
g3
Ntp659
Rp660
(dp661
g7
g8
sg9
V3JMQI2OLFZ63Q0BXH99SH243LHXDNK
p662
sbag1
(g2
g3
Ntp663
Rp664
(dp665
g7
g8
sg9
V3HYV4299H0XNFZ2T72VT5NWTWYZ8EK
p666
sbag1
(g2
g3
Ntp667
Rp668
(dp669
g7
g8
sg9
V3SD15I2WD2VX1N38P3HZ2IW5ZEJ635
p670
sbag1
(g2
g3
Ntp671
Rp672
(dp673
g7
g8
sg9
V3OEWW2KGQJCL8LB9IO95WR48BR2DOZ
p674
sbag1
(g2
g3
Ntp675
Rp676
(dp677
g7
g8
sg9
V3GKAWYFRAPU3TLNAXOMKLR9YLWYDPG
p678
sbag1
(g2
g3
Ntp679
Rp680
(dp681
g7
g8
sg9
V3MYASTQBG7COTXOPX119LWZ8QSKDQ7
p682
sbag1
(g2
g3
Ntp683
Rp684
(dp685
g7
g8
sg9
V3HKIF5DF6YYLDIHUIPRV5MCGTKWG9Y
p686
sbag1
(g2
g3
Ntp687
Rp688
(dp689
g7
g8
sg9
V3MQY1YVHS3LEMHOKHUK2UOD571UB2K
p690
sbag1
(g2
g3
Ntp691
Rp692
(dp693
g7
g8
sg9
V3H5TOKO3D9KIJJMCPHMICNOBDEF64Q
p694
sbag1
(g2
g3
Ntp695
Rp696
(dp697
g7
g8
sg9
V3ZUE82NE0A2FLD2P2DFZN5HT8ZE8F2
p698
sbag1
(g2
g3
Ntp699
Rp700
(dp701
g7
g8
sg9
V3OKP4QVBP2YZI1RZAV5V1HN0Z2EGAD
p702
sbag1
(g2
g3
Ntp703
Rp704
(dp705
g7
g8
sg9
V3OREP8RUT2C41BWRG95RWS76HKZGB8
p706
sbag1
(g2
g3
Ntp707
Rp708
(dp709
g7
g8
sg9
V30Y6N4AHYPXO5Y3PAGQ9QM9DMEMDR8
p710
sbag1
(g2
g3
Ntp711
Rp712
(dp713
g7
g8
sg9
V30U1YOGZGAX06D32P5QEGWE98G5DSW
p714
sbag1
(g2
g3
Ntp715
Rp716
(dp717
g7
g8
sg9
V3VDI8GSXAFULZDYKDXLH5QH59EE8G1
p718
sbag1
(g2
g3
Ntp719
Rp720
(dp721
g7
g8
sg9
V33BFF6QPI1CVV2IEGLU30CVINGC3W3
p722
sbag1
(g2
g3
Ntp723
Rp724
(dp725
g7
g8
sg9
V36FQTHX3Z3S37ZK3LUY7DYIXDFUB3V
p726
sbag1
(g2
g3
Ntp727
Rp728
(dp729
g7
g8
sg9
V3WPCIUYH1A91LDGHE5V4Q1AVAZJDTL
p730
sbag1
(g2
g3
Ntp731
Rp732
(dp733
g7
g8
sg9
V3EHIMLB7F70ZZ9TVX33ZQQT6OER8H0
p734
sbag1
(g2
g3
Ntp735
Rp736
(dp737
g7
g8
sg9
V39TX062QX1PAK2N4QQQP2V9PWII3XW
p738
sbag1
(g2
g3
Ntp739
Rp740
(dp741
g7
g8
sg9
V3VGZ74AYTGHNBGOXU91M7CDOZ5ZGCF
p742
sbag1
(g2
g3
Ntp743
Rp744
(dp745
g7
g8
sg9
V3V7ICJJAZAHOPV37L83QN3A3RFQB4G
p746
sbag1
(g2
g3
Ntp747
Rp748
(dp749
g7
g8
sg9
V3SA4EMRVJV39U1MGLCYP6KPFR7P0PA
p750
sbag1
(g2
g3
Ntp751
Rp752
(dp753
g7
g8
sg9
V3YO4AH2FPDLUUDNVLPDE6PFPW3B0Q1
p754
sbag1
(g2
g3
Ntp755
Rp756
(dp757
g7
g8
sg9
V3XBXDSS888KR06DTWWUPYH36W49LXS
p758
sbag1
(g2
g3
Ntp759
Rp760
(dp761
g7
g8
sg9
V3R0WOCG21MAGLQV6EALEVXWXTDQDUC
p762
sbag1
(g2
g3
Ntp763
Rp764
(dp765
g7
g8
sg9
V39XCQ6V3KY50F2QC3M5SHFUPDAA65V
p766
sbag1
(g2
g3
Ntp767
Rp768
(dp769
g7
g8
sg9
V31GECDVA9JNWY6QQ85FX9L8P95L66B
p770
sbag1
(g2
g3
Ntp771
Rp772
(dp773
g7
g8
sg9
V3FTID4TN8LZG0B331SGRHVAFYA3LYY
p774
sbag1
(g2
g3
Ntp775
Rp776
(dp777
g7
g8
sg9
V3XEIP58NL0OG51D8XEIAV2JH447LZP
p778
sbag1
(g2
g3
Ntp779
Rp780
(dp781
g7
g8
sg9
V32K26U12DNPGY5K6J0VJRJYG7KZDV1
p782
sbag1
(g2
g3
Ntp783
Rp784
(dp785
g7
g8
sg9
V3IHWR4LC7DEZV44F3LLKQ2ULOR68IT
p786
sbag1
(g2
g3
Ntp787
Rp788
(dp789
g7
g8
sg9
V3DWNFENNE3WU7E1J90G7LRTGZKZJ49
p790
sbag1
(g2
g3
Ntp791
Rp792
(dp793
g7
g8
sg9
V3KI0JD2ZU1JF264VRFKPFZ8L4G567A
p794
sbag1
(g2
g3
Ntp795
Rp796
(dp797
g7
g8
sg9
V3M47JKRKCX2J2K9E1KCVTZ4GF0B68X
p798
sbag1
(g2
g3
Ntp799
Rp800
(dp801
g7
g8
sg9
V3L7SUC0TTUV39YP3TW6XPGVKM2EM00
p802
sbag1
(g2
g3
Ntp803
Rp804
(dp805
g7
g8
sg9
V3RBI0I35XE4ZK7DEVMCRL9GYYOC3Y2
p806
sbag1
(g2
g3
Ntp807
Rp808
(dp809
g7
g8
sg9
V3NZ1E5QA6Z26LE77ZDM0SVGHRBLB5L
p810
sbag1
(g2
g3
Ntp811
Rp812
(dp813
g7
g8
sg9
V35O6H0UNLSHC3X5JN5ZHQJZUZGUJ5E
p814
sbag1
(g2
g3
Ntp815
Rp816
(dp817
g7
g8
sg9
V38B7Q9C28G6JGPSO6CI9TVZRZ6T69M
p818
sbag1
(g2
g3
Ntp819
Rp820
(dp821
g7
g8
sg9
V3KTCJ4SCVG23GNALPFAX3LEURUKM13
p822
sbag1
(g2
g3
Ntp823
Rp824
(dp825
g7
g8
sg9
V3K1H3NEY7L0XG8UBU5WXRIV6K5BGDF
p826
sbag1
(g2
g3
Ntp827
Rp828
(dp829
g7
g8
sg9
V35JDMRECC4A28E8BQ07HX0DRKHCGE8
p830
sbag1
(g2
g3
Ntp831
Rp832
(dp833
g7
g8
sg9
V3FI30CQHVKK24I7L4WW5K1UHN6WB61
p834
sbag1
(g2
g3
Ntp835
Rp836
(dp837
g7
g8
sg9
V3YKP7CX6G2GL8ILQN61XQFUDIHGB70
p838
sbag1
(g2
g3
Ntp839
Rp840
(dp841
g7
g8
sg9
V3X7837UUADZ8M15XSO9MIPDUVB5J6U
p842
sbag1
(g2
g3
Ntp843
Rp844
(dp845
g7
g8
sg9
V36D1BWBEHN2A58SH8JAB84OZJ0YM2K
p846
sbag1
(g2
g3
Ntp847
Rp848
(dp849
g7
g8
sg9
V3MQKOF1EE2PTDUKB9A0FDLHUET1DWB
p850
sbag1
(g2
g3
Ntp851
Rp852
(dp853
g7
g8
sg9
V3CO05SML7V6U6E2VY42EBFPUSPD0R2
p854
sbag1
(g2
g3
Ntp855
Rp856
(dp857
g7
g8
sg9
V3CKVGCS3PG667T28DT2J1PUQERW0SQ
p858
sbag1
(g2
g3
Ntp859
Rp860
(dp861
g7
g8
sg9
V3Q2T3FD0ON9ZQQO0CJOGRETRPEYM3V
p862
sbag1
(g2
g3
Ntp863
Rp864
(dp865
g7
g8
sg9
V3IV1AEQ4DREVQFOLL36K239L16V8J5
p866
sbag1
(g2
g3
Ntp867
Rp868
(dp869
g7
g8
sg9
V3NFWQRSHVEFUES87LBRNFIYRWIRGFQ
p870
sbag1
(g2
g3
Ntp871
Rp872
(dp873
g7
g8
sg9
V3JY0Q5X05J70SS42WVX5X3Y3XXRGGP
p874
sbag1
(g2
g3
Ntp875
Rp876
(dp877
g7
g8
sg9
V306W7JMRYYZP8WQ9XBT34FQ8T1MB8N
p878
sbag1
(g2
g3
Ntp879
Rp880
(dp881
g7
g8
sg9
V3MDWE879UH3PM19J23ZH4BLJD74B9C
p882
sbag1
(g2
g3
Ntp883
Rp884
(dp885
g7
g8
sg9
V3FBEFUUYRK6XL82TYIW9PQAB5OB6A1
p886
sbag1
(g2
g3
Ntp887
Rp888
(dp889
g7
g8
sg9
V32204AGAABDESOZDG1FNI3A4CX4GHO
p890
sbag1
(g2
g3
Ntp891
Rp892
(dp893
g7
g8
sg9
V3FI30CQHVKK24I7L4WW5K1UHN6W6BW
p894
sbag1
(g2
g3
Ntp895
Rp896
(dp897
g7
g8
sg9
V3FULMHZ7OUYK8M74CXTZ1JLX3EUM4G
p898
sbag1
(g2
g3
Ntp899
Rp900
(dp901
g7
g8
sg9
V37M4O367VJJ245B4Q2C96BRB3APM5L
p902
sbag1
(g2
g3
Ntp903
Rp904
(dp905
g7
g8
sg9
V3S829FDFT2282UP1JFW1F4V1NV7DX4
p906
sbag1
(g2
g3
Ntp907
Rp908
(dp909
g7
g8
sg9
V39WICJI5ATTZPXNJR8EAZGP04IG3ZT
p910
sbag1
(g2
g3
Ntp911
Rp912
(dp913
g7
g8
sg9
V362E9TQF2HREOJAXMJX8IFBJCAJGIH
p914
sbag1
(g2
g3
Ntp915
Rp916
(dp917
g7
g8
sg9
V3G9UA71JVVVRQ1J2BYEEO3DQQMPJ7T
p918
sbag1
(g2
g3
Ntp919
Rp920
(dp921
g7
g8
sg9
V3M7OI89LVYPLENZRIWS0VL0Z5RW6C3
p922
sbag1
(g2
g3
Ntp923
Rp924
(dp925
g7
g8
sg9
V3BS6ERDL938VJF55ISNBFRIHQR86D3
p926
sbag1
(g2
g3
Ntp927
Rp928
(dp929
g7
g8
sg9
V3W0KKJIARRAQ1ZU33O6W3I9YGVV8K4
p930
sbag1
(g2
g3
Ntp931
Rp932
(dp933
g7
g8
sg9
V337F8MIIMZEN580XNS613MEK0BT40N
p934
sbag1
(g2
g3
Ntp935
Rp936
(dp937
g7
g8
sg9
V3TD33TP5DL33RKJOU9DH06W3JPMBAR
p938
sbag1
(g2
g3
Ntp939
Rp940
(dp941
g7
g8
sg9
V38F60IALAGI7MTFN2T79BUQCGAA0TF
p942
sbag1
(g2
g3
Ntp943
Rp944
(dp945
g7
g8
sg9
V3IV1AEQ4DREVQFOLL36K239L16VJ8G
p946
sbag1
(g2
g3
Ntp947
Rp948
(dp949
g7
g8
sg9
V31JUPBOORN51L5CLOOIXIIMD5V08L7
p950
sbag1
(g2
g3
Ntp951
Rp952
(dp953
g7
g8
sg9
V32TZXEA1OLLNCXLFJBA1HRXU53Z41Q
p954
sbag1
(g2
g3
Ntp955
Rp956
(dp957
g7
g8
sg9
V3TKSOBLOHLH8AUOG0NDDVHG9177BBM
p958
sbag1
(g2
g3
Ntp959
Rp960
(dp961
g7
g8
sg9
V33QQ60S6ASJMM6UC2YXJGQCEZOH0U6
p962
sbag1
(g2
g3
Ntp963
Rp964
(dp965
g7
g8
sg9
V3E6L1VR4XWNSHZJ19YI13RL224O6FE
p966
sbag1
(g2
g3
Ntp967
Rp968
(dp969
g7
g8
sg9
V3ODOP6T3ASLU1I3B2FAFMA7ZX9D427
p970
sbag1
(g2
g3
Ntp971
Rp972
(dp973
g7
g8
sg9
V36GJS3V78VRAJUU341I8UGQJPP8GJT
p974
sbag1
(g2
g3
Ntp975
Rp976
(dp977
g7
g8
sg9
V309D674SHZMRKZGMEN9861MRJS7BCT
p978
sbag1
(g2
g3
Ntp979
Rp980
(dp981
g7
g8
sg9
V3EAWOID6MTYMZLJC7O7OCCEXDVQ0VV
p982
sbag1
(g2
g3
Ntp983
Rp984
(dp985
g7
g8
sg9
V3421H3BM9AIV4K7VQVCY2Z4WLCDJ95
p986
sbag1
(g2
g3
Ntp987
Rp988
(dp989
g7
g8
sg9
V3KTZHH2ONIGLRNU6O0JCIV1250Q8M9
p990
sbag1
(g2
g3
Ntp991
Rp992
(dp993
g7
g8
sg9
V3KL228NDMVN5UE0LMMIKVVQW4E8GKS
p994
sbag1
(g2
g3
Ntp995
Rp996
(dp997
g7
g8
sg9
V3PUV2Q8SV451PRM0EJ4JQ7494SJBDT
p998
sbag1
(g2
g3
Ntp999
Rp1000
(dp1001
g7
g8
sg9
V3B286OTISEI993H0I1QYYUFGRUVJAK
p1002
sbag1
(g2
g3
Ntp1003
Rp1004
(dp1005
g7
g8
sg9
V3APP19WN71FYVZFWKIOJLCLE3JO6GD
p1006
sbag1
(g2
g3
Ntp1007
Rp1008
(dp1009
g7
g8
sg9
V3TTPFEFXCTLCVVA74O616CXFIJ16HC
p1010
sbag1
(g2
g3
Ntp1011
Rp1012
(dp1013
g7
g8
sg9
V3P4C70TRMRIGEKI37MULAV3BTEDGLV
p1014
sbag1
(g2
g3
Ntp1015
Rp1016
(dp1017
g7
g8
sg9
V3YGE63DIN8YZEAJHXYCKYEXBK4S0W5
p1018
sbag1
(g2
g3
Ntp1019
Rp1020
(dp1021
g7
g8
sg9
V3B9XR6P1WEWESDMSOFQUT5ZM9CGJBF
p1022
sbag1
(g2
g3
Ntp1023
Rp1024
(dp1025
g7
g8
sg9
V3Z56AA6EK41YN9BIVLMEYH5BZ50M61
p1026
sbag1
(g2
g3
Ntp1027
Rp1028
(dp1029
g7
g8
sg9
V3I7SHAD35MXHR9PNEVR64V57UGKM70
p1030
sbag1
(g2
g3
Ntp1031
Rp1032
(dp1033
g7
g8
sg9
V3AQN9REUTFHX2ZFBOBI3YI2AP11DYA
p1034
sbag1
(g2
g3
Ntp1035
Rp1036
(dp1037
g7
g8
sg9
V3SBNLSTU6U6X7PPGKXKMCPBCVV5DZ1
p1038
sbag1
(g2
g3
Ntp1039
Rp1040
(dp1041
g7
g8
sg9
V3ACRLU860NF6HX00AEF3WPMU44KBEM
p1042
sbag1
(g2
g3
Ntp1043
Rp1044
(dp1045
g7
g8
sg9
V3XT3KXP24ZZCRQLRA6OM6OYUIWG6I5
p1046
sbag1
(g2
g3
Ntp1047
Rp1048
(dp1049
g7
g8
sg9
V3X7837UUADZ8M15XSO9MIPDUVB56JH
p1050
sbag1
(g2
g3
Ntp1051
Rp1052
(dp1053
g7
g8
sg9
V3KTZHH2ONIGLRNU6O0JCIV1250QM8N
p1054
sbag1
(g2
g3
Ntp1055
Rp1056
(dp1057
g7
g8
sg9
V3UYRNV2KIT0R95F601YCVAQ2AQ08N9
p1058
sbag1
(g2
g3
Ntp1059
Rp1060
(dp1061
g7
g8
sg9
V34YWR3PJ28BE3AO773860XBIT6Y0XY
p1062
sbag1
(g2
g3
Ntp1063
Rp1064
(dp1065
g7
g8
sg9
V3BCRDCM0ODV3XLBFA99YJ4D7A056KG
p1066
sbag1
(g2
g3
Ntp1067
Rp1068
(dp1069
g7
g8
sg9
V360ZO6N6J1KL5SDGTSPQIRWDP68M9C
p1070
sbag1
(g2
g3
Ntp1071
Rp1072
(dp1073
g7
g8
sg9
V3ZQX1VYFTD69RQFI1GYPAZQ70058OO
p1074
sbag1
(g2
g3
Ntp1075
Rp1076
(dp1077
g7
g8
sg9
V38EHZ67RIMT0K20O7YV0A8I0TJ3GMX
p1078
sbag1
(g2
g3
Ntp1079
Rp1080
(dp1081
g7
g8
sg9
V3MGHRFQY2LQ33FEHCZU8JBIRVCS0Y4
p1082
sbag1
(g2
g3
Ntp1083
Rp1084
(dp1085
g7
g8
sg9
V3RWB1RTQDJORCQRJGGB4ZZVXA518P5
p1086
sbag1
(g2
g3
Ntp1087
Rp1088
(dp1089
g7
g8
sg9
V3XABXM4AJ16CC2SYGTQTZ4L7F1N8QW
p1090
sbag1
(g2
g3
Ntp1091
Rp1092
(dp1093
g7
g8
sg9
V382GHPVPHSSJM0ZU6FOK5KCR3ND43I
p1094
sbag1
(g2
g3
Ntp1095
Rp1096
(dp1097
g7
g8
sg9
V3XU80RHWHZH44WIY6TT3FP4XHN9443
p1098
sbag1
(g2
g3
Ntp1099
Rp1100
(dp1101
g7
g8
sg9
V3S8APUMBJXKYNB0W5PZ9E77UG5ZBF4
p1102
sbag1
(g2
g3
Ntp1103
Rp1104
(dp1105
g7
g8
sg9
V3GV1I4SEO9QEHRTXV9LZY4QMZ0A6LJ
p1106
sbag1
(g2
g3
Ntp1107
Rp1108
(dp1109
g7
g8
sg9
V3D06DR5225KZABNLLY3QEM7XVOQMAR
p1110
sbag1
(g2
g3
Ntp1111
Rp1112
(dp1113
g7
g8
sg9
V3BA7SXOG1JRCO37YT8FT4UVCBNP8RX
p1114
sbag1
(g2
g3
Ntp1115
Rp1116
(dp1117
g7
g8
sg9
V3PMR2DOWOO2M0FMYKYCDKHABHJ4458
p1118
sbag1
(g2
g3
Ntp1119
Rp1120
(dp1121
g7
g8
sg9
V3OREP8RUT2C41BWRG95RWS76HKZBG3
p1122
sbag1
(g2
g3
Ntp1123
Rp1124
(dp1125
g7
g8
sg9
V3Z56AA6EK41YN9BIVLMEYH5BZ506ML
p1126
sbag1
(g2
g3
Ntp1127
Rp1128
(dp1129
g7
g8
sg9
V3D7VY91L65Y4TLSDRC3M9XR3D6BMBM
p1130
sbag1
(g2
g3
Ntp1131
Rp1132
(dp1133
g7
g8
sg9
V3ICOHX7ENCC5XAXQCYIEC8QBD0NE03
p1134
sbag1
(g2
g3
Ntp1135
Rp1136
(dp1137
g7
g8
sg9
V3NBFJK3IOHJOK5L0KEAD2C75OJIGOC
p1138
sbag1
(g2
g3
Ntp1139
Rp1140
(dp1141
g7
g8
sg9
V3FHTJGYT8N1655X1ZENSRCCVYOEGPT
p1142
sbag1
(g2
g3
Ntp1143
Rp1144
(dp1145
g7
g8
sg9
V3IYI9285WS1X2IEY2FMP4P54RXGJCM
p1146
sbag1
(g2
g3
Ntp1147
Rp1148
(dp1149
g7
g8
sg9
V3KWGG5KP6J3N3QKJ5CZHKHXLVRBMCT
p1150
sbag1
(g2
g3
Ntp1151
Rp1152
(dp1153
g7
g8
sg9
V3B623HUYJ4ROPI7B8XFYU408XP88SL
p1154
sbag1
(g2
g3
Ntp1155
Rp1156
(dp1157
g7
g8
sg9
V3LVTFB9DE5JR5HYGZR2HRH253K0GQK
p1158
sbag1
(g2
g3
Ntp1159
Rp1160
(dp1161
g7
g8
sg9
V3ZVPAMTJWN4RHIDGC6RHW7CAZ62GRL
p1162
sbag1
(g2
g3
Ntp1163
Rp1164
(dp1165
g7
g8
sg9
V37VE3DA4YUII17R20FN9HSJ7WKCBH2
p1166
sbag1
(g2
g3
Ntp1167
Rp1168
(dp1169
g7
g8
sg9
V37J05LC5AXK77AKC2BH0OVNMCXSJDM
p1170
sbag1
(g2
g3
Ntp1171
Rp1172
(dp1173
g7
g8
sg9
V39AYGO6AFFL45RWI7M1EBWUB4VA6NL
p1174
sbag1
(g2
g3
Ntp1175
Rp1176
(dp1177
g7
g8
sg9
V39HYCOOPKOMX8IQX58US4NF3GRNMDT
p1178
sbag1
(g2
g3
Ntp1179
Rp1180
(dp1181
g7
g8
sg9
V3HY86PZXPYJ54ZI88HMEQD9LISTE16
p1182
sbag1
(g2
g3
Ntp1183
Rp1184
(dp1185
g7
g8
sg9
V371DNNCG443P4IKQXXKO49WUZ8M8TA
p1186
sbag1
(g2
g3
Ntp1187
Rp1188
(dp1189
g7
g8
sg9
V341H3G5YF0F385OM8LWRXIRT16W0ZV
p1190
sbag1
(g2
g3
Ntp1191
Rp1192
(dp1193
g7
g8
sg9
V3E24UO25QZRMNCWU811RQLUGU5F6O0
p1194
sbag1
(g2
g3
Ntp1195
Rp1196
(dp1197
g7
g8
sg9
V32CXT5U14G444VZFX2AY95IWIMT8U1
p1198
sbag1
(g2
g3
Ntp1199
Rp1200
(dp1201
g7
g8
sg9
V3ZRKL6Z1E843IXDTRVRMMHH6L8LGS9
p1202
sbag1
(g2
g3
Ntp1203
Rp1204
(dp1205
g7
g8
sg9
V3VMV5CHJZ8G4XXQ8GVWCWMDSNRZGTY
p1206
sbag1
(g2
g3
Ntp1207
Rp1208
(dp1209
g7
g8
sg9
V386659BNTLI6D93E0ANZ5O7HORJ107
p1210
sbag1
(g2
g3
Ntp1211
Rp1212
(dp1213
g7
g8
sg9
V37SQU136V7P6KYOWWTRZJTQRTJP11A
p1214
sbag1
(g2
g3
Ntp1215
Rp1216
(dp1217
g7
g8
sg9
V3S1WOPCJFGUCZGYCY6SKUD57C9TJEF
p1218
sbag1
(g2
g3
Ntp1219
Rp1220
(dp1221
g7
g8
sg9
V3AXFSPQOYQZ45UY8THCQCVQ7OA8JFX
p1222
sbag1
(g2
g3
Ntp1223
Rp1224
(dp1225
g7
g8
sg9
V3QXFBUZ4ZKHJXA5XG0MM1IZU656GUP
p1226
sbag1
(g2
g3
Ntp1227
Rp1228
(dp1229
g7
g8
sg9
V3BVS8WK9Q0WIX22M6X5UH4KMWXRBIV
p1230
sbag1
(g2
g3
Ntp1231
Rp1232
(dp1233
g7
g8
sg9
V3TCFMTM8HEPD9J6SFXRDOC0WLP312R
p1234
sbag1
(g2
g3
Ntp1235
Rp1236
(dp1237
g7
g8
sg9
V36GJS3V78VRAJUU341I8UGQJPP8JGW
p1238
sbag1
(g2
g3
Ntp1239
Rp1240
(dp1241
g7
g8
sg9
V3H5TOKO3D9KIJJMCPHMICNOBDEF46O
p1242
sbag1
(g2
g3
Ntp1243
Rp1244
(dp1245
g7
g8
sg9
V31HLTCK4BLWJAPUXLQWRX41DKCFGVE
p1246
sbag1
(g2
g3
Ntp1247
Rp1248
(dp1249
g7
g8
sg9
V3B9XR6P1WEWESDMSOFQUT5ZM9CGBJ7
p1250
sbag1
(g2
g3
Ntp1251
Rp1252
(dp1253
g7
g8
sg9
V3D17ECOUOEW2U12BJX5I7M5OR33132
p1254
sbag1
(g2
g3
Ntp1255
Rp1256
(dp1257
g7
g8
sg9
V33IXYHIZB5JCTK04RLMSVWJQAY7E2N
p1258
sbag1
(g2
g3
Ntp1259
Rp1260
(dp1261
g7
g8
sg9
V3DW3BNF1GHJ4HAOF2SK35RKFWT28VQ
p1262
sbag1
(g2
g3
Ntp1263
Rp1264
(dp1265
g7
g8
sg9
V3LN3BXKGC0WWPEU2B01NJ6KRRLHGWO
p1266
sbag1
(g2
g3
Ntp1267
Rp1268
(dp1269
g7
g8
sg9
V3PEG1BH7AES93XSA60Q6UKZZO1GBK6
p1270
sbag1
(g2
g3
Ntp1271
Rp1272
(dp1273
g7
g8
sg9
V3UXQ63NLAANKN3ASR0279KCED1LBL9
p1274
sbag1
(g2
g3
Ntp1275
Rp1276
(dp1277
g7
g8
sg9
V3UZUVSO3P7W20O4X135CA5XOG3OMEM
p1278
sbag1
(g2
g3
Ntp1279
Rp1280
(dp1281
g7
g8
sg9
V3CVDZS288H1U624TWEPISNIOS43MF4
p1282
sbag1
(g2
g3
Ntp1283
Rp1284
(dp1285
g7
g8
sg9
V3N7PQ0KLI5Q1E2WNVL0XE6OIGC7E3Y
p1286
sbag1
(g2
g3
Ntp1287
Rp1288
(dp1289
g7
g8
sg9
V32TZXEA1OLLNCXLFJBA1HRXU53Z14N
p1290
sbag1
(g2
g3
Ntp1291
Rp1292
(dp1293
g7
g8
sg9
V3ULIZ0H1VA658GPFXGTBMJ385ZU15S
p1294
sbag1
(g2
g3
Ntp1295
Rp1296
(dp1297
g7
g8
sg9
V3M4KL7H8KVO1RKPT2Z3GEPH81U5168
p1298
sbag1
(g2
g3
Ntp1299
Rp1300
(dp1301
g7
g8
sg9
V3PKJ68EHDNXOJQPEO70QFG2K4PLJHV
p1302
sbag1
(g2
g3
Ntp1303
Rp1304
(dp1305
g7
g8
sg9
V38EHZ67RIMT0K20O7YV0A8I0TJ3MG3
p1306
sbag1
(g2
g3
Ntp1307
Rp1308
(dp1309
g7
g8
sg9
V3566S7OX5DKKVK3YL988K3H4W5P177
p1310
sbag1
(g2
g3
Ntp1311
Rp1312
(dp1313
g7
g8
sg9
V368IUKXGA5948C8VN1E6FLZ64AB6PH
p1314
sbag1
(g2
g3
Ntp1315
Rp1316
(dp1317
g7
g8
sg9
V3CZH926SICFMWYFRVZ5GOBGOUC3E4J
p1318
sbag1
(g2
g3
Ntp1319
Rp1320
(dp1321
g7
g8
sg9
V307FVKVSYRG1NJ0H8RRAI1O78PZ47N
p1322
sbag1
(g2
g3
Ntp1323
Rp1324
(dp1325
g7
g8
sg9
V32TMVRKDGNZ5NX50IWJGW1K2J9548A
p1326
sbag1
(g2
g3
Ntp1327
Rp1328
(dp1329
g7
g8
sg9
V3CMIQF80GNRP8O9ANETVFQPG96X6Q8
p1330
sbag1
(g2
g3
Ntp1331
Rp1332
(dp1333
g7
g8
sg9
V34R0BODSP104SHJR94OQT3M2U8YE5O
p1334
sbag1
(g2
g3
Ntp1335
Rp1336
(dp1337
g7
g8
sg9
V3WA2XVDZEMI0BLJ5ENYVL902Q39E64
p1338
sbag1
(g2
g3
Ntp1339
Rp1340
(dp1341
g7
g8
sg9
V3FCO4VKOZ4EJFLXAXX3NRN0YLETE73
p1342
sbag1
(g2
g3
Ntp1343
Rp1344
(dp1345
g7
g8
sg9
V3X2LT8FDHWJHWZOKS2PZRT3T3248W0
p1346
sbag1
(g2
g3
Ntp1347
Rp1348
(dp1349
g7
g8
sg9
V33K3E8REWWWWLZTA27LLTCH0C4A8XT
p1350
sbag1
(g2
g3
Ntp1351
Rp1352
(dp1353
g7
g8
sg9
V3D7VY91L65Y4TLSDRC3M9XR3D6BBMB
p1354
sbag1
(g2
g3
Ntp1355
Rp1356
(dp1357
g7
g8
sg9
V37SDSEDIN93OVY8HVE0EY3DZ7PV18U
p1358
sbag1
(g2
g3
Ntp1359
Rp1360
(dp1361
g7
g8
sg9
V3RIHDBQ1NEZEKYVZR4DIV8U18JGMH2
p1362
sbag1
(g2
g3
Ntp1363
Rp1364
(dp1365
g7
g8
sg9
V3O0M2G5VC63512OANOPUWXFD3FN49Z
p1366
sbag1
(g2
g3
Ntp1367
Rp1368
(dp1369
g7
g8
sg9
V3V0TR1NRVA3J6LYFFU3USSQX9X54AE
p1370
sbag1
(g2
g3
Ntp1371
Rp1372
(dp1373
g7
g8
sg9
V3V7ICJJAZAHOPV37L83QN3A3RFQ4B9
p1374
sbag1
(g2
g3
Ntp1375
Rp1376
(dp1377
g7
g8
sg9
V3TKXBROM5TBOFL0YUPIBFS3Z420JIO
p1378
sbag1
(g2
g3
Ntp1379
Rp1380
(dp1381
g7
g8
sg9
V3QMELQS6Y5CPKPOA0TIVKGZL5SZ6R9
p1382
sbag1
(g2
g3
Ntp1383
Rp1384
(dp1385
g7
g8
sg9
V3VIVIU06FKDEGT6JXMV3VKVG8WVMIV
p1386
sbag1
(g2
g3
Ntp1387
Rp1388
(dp1389
g7
g8
sg9
V3VW0145YLYDAB4QPF4G37LAGLBKMJ7
p1390
sbag1
(g2
g3
Ntp1391
Rp1392
(dp1393
g7
g8
sg9
V32W3UF2EZOM7Z0VDZ8ZLYNGL90Q4CG
p1394
sbag1
(g2
g3
Ntp1395
Rp1396
(dp1397
g7
g8
sg9
V3S4TINXCC0OSTODP4SIZ11G886QBOQ
p1398
sbag1
(g2
g3
Ntp1399
Rp1400
(dp1401
g7
g8
sg9
V3TZDZ3Y0JS7O93RR066SYZ8ARVD19J
p1402
sbag1
(g2
g3
Ntp1403
Rp1404
(dp1405
g7
g8
sg9
V3HYV4299H0XNFZ2T72VT5NWTWYZE8Q
p1406
sbag1
(g2
g3
Ntp1407
Rp1408
(dp1409
g7
g8
sg9
V335VBRURDJ1NT4L3CU175JR4G4HE9F
p1410
sbag1
(g2
g3
Ntp1411
Rp1412
(dp1413
g7
g8
sg9
V3R5LWXWHR09BEEZSL5X9LPYY0NNGXH
p1414
sbag1
(g2
g3
Ntp1415
Rp1416
(dp1417
g7
g8
sg9
V3KA7IJSNW66AEOPQJSVEQ1LYIBMBP7
p1418
sbag1
(g2
g3
Ntp1419
Rp1420
(dp1421
g7
g8
sg9
V30ZKOOGW2W72EM1WSCKSUUJUXDV1AY
p1422
sbag1
(g2
g3
Ntp1423
Rp1424
(dp1425
g7
g8
sg9
V3QI9WAYOGQC1L4ONFII0AQ4HRUI6SX
p1426
sbag1
(g2
g3
Ntp1427
Rp1428
(dp1429
g7
g8
sg9
V391JB9X4ZY95MOW7XPGF80AT00KMK6
p1430
sbag1
(g2
g3
Ntp1431
Rp1432
(dp1433
g7
g8
sg9
V39N6W9XWRDO0EJP2Q1JB43572THGYN
p1434
sbag1
(g2
g3
Ntp1435
Rp1436
(dp1437
g7
g8
sg9
V3QO7EE372OOVE0Q5J5A3Q6B8N78BQY
p1438
sbag1
(g2
g3
Ntp1439
Rp1440
(dp1441
g7
g8
sg9
V3TY2U1TEB7BKAWK4C73BRTIZHHPJJ0
p1442
sbag1
(g2
g3
Ntp1443
Rp1444
(dp1445
g7
g8
sg9
V3A520CCNWN11YNV840F71E2OMMZEAU
p1446
sbag1
(g2
g3
Ntp1447
Rp1448
(dp1449
g7
g8
sg9
V3RHLQY6EDT5H4S1RZ4UWITY3U024DG
p1450
sbag1
(g2
g3
Ntp1451
Rp1452
(dp1453
g7
g8
sg9
V3R868ACW4SD0J9Z7MNLUIAE98NLGZE
p1454
sbag1
(g2
g3
Ntp1455
Rp1456
(dp1457
g7
g8
sg9
V373L46LKP77FLGQMUS3NS8ICW6PJKZ
p1458
sbag1
(g2
g3
Ntp1459
Rp1460
(dp1461
g7
g8
sg9
V3EKTG13IZU4G6UEPIPSGN0N8P0PML9
p1462
sbag1
(g2
g3
Ntp1463
Rp1464
(dp1465
g7
g8
sg9
V3ACRLU860NF6HX00AEF3WPMU44KEBP
p1466
sbag1
(g2
g3
Ntp1467
Rp1468
(dp1469
g7
g8
sg9
V3H1C3QRA01KPR2S6OEBY79SCMPKECW
p1470
sbag1
(g2
g3
Ntp1471
Rp1472
(dp1473
g7
g8
sg9
V3L2OEKSTW9BLL4JK737NCQO9EA48YZ
p1474
sbag1
(g2
g3
Ntp1475
Rp1476
(dp1477
g7
g8
sg9
V3CZH926SICFMWYFRVZ5GOBGOUC34E9
p1478
sbag1
(g2
g3
Ntp1479
Rp1480
(dp1481
g7
g8
sg9
V34O39PNDK69VQ155WKZ3VWLDJTABRZ
p1482
sbag1
(g2
g3
Ntp1483
Rp1484
(dp1485
g7
g8
sg9
V3CMV9YRYP32Q5M84FSFO78VRL6UJL2
p1486
sbag1
(g2
g3
Ntp1487
Rp1488
(dp1489
g7
g8
sg9
V3XUY87HIVPF0CCWAI1TVND2XP5FMMB
p1490
sbag1
(g2
g3
Ntp1491
Rp1492
(dp1493
g7
g8
sg9
V37ZQELHEQ0Z6UUHAU28V0SRXUVPMNB
p1494
sbag1
(g2
g3
Ntp1495
Rp1496
(dp1497
g7
g8
sg9
V36MUZ9VAE63ZWUYKOA69RFAU7PWEDW
p1498
sbag1
(g2
g3
Ntp1499
Rp1500
(dp1501
g7
g8
sg9
V3R4QIDVOJPD4O0CKK5HTXXSF71XEEP
p1502
sbag1
(g2
g3
Ntp1503
Rp1504
(dp1505
g7
g8
sg9
V34KYK9TV2R97RG5IB9Z8L6Q95VTBSN
p1506
sbag1
(g2
g3
Ntp1507
Rp1508
(dp1509
g7
g8
sg9
V3VW0145YLYDAB4QPF4G37LAGLBKJM4
p1510
sbag1
(g2
g3
Ntp1511
Rp1512
(dp1513
g7
g8
sg9
V3MDKGGG61QO204124INQKV03TDW6TM
p1514
sbag1
(g2
g3
Ntp1515
Rp1516
(dp1517
g7
g8
sg9
V3HO4MYYR12PH0HGR4ND0PRM5CR36UD
p1518
sbag1
(g2
g3
Ntp1519
Rp1520
(dp1521
g7
g8
sg9
V3UV0D2KX1MKE2CFNQAPM6T1O6DI4FR
p1522
sbag1
(g2
g3
Ntp1523
Rp1524
(dp1525
g7
g8
sg9
V30F94FBDNRL86GIX094YVBMV7E7BTC
p1526
sbag1
(g2
g3
Ntp1527
Rp1528
(dp1529
g7
g8
sg9
V3909MD9T2ZIWUECGFG1ZFFDFJ2CEF7
p1530
sbag1
(g2
g3
Ntp1531
Rp1532
(dp1533
g7
g8
sg9
V3QE4DGPGBRCKGCBI1UV4OE107SI4GQ
p1534
sbag1
(g2
g3
Ntp1535
Rp1536
(dp1537
g7
g8
sg9
V3FVBZG9CLJFHHKOS2ZQKXBNO5GFH0M
p1538
sbag1
(g2
g3
Ntp1539
Rp1540
(dp1541
g7
g8
sg9
V3EHVO81VN5MHO99AYIUKBG6YA8LH1P
p1542
sbag1
(g2
g3
Ntp1543
Rp1544
(dp1545
g7
g8
sg9
V306996CF6WL7XW6OYQKOP530FVG1BT
p1546
sbag1
(g2
g3
Ntp1547
Rp1548
(dp1549
g7
g8
sg9
V37VUR2VJ6AQQ71YUCQGJ0P9IXGG1C0
p1550
sbag1
(g2
g3
Ntp1551
Rp1552
(dp1553
g7
g8
sg9
V3WGCNLZJKF90CT48CMBUKVR0IGS1D0
p1554
sbag1
(g2
g3
Ntp1555
Rp1556
(dp1557
g7
g8
sg9
V3CRWSLD91K5OCFHMVH88FHR2K5UMOQ
p1558
sbag1
(g2
g3
Ntp1559
Rp1560
(dp1561
g7
g8
sg9
V34XASH8KLQN6XFTNAHLN4HWSUAQMP7
p1562
sbag1
(g2
g3
Ntp1563
Rp1564
(dp1565
g7
g8
sg9
V351S7I5UG9XGTMBPR5V3K0ZGQ1UJN4
p1566
sbag1
(g2
g3
Ntp1567
Rp1568
(dp1569
g7
g8
sg9
V33NOQL7T9O0LQUTP3P96QXXBK488ZQ
p1570
sbag1
(g2
g3
Ntp1571
Rp1572
(dp1573
g7
g8
sg9
V39I4RL8QGJIYG86TL0DM9ED1MSV4HP
p1574
sbag1
(g2
g3
Ntp1575
Rp1576
(dp1577
g7
g8
sg9
V3DIIW4IV8PWYC3HDRIV79QEGM5A4II
p1578
sbag1
(g2
g3
Ntp1579
Rp1580
(dp1581
g7
g8
sg9
V301KG0KX9CMODUR6HMUYGZG32EZH26
p1582
sbag1
(g2
g3
Ntp1583
Rp1584
(dp1585
g7
g8
sg9
V3KQC8JMJGCTDYCNPLM83Z9LV8SZH3H
p1586
sbag1
(g2
g3
Ntp1587
Rp1588
(dp1589
g7
g8
sg9
V3VQTAXTYN3MN6TXM0EU8078XQSEBU3
p1590
sbag1
(g2
g3
Ntp1591
Rp1592
(dp1593
g7
g8
sg9
V3ATYLI1PRT3YB7B1SKVGZPZLGBZJOJ
p1594
sbag1
(g2
g3
Ntp1595
Rp1596
(dp1597
g7
g8
sg9
V3S8A4GJRD34HDW5R9DN5LDOOQYC6V2
p1598
sbag1
(g2
g3
Ntp1599
Rp1600
(dp1601
g7
g8
sg9
V3ABAOCJ4R85RXRU2AU0C4MM2Z6CMQY
p1602
sbag1
(g2
g3
Ntp1603
Rp1604
(dp1605
g7
g8
sg9
V39I4RL8QGJIYG86TL0DM9ED1MSVH42
p1606
sbag1
(g2
g3
Ntp1607
Rp1608
(dp1609
g7
g8
sg9
V36AZSFEYZ41NJ8MM544DWTAG4ZNBVS
p1610
sbag1
(g2
g3
Ntp1611
Rp1612
(dp1613
g7
g8
sg9
V3CESM1J3EI4USL5WZNS17F72X7E6WC
p1614
sbag1
(g2
g3
Ntp1615
Rp1616
(dp1617
g7
g8
sg9
V3IWA71V4TIH9HLAM9SON9YL969K6X5
p1618
sbag1
(g2
g3
Ntp1619
Rp1620
(dp1621
g7
g8
sg9
V3OB6JN3A9QQR9S92N9PC9CW7VSEMRZ
p1622
sbag1
(g2
g3
Ntp1623
Rp1624
(dp1625
g7
g8
sg9
V31ANT7FQN83GCRATZ5WWE6JFMOQH57
p1626
sbag1
(g2
g3
Ntp1627
Rp1628
(dp1629
g7
g8
sg9
V3QGHA0EA0J10YXMRVE99IVTUB8PBW2
p1630
sbag1
(g2
g3
Ntp1631
Rp1632
(dp1633
g7
g8
sg9
V3HY86PZXPYJ54ZI88HMEQD9LIST1ET
p1634
sbag1
(g2
g3
Ntp1635
Rp1636
(dp1637
g7
g8
sg9
V30EV7DWJTVWYHQ0WEOAPSCSI8FE6YB
p1638
sbag1
(g2
g3
Ntp1639
Rp1640
(dp1641
g7
g8
sg9
V35JDMRECC4A28E8BQ07HX0DRKHCEG6
p1642
sbag1
(g2
g3
Ntp1643
Rp1644
(dp1645
g7
g8
sg9
V3OND0WXMHWGG8A3MA6PZI0PSZHPEH5
p1646
sbag1
(g2
g3
Ntp1647
Rp1648
(dp1649
g7
g8
sg9
V3ZURAPD288OXADI43S6K8VULUT81FB
p1650
sbag1
(g2
g3
Ntp1651
Rp1652
(dp1653
g7
g8
sg9
V32ZCLEW0BZLGW7N27K8VOP4BQGVJP0
p1654
sbag1
(g2
g3
Ntp1655
Rp1656
(dp1657
g7
g8
sg9
V3O71U79SRBQ3A79F2YPHZM13HUXMSN
p1658
sbag1
(g2
g3
Ntp1659
Rp1660
(dp1661
g7
g8
sg9
V3UDTAB6HH60O2E694N2SKUP0M3790O
p1662
sbag1
(g2
g3
Ntp1663
Rp1664
(dp1665
g7
g8
sg9
V3TTPFEFXCTLCVVA74O616CXFIJ1H6N
p1666
sbag1
(g2
g3
Ntp1667
Rp1668
(dp1669
g7
g8
sg9
V3WYZV0QBFJEFNXRH5J5VKE71KAVBXV
p1670
sbag1
(g2
g3
Ntp1671
Rp1672
(dp1673
g7
g8
sg9
V38DCH97KHH31WJOH7XNKOUULVCHJQR
p1674
sbag1
(g2
g3
Ntp1675
Rp1676
(dp1677
g7
g8
sg9
V3MD8CKRQZZO18K3HKCCKTK4QRYJJRS
p1678
sbag1
(g2
g3
Ntp1679
Rp1680
(dp1681
g7
g8
sg9
V3K2CEDRACB24P7MURYU79RXPJDBMTC
p1682
sbag1
(g2
g3
Ntp1683
Rp1684
(dp1685
g7
g8
sg9
V3SNR5F7R92UG45E6GO7KICQ7ZU4EIY
p1686
sbag1
(g2
g3
Ntp1687
Rp1688
(dp1689
g7
g8
sg9
V3CVBMEMMXBHVZVOCNYBTCQXBDULH7M
p1690
sbag1
(g2
g3
Ntp1691
Rp1692
(dp1693
g7
g8
sg9
V3EGKVCRQFWT4N2HRAFRX3SEAMGPBY1
p1694
sbag1
(g2
g3
Ntp1695
Rp1696
(dp1697
g7
g8
sg9
V3M93N4X8HKOD9Z3UZ1CPJU9MD02JSG
p1698
sbag1
(g2
g3
Ntp1699
Rp1700
(dp1701
g7
g8
sg9
V3FDWKV9VCN3JPK1JR3KHENJR2RIMU3
p1702
sbag1
(g2
g3
Ntp1703
Rp1704
(dp1705
g7
g8
sg9
V3TZDZ3Y0JS7O93RR066SYZ8ARVD91R
p1706
sbag1
(g2
g3
Ntp1707
Rp1708
(dp1709
g7
g8
sg9
V3EHIMLB7F70ZZ9TVX33ZQQT6OERH89
p1710
sbag1
(g2
g3
Ntp1711
Rp1712
(dp1713
g7
g8
sg9
V3W1K7D6QSBI4SSRW61TGHZNCSATBZS
p1714
sbag1
(g2
g3
Ntp1715
Rp1716
(dp1717
g7
g8
sg9
V389A2A304OJQ0CDCG7CJMKQ8SOAC08
p1718
sbag1
(g2
g3
Ntp1719
Rp1720
(dp1721
g7
g8
sg9
V3S1WOPCJFGUCZGYCY6SKUD57C9TEJA
p1722
sbag1
(g2
g3
Ntp1723
Rp1724
(dp1725
g7
g8
sg9
V366FYU4PTGQ7A04UGRSWVS5KRYTEK9
p1726
sbag1
(g2
g3
Ntp1727
Rp1728
(dp1729
g7
g8
sg9
V3BPP3MA3TCLIU6MC1R4XASIZGYYELC
p1730
sbag1
(g2
g3
Ntp1731
Rp1732
(dp1733
g7
g8
sg9
V3UZUVSO3P7W20O4X135CA5XOG3OEME
p1734
sbag1
(g2
g3
Ntp1735
Rp1736
(dp1737
g7
g8
sg9
V37VUR2VJ6AQQ71YUCQGJ0P9IXGGC1B
p1738
sbag1
(g2
g3
Ntp1739
Rp1740
(dp1741
g7
g8
sg9
V3TFJJUELSHQXWMGQVUGX58JNPMUC2S
p1742
sbag1
(g2
g3
Ntp1743
Rp1744
(dp1745
g7
g8
sg9
V3IZVJEBJ6ALYMGA1AAC86J1KE9I6Z2
p1746
sbag1
(g2
g3
Ntp1747
Rp1748
(dp1749
g7
g8
sg9
V3FJ2RVH25Z7VYO9NJA663IIFJ1R928
p1750
sbag1
(g2
g3
Ntp1751
Rp1752
(dp1753
g7
g8
sg9
V30OITAWPBQ4ZDEC52V9DQMOH8K9H9Y
p1754
sbag1
(g2
g3
Ntp1755
Rp1756
(dp1757
g7
g8
sg9
V3VDVA3ILIDG3ODEZECC2QGUXV881GA
p1758
sbag1
(g2
g3
Ntp1759
Rp1760
(dp1761
g7
g8
sg9
V3I4E7AFQ2K0EOZG9O1HFTZ58FJGJT5
p1762
sbag1
(g2
g3
Ntp1763
Rp1764
(dp1765
g7
g8
sg9
V3Z8UJEJOCZEKJ656NAKBMSN7PFR93J
p1766
sbag1
(g2
g3
Ntp1767
Rp1768
(dp1769
g7
g8
sg9
V3O0M2G5VC63512OANOPUWXFD3FN944
p1770
sbag1
(g2
g3
Ntp1771
Rp1772
(dp1773
g7
g8
sg9
V3DWNFENNE3WU7E1J90G7LRTGZKZ4JU
p1774
sbag1
(g2
g3
Ntp1775
Rp1776
(dp1777
g7
g8
sg9
V3D4BBDG7ZHXMH4C9ZUU2OIOFV0UC33
p1778
sbag1
(g2
g3
Ntp1779
Rp1780
(dp1781
g7
g8
sg9
V32W3UF2EZOM7Z0VDZ8ZLYNGL90QC4O
p1782
sbag1
(g2
g3
Ntp1783
Rp1784
(dp1785
g7
g8
sg9
V3DFYDSXB2W1TOCVYO67PYVRAYXNJUW
p1786
sbag1
(g2
g3
Ntp1787
Rp1788
(dp1789
g7
g8
sg9
V3OZ4VAIBEXGT1RKYTWHUUHTTC4WJVL
p1790
sbag1
(g2
g3
Ntp1791
Rp1792
(dp1793
g7
g8
sg9
V344M16OZKIG8I6PXD4KCNKMOLTYENE
p1794
sbag1
(g2
g3
Ntp1795
Rp1796
(dp1797
g7
g8
sg9
V3UOMW19E6D7PVJZDDDIV3FMZ9WLC5T
p1798
sbag1
(g2
g3
Ntp1799
Rp1800
(dp1801
g7
g8
sg9
V385MDVINFCG6GGK3J6MQGJC7JDYJWV
p1802
sbag1
(g2
g3
Ntp1803
Rp1804
(dp1805
g7
g8
sg9
V36KM3FWE3RDKOVIGPQ486YYURDJ70A
p1806
sbag1
(g2
g3
Ntp1807
Rp1808
(dp1809
g7
g8
sg9
V3QX22DUVOOIJ2ZQJWTUMA9LAGYRMVS
p1810
sbag1
(g2
g3
Ntp1811
Rp1812
(dp1813
g7
g8
sg9
V39WSF6KUV2MQ0RP9EJKP29MTB33EOT
p1814
sbag1
(g2
g3
Ntp1815
Rp1816
(dp1817
g7
g8
sg9
V3R16PJFTS3SPIY71RLGJM6TTE9Z4KT
p1818
sbag1
(g2
g3
Ntp1819
Rp1820
(dp1821
g7
g8
sg9
V3EHVO81VN5MHO99AYIUKBG6YA8L1H9
p1822
sbag1
(g2
g3
Ntp1823
Rp1824
(dp1825
g7
g8
sg9
V3566S7OX5DKKVK3YL988K3H4W5P71D
p1826
sbag1
(g2
g3
Ntp1827
Rp1828
(dp1829
g7
g8
sg9
V3A3KKYU7P3IWHOQOM3ZIWB4ON7TMW2
p1830
sbag1
(g2
g3
Ntp1831
Rp1832
(dp1833
g7
g8
sg9
V3126F2F5F848LR1ATJX4R9RJL8ZEPA
p1834
sbag1
(g2
g3
Ntp1835
Rp1836
(dp1837
g7
g8
sg9
V37OPIVELUU4DIXMAU1NDMHZ1E2RHAD
p1838
sbag1
(g2
g3
Ntp1839
Rp1840
(dp1841
g7
g8
sg9
V3M7OI89LVYPLENZRIWS0VL0Z5RWC69
p1842
sbag1
(g2
g3
Ntp1843
Rp1844
(dp1845
g7
g8
sg9
V3EN4YVUOUCTL5GPTTBICI2QESF4JXO
p1846
sbag1
(g2
g3
Ntp1847
Rp1848
(dp1849
g7
g8
sg9
V3W5PY7V3UP8A5LF3Y74E1GXNULYJYU
p1850
sbag1
(g2
g3
Ntp1851
Rp1852
(dp1853
g7
g8
sg9
V3GL25Y6843VB6OVEW8V4YUIVW9ZMXV
p1854
sbag1
(g2
g3
Ntp1855
Rp1856
(dp1857
g7
g8
sg9
V37G6BXQPLQMTL32PTWCTREHTQ4LEQ1
p1858
sbag1
(g2
g3
Ntp1859
Rp1860
(dp1861
g7
g8
sg9
V37VE3DA4YUII17R20FN9HSJ7WKCHB8
p1862
sbag1
(g2
g3
Ntp1863
Rp1864
(dp1865
g7
g8
sg9
V3IH9TRB0FB0HK4KU40C5BS7DAL01I2
p1866
sbag1
(g2
g3
Ntp1867
Rp1868
(dp1869
g7
g8
sg9
V3Y3N5A7N4GA06TLO14H6H8P4YFTMY1
p1870
sbag1
(g2
g3
Ntp1871
Rp1872
(dp1873
g7
g8
sg9
V3GONHBMNHVZ0BJVTXQJPVFY649XMZS
p1874
sbag1
(g2
g3
Ntp1875
Rp1876
(dp1877
g7
g8
sg9
V3VCK0Q0PO5F9RGA35XLX2VKKRSON01
p1878
sbag1
(g2
g3
Ntp1879
Rp1880
(dp1881
g7
g8
sg9
V3WKGUBL7SZN024PJCLSK16683944LW
p1882
sbag1
(g2
g3
Ntp1883
Rp1884
(dp1885
g7
g8
sg9
V3EQPA8A374XAABP8UT6XFN6P0F2JZL
p1886
sbag1
(g2
g3
Ntp1887
Rp1888
(dp1889
g7
g8
sg9
V3UY4PIS8QRM9Y5VL1GPXG03UWKUN14
p1890
sbag1
(g2
g3
Ntp1891
Rp1892
(dp1893
g7
g8
sg9
V3GS542CVJVONXLSA1T841PLR3BI959
p1894
sbag1
(g2
g3
Ntp1895
Rp1896
(dp1897
g7
g8
sg9
V3RQVKZ7ZRKKRK5LU4D8MPMR9OB372U
p1898
sbag1
(g2
g3
Ntp1899
Rp1900
(dp1901
g7
g8
sg9
V38B7Q9C28G6JGPSO6CI9TVZRZ6T96P
p1902
sbag1
(g2
g3
Ntp1903
Rp1904
(dp1905
g7
g8
sg9
V3RDTX9JRTY22KP6TPMN1Z9ZNUHD97O
p1906
sbag1
(g2
g3
Ntp1907
Rp1908
(dp1909
g7
g8
sg9
V3FULMHZ7OUYK8M74CXTZ1JLX3EU4MY
p1910
sbag1
(g2
g3
Ntp1911
Rp1912
(dp1913
g7
g8
sg9
V3BFNCI9LYKRG5NHD8DMR8WW1UP3735
p1914
sbag1
(g2
g3
Ntp1915
Rp1916
(dp1917
g7
g8
sg9
V3GITHABACYMGNQDHKKPBLJDZOQ8N2L
p1918
sbag1
(g2
g3
Ntp1919
Rp1920
(dp1921
g7
g8
sg9
V3LG268AV387TX4HP6B1TW4RYMQNER2
p1922
sbag1
(g2
g3
Ntp1923
Rp1924
(dp1925
g7
g8
sg9
V3LCXHSGDLT75YJH2L01YMEWU8S6ESQ
p1926
sbag1
(g2
g3
Ntp1927
Rp1928
(dp1929
g7
g8
sg9
V3TZ0XG8CBUL6K3BCZRF7D9VI51J98B
p1930
sbag1
(g2
g3
Ntp1931
Rp1932
(dp1933
g7
g8
sg9
V3EKZL9T8Y8N1BCJ8EFJ4SCPPE5CHCF
p1934
sbag1
(g2
g3
Ntp1935
Rp1936
(dp1937
g7
g8
sg9
V359AP8GAGGL4INDW16XS1Z0V02GC78
p1938
sbag1
(g2
g3
Ntp1939
Rp1940
(dp1941
g7
g8
sg9
V307FVKVSYRG1NJ0H8RRAI1O78PZ74Q
p1942
sbag1
(g2
g3
Ntp1943
Rp1944
(dp1945
g7
g8
sg9
V3H781YYV6TJ6DJUHA06OWJSGABKETF
p1946
sbag1
(g2
g3
Ntp1947
Rp1948
(dp1949
g7
g8
sg9
V3F6045TU7DP6Y8UM4JLLD5QTP71990
p1950
sbag1
(g2
g3
Ntp1951
Rp1952
(dp1953
g7
g8
sg9
V335HHSX8CD6BG4PMEBEFCI77Z5OHDF
p1954
sbag1
(g2
g3
Ntp1955
Rp1956
(dp1957
g7
g8
sg9
V3XEDXEGFX3P8JAP08KTHA33GXXJK0T
p1958
sbag1
(g2
g3
Ntp1959
Rp1960
(dp1961
g7
g8
sg9
V3SZYX62S5G1JJ24HMWAKNTUL8LU75V
p1962
sbag1
(g2
g3
Ntp1963
Rp1964
(dp1965
g7
g8
sg9
V307L9TDWJYT58890OK3G4TIRU48N3W
p1966
sbag1
(g2
g3
Ntp1967
Rp1968
(dp1969
g7
g8
sg9
V3CIS7GGG65KLDW96A5WY1FEITPREU6
p1970
sbag1
(g2
g3
Ntp1971
Rp1972
(dp1973
g7
g8
sg9
V3OND0WXMHWGG8A3MA6PZI0PSZHPHE8
p1974
sbag1
(g2
g3
Ntp1975
Rp1976
(dp1977
g7
g8
sg9
V37VHPF5VYC48I1IFBBPYFZWQBMMC8V
p1978
sbag1
(g2
g3
Ntp1979
Rp1980
(dp1981
g7
g8
sg9
V3IVEC1GSLP0DFF40MIX5NTMDN0P1JE
p1982
sbag1
(g2
g3
Ntp1983
Rp1984
(dp1985
g7
g8
sg9
V3W0XM68YZPW8QZAI43XHO8MQ2PPK1W
p1986
sbag1
(g2
g3
Ntp1987
Rp1988
(dp1989
g7
g8
sg9
V3IKMEYR0LWWFFKSEN7XVTRWVUV3K2D
p1990
sbag1
(g2
g3
Ntp1991
Rp1992
(dp1993
g7
g8
sg9
V329E6HTMSW3402OXR7B0C11N093K3O
p1994
sbag1
(g2
g3
Ntp1995
Rp1996
(dp1997
g7
g8
sg9
V3PZDSVZ3J5IQQ4S4OY8ZEYAX8444NY
p1998
sbag1
(g2
g3
Ntp1999
Rp2000
(dp2001
g7
g8
sg9
V3T2HW4QDUV88W61PG3VCFVR1VS4C9K
p2002
sbag1
(g2
g3
Ntp2003
Rp2004
(dp2005
g7
g8
sg9
V302OLP89DZ8M1PBU899CBQ2L1AMCAZ
p2006
sbag1
(g2
g3
Ntp2007
Rp2008
(dp2009
g7
g8
sg9
V3R16PJFTS3SPIY71RLGJM6TTE9ZK49
p2010
sbag1
(g2
g3
Ntp2011
Rp2012
(dp2013
g7
g8
sg9
V36JW4WBR06L8EO3I5H950IASBI4HFQ
p2014
sbag1
(g2
g3
Ntp2015
Rp2016
(dp2017
g7
g8
sg9
V32204AGAABDESOZDG1FNI3A4CX4HGP
p2018
sbag1
(g2
g3
Ntp2019
Rp2020
(dp2021
g7
g8
sg9
V3JTPR5MTZSD7EHB15QZTRYZ7E5UK5E
p2022
sbag1
(g2
g3
Ntp2023
Rp2024
(dp2025
g7
g8
sg9
V3BCRDCM0ODV3XLBFA99YJ4D7A05K6U
p2026
sbag1
(g2
g3
Ntp2027
Rp2028
(dp2029
g7
g8
sg9
V3UEDKCTP9VRM1LPKTJEQPID35BPK7T
p2030
sbag1
(g2
g3
Ntp2031
Rp2032
(dp2033
g7
g8
sg9
V3KI0JD2ZU1JF264VRFKPFZ8L4G576B
p2034
sbag1
(g2
g3
Ntp2035
Rp2036
(dp2037
g7
g8
sg9
V3L60IFZKF3JSSKUO07X533M5RXHHHO
p2038
sbag1
(g2
g3
Ntp2039
Rp2040
(dp2041
g7
g8
sg9
V309D674SHZMRKZGMEN9861MRJS7CBU
p2042
sbag1
(g2
g3
Ntp2043
Rp2044
(dp2045
g7
g8
sg9
V3W0KKJIARRAQ1ZU33O6W3I9YGVVK8G
p2046
sbag1
(g2
g3
Ntp2047
Rp2048
(dp2049
g7
g8
sg9
V33KMQD9OFJFY66I0APPHLD8HZRP77A
p2050
sbag1
(g2
g3
Ntp2051
Rp2052
(dp2053
g7
g8
sg9
V3URJ6VVYUPO88PSGPD8CTNA2YE94OD
p2054
sbag1
(g2
g3
Ntp2055
Rp2056
(dp2057
g7
g8
sg9
V3P6ENY9P79XSOF586PFQ3FNKRAWHIH
p2058
sbag1
(g2
g3
Ntp2059
Rp2060
(dp2061
g7
g8
sg9
V37YYO3NWHDRAU48SSN53HLS91D7CC1
p2062
sbag1
(g2
g3
Ntp2063
Rp2064
(dp2065
g7
g8
sg9
V356TQKY9XFY26KNJKUHNZD4CABV78X
p2066
sbag1
(g2
g3
Ntp2067
Rp2068
(dp2069
g7
g8
sg9
V3N2YPY1GI6ZLQBY6FV63X1G17W0EVV
p2070
sbag1
(g2
g3
Ntp2071
Rp2072
(dp2073
g7
g8
sg9
V3M67TQBQQHPK3R4RWPZL901DVPJ9AF
p2074
sbag1
(g2
g3
Ntp2075
Rp2076
(dp2077
g7
g8
sg9
V3PKJ68EHDNXOJQPEO70QFG2K4PLHJT
p2078
sbag1
(g2
g3
Ntp2079
Rp2080
(dp2081
g7
g8
sg9
V33P2GD6NRNTJUAVW6S02GV2XJELHKS
p2082
sbag1
(g2
g3
Ntp2083
Rp2084
(dp2085
g7
g8
sg9
V3WJGKMRWVIAKZWE6SJ0E1RARMDJCD1
p2086
sbag1
(g2
g3
Ntp2087
Rp2088
(dp2089
g7
g8
sg9
V3H1C3QRA01KPR2S6OEBY79SCMPKCEU
p2090
sbag1
(g2
g3
Ntp2091
Rp2092
(dp2093
g7
g8
sg9
V3W0XM68YZPW8QZAI43XHO8MQ2PP1KD
p2094
sbag1
(g2
g3
Ntp2095
Rp2096
(dp2097
g7
g8
sg9
V3RDTX9JRTY22KP6TPMN1Z9ZNUHD79M
p2098
sbag1
(g2
g3
Ntp2099
Rp2100
(dp2101
g7
g8
sg9
V388CL5C1RJOUEGDERSC3VVFC8EQHLV
p2102
sbag1
(g2
g3
Ntp2103
Rp2104
(dp2105
g7
g8
sg9
V3ZXV7Q5FJBPHXGS2JPV4PRDCYQZCFC
p2106
sbag1
(g2
g3
Ntp2107
Rp2108
(dp2109
g7
g8
sg9
V3VGZ74AYTGHNBGOXU91M7CDOZ5ZCGB
p2110
sbag1
(g2
g3
Ntp2111
Rp2112
(dp2113
g7
g8
sg9
V31J7RYECZLRJA5S0P39I38Z5RPU1LG
p2114
sbag1
(g2
g3
Ntp2115
Rp2116
(dp2117
g7
g8
sg9
V3MXX6RQ9EV6QTP4H4DLRINFS8J54PU
p2118
sbag1
(g2
g3
Ntp2119
Rp2120
(dp2121
g7
g8
sg9
V3KTCJ4SCVG23GNALPFAX3LEURUK1MI
p2122
sbag1
(g2
g3
Ntp2123
Rp2124
(dp2125
g7
g8
sg9
V3UY4PIS8QRM9Y5VL1GPXG03UWKU1NI
p2126
sbag1
(g2
g3
Ntp2127
Rp2128
(dp2129
g7
g8
sg9
V3I7KR83SNAEQF4DD8GCA3E4901DK95
p2130
sbag1
(g2
g3
Ntp2131
Rp2132
(dp2133
g7
g8
sg9
V3YD0MU1NC22GP8GYHS11V4A70ZV7A1
p2134
sbag1
(g2
g3
Ntp2135
Rp2136
(dp2137
g7
g8
sg9
V3PZDSVZ3J5IQQ4S4OY8ZEYAX844N4H
p2138
sbag1
(g2
g3
Ntp2139
Rp2140
(dp2141
g7
g8
sg9
V3P7RGTLO6EE4KNNI0MQAZ9FT6JVKAK
p2142
sbag1
(g2
g3
Ntp2143
Rp2144
(dp2145
g7
g8
sg9
V3PEG1BH7AES93XSA60Q6UKZZO1GKBF
p2146
sbag1
(g2
g3
Ntp2147
Rp2148
(dp2149
g7
g8
sg9
V3YKP7CX6G2GL8ILQN61XQFUDIHG7BW
p2150
sbag1
(g2
g3
Ntp2151
Rp2152
(dp2153
g7
g8
sg9
V3HRWUH63QU38MNW423R9JQGB80ZN5M
p2154
sbag1
(g2
g3
Ntp2155
Rp2156
(dp2157
g7
g8
sg9
V3SBX2M1TKDOBT15W4Q0GIS52DFR4QL
p2158
sbag1
(g2
g3
Ntp2159
Rp2160
(dp2161
g7
g8
sg9
V3EKZL9T8Y8N1BCJ8EFJ4SCPPE5CCHA
p2162
sbag1
(g2
g3
Ntp2163
Rp2164
(dp2165
g7
g8
sg9
V3IKDQS3DQE1177USKX1PSOQ4EIRCI3
p2166
sbag1
(g2
g3
Ntp2167
Rp2168
(dp2169
g7
g8
sg9
V36BTXXLZ2V9B52KWH5PGNIF791T4RM
p2170
sbag1
(g2
g3
Ntp2171
Rp2172
(dp2173
g7
g8
sg9
V367O8HRHKG9N6HK9WUPLDSK3V3C4SA
p2174
sbag1
(g2
g3
Ntp2175
Rp2176
(dp2177
g7
g8
sg9
V3RIHDBQ1NEZEKYVZR4DIV8U18JGHMX
p2178
sbag1
(g2
g3
Ntp2179
Rp2180
(dp2181
g7
g8
sg9
V3IYI9285WS1X2IEY2FMP4P54RXGCJF
p2182
sbag1
(g2
g3
Ntp2183
Rp2184
(dp2185
g7
g8
sg9
V3W31J70BASXSD2KGK0M1545H6MGCKE
p2186
sbag1
(g2
g3
Ntp2187
Rp2188
(dp2189
g7
g8
sg9
V3W31J70BASXSD2KGK0M1545H6MGKCM
p2190
sbag1
(g2
g3
Ntp2191
Rp2192
(dp2193
g7
g8
sg9
V359AP8GAGGL4INDW16XS1Z0V02G7C3
p2194
sbag1
(g2
g3
Ntp2195
Rp2196
(dp2197
g7
g8
sg9
V322ZSN9Z5GLOLHXOLUUBNXGPXMQ4TZ
p2198
sbag1
(g2
g3
Ntp2199
Rp2200
(dp2201
g7
g8
sg9
V3ZQA3IO31BSRGQVX2VPAVP3ZMUZ1OX
p2202
sbag1
(g2
g3
Ntp2203
Rp2204
(dp2205
g7
g8
sg9
V3LOJFQ4BOXG2IUQUKWHCPANZRMSKDM
p2206
sbag1
(g2
g3
Ntp2207
Rp2208
(dp2209
g7
g8
sg9
V3UUSLRKAUL4ENFJA12S3L5IDL2S7D3
p2210
sbag1
(g2
g3
Ntp2211
Rp2212
(dp2213
g7
g8
sg9
V3FCO4VKOZ4EJFLXAXX3NRN0YLET7EW
p2214
sbag1
(g2
g3
Ntp2215
Rp2216
(dp2217
g7
g8
sg9
V3X878VYTIEJBLZX6S8NT95LYXF87FE
p2218
sbag1
(g2
g3
Ntp2219
Rp2220
(dp2221
g7
g8
sg9
V31MBOZ6PAOS3X82Y50Y2K4IWVMLCLH
p2222
sbag1
(g2
g3
Ntp2223
Rp2224
(dp2225
g7
g8
sg9
V366FYU4PTGQ7A04UGRSWVS5KRYTKEF
p2226
sbag1
(g2
g3
Ntp2227
Rp2228
(dp2229
g7
g8
sg9
V3TRB893CSJBHZZT13STBRQLAYU87GD
p2230
sbag1
(g2
g3
Ntp2231
Rp2232
(dp2233
g7
g8
sg9
V3MDWE879UH3PM19J23ZH4BLJD749BA
p2234
sbag1
(g2
g3
Ntp2235
Rp2236
(dp2237
g7
g8
sg9
V3XDJY5RK5SM3LUCDLZKLST2RG0X4UQ
p2238
sbag1
(g2
g3
Ntp2239
Rp2240
(dp2241
g7
g8
sg9
V378G7J1SJLZY50YB55BZJ3ZFE52EW5
p2242
sbag1
(g2
g3
Ntp2243
Rp2244
(dp2245
g7
g8
sg9
V3T2HW4QDUV88W61PG3VCFVR1VS49CH
p2246
sbag1
(g2
g3
Ntp2247
Rp2248
(dp2249
g7
g8
sg9
V38XPGNCKHT13Y91DQPUQOF4AU764VF
p2250
sbag1
(g2
g3
Ntp2251
Rp2252
(dp2253
g7
g8
sg9
V3OEWW2KGQJCL8LB9IO95WR48BR2ODA
p2254
sbag1
(g2
g3
Ntp2255
Rp2256
(dp2257
g7
g8
sg9
V39WSF6KUV2MQ0RP9EJKP29MTB33OE3
p2258
sbag1
(g2
g3
Ntp2259
Rp2260
(dp2261
g7
g8
sg9
V31N9JPQXIPJK2GGZ35SI8NJ1D9QHNX
p2262
sbag1
(g2
g3
Ntp2263
Rp2264
(dp2265
g7
g8
sg9
V3RWO3EJELHA91Q7YHV2PKP8PWZV1PE
p2266
sbag1
(g2
g3
Ntp2267
Rp2268
(dp2269
g7
g8
sg9
V3O2Y2UIUCQVZGE4QB2C2DAQK3Z8KFX
p2270
sbag1
(g2
g3
Ntp2271
Rp2272
(dp2273
g7
g8
sg9
V3DQYSJDTYLCDU031FA7LLMDMN78EXY
p2274
sbag1
(g2
g3
Ntp2275
Rp2276
(dp2277
g7
g8
sg9
V3V8JSVE8YYR2U5TBK6TN40KVPD2EY4
p2278
sbag1
(g2
g3
Ntp2279
Rp2280
(dp2281
g7
g8
sg9
V3RSBJ6YZECRI65P59U4VKR7TN4IOFL
p2282
sbag1
(g2
g3
Ntp2283
Rp2284
(dp2285
g7
g8
sg9
V3U18MJKL1UNTL85JHDEHXWML0HLCNJ
p2286
sbag1
(g2
g3
Ntp2287
Rp2288
(dp2289
g7
g8
sg9
V3XAOZ9UYRZSU128DH8HEKUYZ1VH1Q5
p2290
sbag1
(g2
g3
Ntp2291
Rp2292
(dp2293
g7
g8
sg9
V3BAKUKE49HDUD3NDUN6EPK84XHJ1R6
p2294
sbag1
(g2
g3
Ntp2295
Rp2296
(dp2297
g7
g8
sg9
V3KL228NDMVN5UE0LMMIKVVQW4E8KGW
p2298
sbag1
(g2
g3
Ntp2299
Rp2300
(dp2301
g7
g8
sg9
V3CVBMEMMXBHVZVOCNYBTCQXBDUL7HC
p2302
sbag1
(g2
g3
Ntp2303
Rp2304
(dp2305
g7
g8
sg9
V3GVPRXWRPHVVVQZWTGTEC2YQD707I5
p2306
sbag1
(g2
g3
Ntp2307
Rp2308
(dp2309
g7
g8
sg9
V3G9UA71JVVVRQ1J2BYEEO3DQQMP7JH
p2310
sbag1
(g2
g3
Ntp2311
Rp2312
(dp2313
g7
g8
sg9
V39AYGO6AFFL45RWI7M1EBWUB4VAN62
p2314
sbag1
(g2
g3
Ntp2315
Rp2316
(dp2317
g7
g8
sg9
V3SCKNODZ0XHN9RANQW66HAU7Z6UN71
p2318
sbag1
(g2
g3
Ntp2319
Rp2320
(dp2321
g7
g8
sg9
V3DTJ4WT8BDG2ZV3GGSV6I7TXV76EZV
p2322
sbag1
(g2
g3
Ntp2323
Rp2324
(dp2325
g7
g8
sg9
V3NBFJK3IOHJOK5L0KEAD2C75OJIOGK
p2326
sbag1
(g2
g3
Ntp2327
Rp2328
(dp2329
g7
g8
sg9
V3B6F54KMR2D6EINQ9C6JFUD0JJ21SU
p2330
sbag1
(g2
g3
Ntp2331
Rp2332
(dp2333
g7
g8
sg9
V3UEDKCTP9VRM1LPKTJEQPID35BP7KG
p2334
sbag1
(g2
g3
Ntp2335
Rp2336
(dp2337
g7
g8
sg9
V3ZXNP4Z39RMXLR72EJQR4IQIUBU7LJ
p2338
sbag1
(g2
g3
Ntp2339
Rp2340
(dp2341
g7
g8
sg9
V3UYRNV2KIT0R95F601YCVAQ2AQ0N8O
p2342
sbag1
(g2
g3
Ntp2343
Rp2344
(dp2345
g7
g8
sg9
V3INZSNUD80RI1Y73GZQNZ19JGSG9DH
p2346
sbag1
(g2
g3
Ntp2347
Rp2348
(dp2349
g7
g8
sg9
V3I7SHAD35MXHR9PNEVR64V57UGK7ML
p2350
sbag1
(g2
g3
Ntp2351
Rp2352
(dp2353
g7
g8
sg9
V3G5RUKN2EC4RNAYG5T4QV6LDUWIN9D
p2354
sbag1
(g2
g3
Ntp2355
Rp2356
(dp2357
g7
g8
sg9
V3087LXLJ6MHX3OXM792KUQBBP12F0M
p2358
sbag1
(g2
g3
Ntp2359
Rp2360
(dp2361
g7
g8
sg9
V335VBRURDJ1NT4L3CU175JR4G4H9EA
p2362
sbag1
(g2
g3
Ntp2363
Rp2364
(dp2365
g7
g8
sg9
V36FFXPMST9P2K1GB4KSVNCJ63JVOHJ
p2366
sbag1
(g2
g3
Ntp2367
Rp2368
(dp2369
g7
g8
sg9
V3SCKNODZ0XHN9RANQW66HAU7Z6U7NL
p2370
sbag1
(g2
g3
Ntp2371
Rp2372
(dp2373
g7
g8
sg9
V3X4Q1O9UBHN5RCAZRB6JWZUCPGZ7O0
p2374
sbag1
(g2
g3
Ntp2375
Rp2376
(dp2377
g7
g8
sg9
V3N5YJ55YXG45ST8LXZIQR1WX0E0NAS
p2378
sbag1
(g2
g3
Ntp2379
Rp2380
(dp2381
g7
g8
sg9
V3AFT28WXLF32GWRVA2AGNOKL3WAOIC
p2382
sbag1
(g2
g3
Ntp2383
Rp2384
(dp2385
g7
g8
sg9
V36FFXPMST9P2K1GB4KSVNCJ63JVHOC
p2386
sbag1
(g2
g3
Ntp2387
Rp2388
(dp2389
g7
g8
sg9
V3ZURAPD288OXADI43S6K8VULUT8F1P
p2390
sbag1
(g2
g3
Ntp2391
Rp2392
(dp2393
g7
g8
sg9
V3LEG2HW4UFO4ZY00MW6YDE4QMZMF26
p2394
sbag1
(g2
g3
Ntp2395
Rp2396
(dp2397
g7
g8
sg9
V3ATYLI1PRT3YB7B1SKVGZPZLGBZOJO
p2398
sbag1
(g2
g3
Ntp2399
Rp2400
(dp2401
g7
g8
sg9
V3OYHVNTV5TZTMRHJA5VS04ZYV0ZOKN
p2402
sbag1
(g2
g3
Ntp2403
Rp2404
(dp2405
g7
g8
sg9
V3THR0FZ95PU46XZ1V57TF4CDK04OLQ
p2406
sbag1
(g2
g3
Ntp2407
Rp2408
(dp2409
g7
g8
sg9
V3YLTXLH3DF7K51SCJK5ACCOWDORHPT
p2410
sbag1
(g2
g3
Ntp2411
Rp2412
(dp2413
g7
g8
sg9
V3ZTE0JGGCETB3T5VISEUCLMQQRQCOY
p2414
sbag1
(g2
g3
Ntp2415
Rp2416
(dp2417
g7
g8
sg9
V3Y3CZJSZ9KUT1LOWVA8QSALL9XOR5E
p2418
sbag1
(g2
g3
Ntp2419
Rp2420
(dp2421
g7
g8
sg9
V3538U0YQ1FVTKGWJQWK3WO9ISDMF3H
p2422
sbag1
(g2
g3
Ntp2423
Rp2424
(dp2425
g7
g8
sg9
V3L1EFR8WWT6FZILZ75LDN1C4S5W9FS
p2426
sbag1
(g2
g3
Ntp2427
Rp2428
(dp2429
g7
g8
sg9
V3CRWSLD91K5OCFHMVH88FHR2K5UOMS
p2430
sbag1
(g2
g3
Ntp2431
Rp2432
(dp2433
g7
g8
sg9
V3RZS0FBRWKBTOTHWXSR91LRG0WMCPF
p2434
sbag1
(g2
g3
Ntp2435
Rp2436
(dp2437
g7
g8
sg9
V371QPA24C2P7TI05YCB9PZ9ML2G1TJ
p2438
sbag1
(g2
g3
Ntp2439
Rp2440
(dp2441
g7
g8
sg9
V3UV0D2KX1MKE2CFNQAPM6T1O6DIF42
p2442
sbag1
(g2
g3
Ntp2443
Rp2444
(dp2445
g7
g8
sg9
V3HKIF5DF6YYLDIHUIPRV5MCGTKW9GR
p2446
sbag1
(g2
g3
Ntp2447
Rp2448
(dp2449
g7
g8
sg9
V30OITAWPBQ4ZDEC52V9DQMOH8K99HQ
p2450
sbag1
(g2
g3
Ntp2451
Rp2452
(dp2453
g7
g8
sg9
V32CAVSKPCEQMTVFUYH1JUVVO4GN1UA
p2454
sbag1
(g2
g3
Ntp2455
Rp2456
(dp2457
g7
g8
sg9
V3NCN4N1H1GIAB3DD3DIMMCG3IWLNBN
p2458
sbag1
(g2
g3
Ntp2459
Rp2460
(dp2461
g7
g8
sg9
V3MNJFORX8B5WYVJN4F8WBL7269DF57
p2462
sbag1
(g2
g3
Ntp2463
Rp2464
(dp2465
g7
g8
sg9
V3E6L1VR4XWNSHZJ19YI13RL224OF6N
p2466
sbag1
(g2
g3
Ntp2467
Rp2468
(dp2469
g7
g8
sg9
V34OWYT6U3WIZ99NP8DRYQYPW8XO9IJ
p2470
sbag1
(g2
g3
Ntp2471
Rp2472
(dp2473
g7
g8
sg9
V34ZTTGSNJXP55DTRJXKZCHE6IKDHQK
p2474
sbag1
(g2
g3
Ntp2475
Rp2476
(dp2477
g7
g8
sg9
V3XDSWAMB22TEO5IBX56Y1QHQ5S8CQ6
p2478
sbag1
(g2
g3
Ntp2479
Rp2480
(dp2481
g7
g8
sg9
V33P2GD6NRNTJUAVW6S02GV2XJELKHV
p2482
sbag1
(g2
g3
Ntp2483
Rp2484
(dp2485
g7
g8
sg9
V3QMELQS6Y5CPKPOA0TIVKGZL5SZR6U
p2486
sbag1
(g2
g3
Ntp2487
Rp2488
(dp2489
g7
g8
sg9
V3U18MJKL1UNTL85JHDEHXWML0HLNCU
p2490
sbag1
(g2
g3
Ntp2491
Rp2492
(dp2493
g7
g8
sg9
V3X878VYTIEJBLZX6S8NT95LYXF8F7M
p2494
sbag1
(g2
g3
Ntp2495
Rp2496
(dp2497
g7
g8
sg9
V3BDORL6HKKEE06XBAKVY6GRV1EACR7
p2498
sbag1
(g2
g3
Ntp2499
Rp2500
(dp2501
g7
g8
sg9
V3DWGDA5POF5M6A4U37BOQHX7INW1VZ
p2502
sbag1
(g2
g3
Ntp2503
Rp2504
(dp2505
g7
g8
sg9
V37PGLWGSJT7JQ56GCAING73CJR0KIO
p2506
sbag1
(g2
g3
Ntp2507
Rp2508
(dp2509
g7
g8
sg9
V3421H3BM9AIV4K7VQVCY2Z4WLCD9JV
p2510
sbag1
(g2
g3
Ntp2511
Rp2512
(dp2513
g7
g8
sg9
V3MWOYZD5WVPUUX2M7IN8SWG2PV4ONS
p2514
sbag1
(g2
g3
Ntp2515
Rp2516
(dp2517
g7
g8
sg9
V3IZPORCT1FA5HE8RWC9ZH7OBE6FHRL
p2518
sbag1
(g2
g3
Ntp2519
Rp2520
(dp2521
g7
g8
sg9
V3B9J25CZ25EQ1LXOP9V3WQWRNGTCSV
p2522
sbag1
(g2
g3
Ntp2523
Rp2524
(dp2525
g7
g8
sg9
V3I7KR83SNAEQF4DD8GCA3E4901D9KU
p2526
sbag1
(g2
g3
Ntp2527
Rp2528
(dp2529
g7
g8
sg9
V3ROUCZ907FVCCI2Y8XNL7LG7F59OO7
p2530
sbag1
(g2
g3
Ntp2531
Rp2532
(dp2533
g7
g8
sg9
V3JU8CV4BRLDUXIEZNX00WLLXPA5OPO
p2534
sbag1
(g2
g3
Ntp2535
Rp2536
(dp2537
g7
g8
sg9
V3IVKZBIBJ0AHIT84B1947HT708YHS9
p2538
sbag1
(g2
g3
Ntp2539
Rp2540
(dp2541
g7
g8
sg9
V374UMBUHN5QRGLA3E90T6VSDPZ7CTK
p2542
sbag1
(g2
g3
Ntp2543
Rp2544
(dp2545
g7
g8
sg9
V39O0SQZVJN88OP2FJ3NNQUZH03JR7T
p2546
sbag1
(g2
g3
Ntp2547
Rp2548
(dp2549
g7
g8
sg9
V3EQVJH0T40MIXTLJ01EUHMPT2RCHTY
p2550
sbag1
(g2
g3
Ntp2551
Rp2552
(dp2553
g7
g8
sg9
V391FPZIE4CNXX6080644MIBVL5JHUP
p2554
sbag1
(g2
g3
Ntp2555
Rp2556
(dp2557
g7
g8
sg9
V3KLL7H3EGD2XALP85WE9I4DEZCSHVE
p2558
sbag1
(g2
g3
Ntp2559
Rp2560
(dp2561
g7
g8
sg9
V32FESTC2NHR6GYPSEEQ3BREF8DECUB
p2562
sbag1
(g2
g3
Ntp2563
Rp2564
(dp2565
g7
g8
sg9
V373L46LKP77FLGQMUS3NS8ICW6PKJ0
p2566
sbag1
(g2
g3
Ntp2567
Rp2568
(dp2569
g7
g8
sg9
V3BA7SXOG1JRCO37YT8FT4UVCBNPR8G
p2570
sbag1
(g2
g3
Ntp2571
Rp2572
(dp2573
g7
g8
sg9
V3JMQI2OLFZ63Q0BXH99SH243LHXNDU
p2574
sbag1
(g2
g3
Ntp2575
Rp2576
(dp2577
g7
g8
sg9
V344M16OZKIG8I6PXD4KCNKMOLTYNEN
p2578
sbag1
(g2
g3
Ntp2579
Rp2580
(dp2581
g7
g8
sg9
V34R3P23QHS2APAPDV6J546WS6LUHWO
p2582
sbag1
(g2
g3
Ntp2583
Rp2584
(dp2585
g7
g8
sg9
V3DZKABX2ZI66TDESJ4087DGYMKNCV0
p2586
sbag1
(g2
g3
Ntp2587
Rp2588
(dp2589
g7
g8
sg9
V3X52SWXE0X6J82EX9E54TFZCTTPCWA
p2590
sbag1
(g2
g3
Ntp2591
Rp2592
(dp2593
g7
g8
sg9
V3ZUE82NE0A2FLD2P2DFZN5HT8ZEF89
p2594
sbag1
(g2
g3
Ntp2595
Rp2596
(dp2597
g7
g8
sg9
V3L1EFR8WWT6FZILZ75LDN1C4S5WF9Y
p2598
sbag1
(g2
g3
Ntp2599
Rp2600
(dp2601
g7
g8
sg9
V3P888QFVX3VFXUFENAFPWQB7U6ROQF
p2602
sbag1
(g2
g3
Ntp2603
Rp2604
(dp2605
g7
g8
sg9
V338431Z1FLGF9VUE0P4P1GLCQSTORG
p2606
sbag1
(g2
g3
Ntp2607
Rp2608
(dp2609
g7
g8
sg9
V334ZEL5JX6GRAAURFE4URQQ8CUCOS4
p2610
sbag1
(g2
g3
Ntp2611
Rp2612
(dp2613
g7
g8
sg9
V3NQUW096N691ZAVVTGOBIEHOP1I9LX
p2614
sbag1
(g2
g3
Ntp2615
Rp2616
(dp2617
g7
g8
sg9
V3ZZAYRN1I6SSPA764E9K1VMUEDQOTT
p2618
sbag1
(g2
g3
Ntp2619
Rp2620
(dp2621
g7
g8
sg9
V3A9LA2FRWSFPEAU35BFR6PAZFN0HXH
p2622
sbag1
(g2
g3
Ntp2623
Rp2624
(dp2625
g7
g8
sg9
V3X2YVV51PU5ZLZ4ZTHGKCJGLPWY1W9
p2626
sbag1
(g2
g3
Ntp2627
Rp2628
(dp2629
g7
g8
sg9
V3L84EBDQ373AW0W4CD3ZTNIPBVPKKZ
p2630
sbag1
(g2
g3
Ntp2631
Rp2632
(dp2633
g7
g8
sg9
V3XH7ZM9YX2VC28Q8Y0L74QQNVT7R95
p2634
sbag1
(g2
g3
Ntp2635
Rp2636
(dp2637
g7
g8
sg9
V3M0556243SL0OKPT8F4I527OXUDNF5
p2638
sbag1
(g2
g3
Ntp2639
Rp2640
(dp2641
g7
g8
sg9
V3IJ95K7NDXD62KLOJZA0NN70Y9DNG4
p2642
sbag1
(g2
g3
Ntp2643
Rp2644
(dp2645
g7
g8
sg9
V33NKDW9FFXJYX2JNJJ1QVYDJ2VVCX3
p2646
sbag1
(g2
g3
Ntp2647
Rp2648
(dp2649
g7
g8
sg9
V3QREJ3J433YLG6EMXDF08NV40VUKL2
p2650
sbag1
(g2
g3
Ntp2651
Rp2652
(dp2653
g7
g8
sg9
V34HEO7RUG6VQ7R0DQ6Z70L171BPRAK
p2654
sbag1
(g2
g3
Ntp2655
Rp2656
(dp2657
g7
g8
sg9
V31N9JPQXIPJK2GGZ35SI8NJ1D9QNH3
p2658
sbag1
(g2
g3
Ntp2659
Rp2660
(dp2661
g7
g8
sg9
V3S1L4CQSFX6T41V4ZBZDJWNOYNEFAD
p2662
sbag1
(g2
g3
Ntp2663
Rp2664
(dp2665
g7
g8
sg9
V3UAU495MIIT7PNMV4JZU6R8WXRXOUK
p2666
sbag1
(g2
g3
Ntp2667
Rp2668
(dp2669
g7
g8
sg9
V3L55D8AUFAYNX79XOFNSECKS41PCY9
p2670
sbag1
(g2
g3
Ntp2671
Rp2672
(dp2673
g7
g8
sg9
V33KGGVH24UIEAZ9P3MC6E2USYY41X2
p2674
sbag1
(g2
g3
Ntp2675
Rp2676
(dp2677
g7
g8
sg9
V391JB9X4ZY95MOW7XPGF80AT00KKM4
p2678
sbag1
(g2
g3
Ntp2679
Rp2680
(dp2681
g7
g8
sg9
V3J6BHNX0U9TB46H79QVFLFZT5QUKN4
p2682
sbag1
(g2
g3
Ntp2683
Rp2684
(dp2685
g7
g8
sg9
V3OYHVNTV5TZTMRHJA5VS04ZYV0ZKOJ
p2686
sbag1
(g2
g3
Ntp2687
Rp2688
(dp2689
g7
g8
sg9
V360ZO6N6J1KL5SDGTSPQIRWDP689MZ
p2690
sbag1
(g2
g3
Ntp2691
Rp2692
(dp2693
g7
g8
sg9
V33Q5P9PUSPNN2XJ2K1PBSJTUAVTCZ0
p2694
sbag1
(g2
g3
Ntp2695
Rp2696
(dp2697
g7
g8
sg9
V3XUSYT70IT2054JQG37U6Q8QDOMD09
p2698
sbag1
(g2
g3
Ntp2699
Rp2700
(dp2701
g7
g8
sg9
V3L21G7IH47X3A4ZZ8IY8XG1104Y1Y8
p2702
sbag1
(g2
g3
Ntp2703
Rp2704
(dp2705
g7
g8
sg9
V35NNO802AVXKYBRJ9NA38ZKGDM5NIW
p2706
sbag1
(g2
g3
Ntp2707
Rp2708
(dp2709
g7
g8
sg9
V35U0MRQMUJ8722BV999Z2DAFBY6OV9
p2710
sbag1
(g2
g3
Ntp2711
Rp2712
(dp2713
g7
g8
sg9
V3WGCNLZJKF90CT48CMBUKVR0IGSD1C
p2714
sbag1
(g2
g3
Ntp2715
Rp2716
(dp2717
g7
g8
sg9
V33N1S8XHHMM3FU94440RBNA36Y21ZZ
p2718
sbag1
(g2
g3
Ntp2719
Rp2720
(dp2721
g7
g8
sg9
V351S7I5UG9XGTMBPR5V3K0ZGQ1UNJ8
p2722
sbag1
(g2
g3
Ntp2723
Rp2724
(dp2725
g7
g8
sg9
V3G5RUKN2EC4RNAYG5T4QV6LDUWI9NZ
p2726
sbag1
(g2
g3
Ntp2727
Rp2728
(dp2729
g7
g8
sg9
V3LXX8KJXPWA95VYS6843AVLIK6N9OE
p2730
sbag1
(g2
g3
Ntp2731
Rp2732
(dp2733
g7
g8
sg9
V3UQVX1UPFSID2ULAJENDA7HMGXX20P
p2734
sbag1
(g2
g3
Ntp2735
Rp2736
(dp2737
g7
g8
sg9
V3TCFMTM8HEPD9J6SFXRDOC0WLP321S
p2738
sbag1
(g2
g3
Ntp2739
Rp2740
(dp2741
g7
g8
sg9
V3J6BHNX0U9TB46H79QVFLFZT5QUNK7
p2742
sbag1
(g2
g3
Ntp2743
Rp2744
(dp2745
g7
g8
sg9
V3D3B8GE892SRQVATL8HIZVQ8UBJ9PV
p2746
sbag1
(g2
g3
Ntp2747
Rp2748
(dp2749
g7
g8
sg9
V3P0I4CQYVY8KHRB0ZJEVOFTTI78OWJ
p2750
sbag1
(g2
g3
Ntp2751
Rp2752
(dp2753
g7
g8
sg9
V3G4VVJO6PZHB7RTKP587P44O55VKP0
p2754
sbag1
(g2
g3
Ntp2755
Rp2756
(dp2757
g7
g8
sg9
V3MIVREZQVHZW73UZPINWP9UYA1HKQR
p2758
sbag1
(g2
g3
Ntp2759
Rp2760
(dp2761
g7
g8
sg9
V34O39PNDK69VQ155WKZ3VWLDJTARBF
p2762
sbag1
(g2
g3
Ntp2763
Rp2764
(dp2765
g7
g8
sg9
V3BDORL6HKKEE06XBAKVY6GRV1EARCM
p2766
sbag1
(g2
g3
Ntp2767
Rp2768
(dp2769
g7
g8
sg9
V3OPLMF3EU5OMOCZPUQ7G0FC8UQZNLA
p2770
sbag1
(g2
g3
Ntp2771
Rp2772
(dp2773
g7
g8
sg9
V3S8APUMBJXKYNB0W5PZ9E77UG5ZFB8
p2774
sbag1
(g2
g3
Ntp2775
Rp2776
(dp2777
g7
g8
sg9
V3I01FDIL6M971EM4VQB8PE15AM6D2T
p2778
sbag1
(g2
g3
Ntp2779
Rp2780
(dp2781
g7
g8
sg9
V3FW4EL5A3LPKY4OOY1RRTVA1DVH229
p2782
sbag1
(g2
g3
Ntp2783
Rp2784
(dp2785
g7
g8
sg9
V37ZQELHEQ0Z6UUHAU28V0SRXUVPNMC
p2786
sbag1
(g2
g3
Ntp2787
Rp2788
(dp2789
g7
g8
sg9
V3ZXV7Q5FJBPHXGS2JPV4PRDCYQZFCF
p2790
sbag1
(g2
g3
Ntp2791
Rp2792
(dp2793
g7
g8
sg9
V3JHB4BPSFKACQ7B8LLW7Z0GIZ759QM
p2794
sbag1
(g2
g3
Ntp2795
Rp2796
(dp2797
g7
g8
sg9
V30Y6N4AHYPXO5Y3PAGQ9QM9DMEMRDM
p2798
sbag1
(g2
g3
Ntp2799
Rp2800
(dp2801
g7
g8
sg9
V3LG268AV387TX4HP6B1TW4RYMQNREF
p2802
sbag1
(g2
g3
Ntp2803
Rp2804
(dp2805
g7
g8
sg9
V3H4IKZHALBJCCC2A63NVD7GXZLZNNC
p2806
sbag1
(g2
g3
Ntp2807
Rp2808
(dp2809
g7
g8
sg9
V3MWOYZD5WVPUUX2M7IN8SWG2PV4NOR
p2810
sbag1
(g2
g3
Ntp2811
Rp2812
(dp2813
g7
g8
sg9
V3OID399FXG8R28YGJLQF9XVUJQBFDF
p2814
sbag1
(g2
g3
Ntp2815
Rp2816
(dp2817
g7
g8
sg9
V3XH7ZM9YX2VC28Q8Y0L74QQNVT79RN
p2818
sbag1
(g2
g3
Ntp2819
Rp2820
(dp2821
g7
g8
sg9
V32PT7WK7DMGWMWINZQPD8O6XG06D34
p2822
sbag1
(g2
g3
Ntp2823
Rp2824
(dp2825
g7
g8
sg9
V3RHLQY6EDT5H4S1RZ4UWITY3U02D4P
p2826
sbag1
(g2
g3
Ntp2827
Rp2828
(dp2829
g7
g8
sg9
V3E22YV8GG17CFXENMI0NHWLSZ00NP8
p2830
sbag1
(g2
g3
Ntp2831
Rp2832
(dp2833
g7
g8
sg9
V3909MD9T2ZIWUECGFG1ZFFDFJ2CFE8
p2834
sbag1
(g2
g3
Ntp2835
Rp2836
(dp2837
g7
g8
sg9
V3RWSQDNYL9NO0SCCARL5XXYFV3RFFQ
p2838
sbag1
(g2
g3
Ntp2839
Rp2840
(dp2841
g7
g8
sg9
V3NFWQRSHVEFUES87LBRNFIYRWIRFGP
p2842
sbag1
(g2
g3
Ntp2843
Rp2844
(dp2845
g7
g8
sg9
V3J94SKDEKIQZ0B5RD9D6NL4HUWXD5U
p2846
sbag1
(g2
g3
Ntp2847
Rp2848
(dp2849
g7
g8
sg9
V30IRMPJWDZKWJ49Z2XCWUZ436NJKRS
p2850
sbag1
(g2
g3
Ntp2851
Rp2852
(dp2853
g7
g8
sg9
V30EMX9PEVKK8KJ9CHMC1K99ZSP2KSG
p2854
sbag1
(g2
g3
Ntp2855
Rp2856
(dp2857
g7
g8
sg9
V33CLA8O0MICL3IHL1MLZEMCYYR2RFX
p2858
sbag1
(g2
g3
Ntp2859
Rp2860
(dp2861
g7
g8
sg9
V3SR6AEG6W5UEEFKDA71TP3H8HTUHYN
p2862
sbag1
(g2
g3
Ntp2863
Rp2864
(dp2865
g7
g8
sg9
V3ZVPAMTJWN4RHIDGC6RHW7CAZ62RGW
p2866
sbag1
(g2
g3
Ntp2867
Rp2868
(dp2869
g7
g8
sg9
V3KG2UQJ0MJPXF9F2MVFCH1B24WMNQZ
p2870
sbag1
(g2
g3
Ntp2871
Rp2872
(dp2873
g7
g8
sg9
V3VI0PC2ZAYLZ6RGQ9OAHQY70R9EOXC
p2874
sbag1
(g2
g3
Ntp2875
Rp2876
(dp2877
g7
g8
sg9
V3AC6MFV69KJEJ5UI6T3C3AQANNYHZE
p2878
sbag1
(g2
g3
Ntp2879
Rp2880
(dp2881
g7
g8
sg9
V3JVP4ZJHDPTHDFZC8H85XNO35TUI0G
p2882
sbag1
(g2
g3
Ntp2883
Rp2884
(dp2885
g7
g8
sg9
V3BS6ERDL938VJF55ISNBFRIHQR8D6A
p2886
sbag1
(g2
g3
Ntp2887
Rp2888
(dp2889
g7
g8
sg9
V3YGYP13641AXRAU2ZA4CMRL70IONR0
p2890
sbag1
(g2
g3
Ntp2891
Rp2892
(dp2893
g7
g8
sg9
V3YCT0L9OMMA9SPUFEZ4HC1Q3MK7NSO
p2894
sbag1
(g2
g3
Ntp2895
Rp2896
(dp2897
g7
g8
sg9
V3U74KRR67MMA7P7U3Z97M6MPO3LNTD
p2898
sbag1
(g2
g3
Ntp2899
Rp2900
(dp2901
g7
g8
sg9
V36JW4WBR06L8EO3I5H950IASBI4FHO
p2902
sbag1
(g2
g3
Ntp2903
Rp2904
(dp2905
g7
g8
sg9
V3IH9TRB0FB0HK4KU40C5BS7DAL0I1J
p2906
sbag1
(g2
g3
Ntp2907
Rp2908
(dp2909
g7
g8
sg9
V3UUSLRKAUL4ENFJA12S3L5IDL2SD79
p2910
sbag1
(g2
g3
Ntp2911
Rp2912
(dp2913
g7
g8
sg9
V3W9XHF7WGKW9ZJMR6MHRUE5LU8GKT5
p2914
sbag1
(g2
g3
Ntp2915
Rp2916
(dp2917
g7
g8
sg9
V3IZPORCT1FA5HE8RWC9ZH7OBE6FRHV
p2918
sbag1
(g2
g3
Ntp2919
Rp2920
(dp2921
g7
g8
sg9
V3D0LPO3EAB0O6W60EKWJ9CE9TF8OYI
p2922
sbag1
(g2
g3
Ntp2923
Rp2924
(dp2925
g7
g8
sg9
V341YLJU21I0O9P2QN4CJGBHI2REI20
p2926
sbag1
(g2
g3
Ntp2927
Rp2928
(dp2929
g7
g8
sg9
V3OQQD2WO8I7DU7Y9R4QOZLMA85EI3B
p2930
sbag1
(g2
g3
Ntp2931
Rp2932
(dp2933
g7
g8
sg9
V3ZLW647WALW9JMK7215WC5FTJ9H23K
p2934
sbag1
(g2
g3
Ntp2935
Rp2936
(dp2937
g7
g8
sg9
V3RKHNXPHGWXOZW1G6R71ZARNDMNKUW
p2938
sbag1
(g2
g3
Ntp2939
Rp2940
(dp2941
g7
g8
sg9
V3MZ3TAMYTLO5D9JB2URKHJPQEJURIO
p2942
sbag1
(g2
g3
Ntp2943
Rp2944
(dp2945
g7
g8
sg9
V3XD2A6FGFNVO3NQLDPLCU0VJHVQ9SB
p2946
sbag1
(g2
g3
Ntp2947
Rp2948
(dp2949
g7
g8
sg9
V3DIIW4IV8PWYC3HDRIV79QEGM5AI4W
p2950
sbag1
(g2
g3
Ntp2951
Rp2952
(dp2953
g7
g8
sg9
V324N5FAHSXCOCBQGBHH6VWT6RTWKVL
p2954
sbag1
(g2
g3
Ntp2955
Rp2956
(dp2957
g7
g8
sg9
V3PIOQ99R7YNP72MJ34ZHR28R7HSNU4
p2958
sbag1
(g2
g3
Ntp2959
Rp2960
(dp2961
g7
g8
sg9
V3AJA9FLWSCZ8AJE2BZRQ0UB7BVJFIH
p2962
sbag1
(g2
g3
Ntp2963
Rp2964
(dp2965
g7
g8
sg9
V3VLL1PIENQPOBMG5A6Y2NJNBZ9COZ9
p2966
sbag1
(g2
g3
Ntp2967
Rp2968
(dp2969
g7
g8
sg9
V3SA4EMRVJV39U1MGLCYP6KPFR7PP0Z
p2970
sbag1
(g2
g3
Ntp2971
Rp2972
(dp2973
g7
g8
sg9
V35A1YQPVFEHG8MLD5NEHEIKUM15I51
p2974
sbag1
(g2
g3
Ntp2975
Rp2976
(dp2977
g7
g8
sg9
V3ODOP6T3ASLU1I3B2FAFMA7ZX9D245
p2978
sbag1
(g2
g3
Ntp2979
Rp2980
(dp2981
g7
g8
sg9
V3MD8CKRQZZO18K3HKCCKTK4QRYJRJ0
p2982
sbag1
(g2
g3
Ntp2983
Rp2984
(dp2985
g7
g8
sg9
V302U8RURJZ2PKHBJ8U9MNOAALO1NVT
p2986
sbag1
(g2
g3
Ntp2987
Rp2988
(dp2989
g7
g8
sg9
V3AXFSPQOYQZ45UY8THCQCVQ7OA8FJT
p2990
sbag1
(g2
g3
Ntp2991
Rp2992
(dp2993
g7
g8
sg9
V3T8DUCXY0N7PIN302PQ245R5JE49T0
p2994
sbag1
(g2
g3
Ntp2995
Rp2996
(dp2997
g7
g8
sg9
V3RWO3EJELHA91Q7YHV2PKP8PWZVP12
p2998
sbag1
(g2
g3
Ntp2999
Rp3000
(dp3001
g7
g8
sg9
V3WGZLY9VCHNINTOTB7K9Z5E8WMYD8W
p3002
sbag1
(g2
g3
Ntp3003
Rp3004
(dp3005
g7
g8
sg9
V30IRMPJWDZKWJ49Z2XCWUZ436NJRKZ
p3006
sbag1
(g2
g3
Ntp3007
Rp3008
(dp3009
g7
g8
sg9
V3K8CQCU3KE22Z6BOY4EI9QTOSX3NW3
p3010
sbag1
(g2
g3
Ntp3011
Rp3012
(dp3013
g7
g8
sg9
V3O2Y2UIUCQVZGE4QB2C2DAQK3Z8FKS
p3014
sbag1
(g2
g3
Ntp3015
Rp3016
(dp3017
g7
g8
sg9
V3OJX0UFJ0Z84I0IP2UGC91D72SB9UR
p3018
sbag1
(g2
g3
Ntp3019
Rp3020
(dp3021
g7
g8
sg9
V3511RHPADVF73ARHNXOX9ZHIVNORL2
p3022
sbag1
(g2
g3
Ntp3023
Rp3024
(dp3025
g7
g8
sg9
V3QQUBC64ZEFHO6GE89A4B97V1Z9NXW
p3026
sbag1
(g2
g3
Ntp3027
Rp3028
(dp3029
g7
g8
sg9
V388FBO7JZRU6OB6OD5W6UNE4353NY2
p3030
sbag1
(g2
g3
Ntp3031
Rp3032
(dp3033
g7
g8
sg9
V3TL87MO8CMQA0KM8W2O3SA3ZSZDFLV
p3034
sbag1
(g2
g3
Ntp3035
Rp3036
(dp3037
g7
g8
sg9
V3DGDV62G7OAGQBPU0Z23P8IUO59P2J
p3038
sbag1
(g2
g3
Ntp3039
Rp3040
(dp3041
g7
g8
sg9
V3XT3KXP24ZZCRQLRA6OM6OYUIWGI6H
p3042
sbag1
(g2
g3
Ntp3043
Rp3044
(dp3045
g7
g8
sg9
V3MA5N0ATTCC1R0QL1RM2HYCKY2YKWV
p3046
sbag1
(g2
g3
Ntp3047
Rp3048
(dp3049
g7
g8
sg9
V3SSN80MU8CPGG0VBBWIOJHQR744KXO
p3050
sbag1
(g2
g3
Ntp3051
Rp3052
(dp3053
g7
g8
sg9
V3QTFNPMJC6J6T1GT9RYP8UN69Z7NZT
p3054
sbag1
(g2
g3
Ntp3055
Rp3056
(dp3057
g7
g8
sg9
V3Z33IC0JC0N4VF7P7KQH5NFQGZK9VG
p3058
sbag1
(g2
g3
Ntp3059
Rp3060
(dp3061
g7
g8
sg9
V3J9L0X0VDFNHA47UXUVDRPY4N8M9WQ
p3062
sbag1
(g2
g3
Ntp3063
Rp3064
(dp3065
g7
g8
sg9
V3GVPRXWRPHVVVQZWTGTEC2YQD70I7G
p3066
sbag1
(g2
g3
Ntp3067
Rp3068
(dp3069
g7
g8
sg9
V33TGB4G0LPIFJJLY55WGK8DNQHVTX3
p3070
sbag1
(g2
g3
Ntp3071
Rp3072
(dp3073
g7
g8
sg9
V3LB1BGHFL2X4JOB8A1II3MKWSNPTY9
p3074
sbag1
(g2
g3
Ntp3075
Rp3076
(dp3077
g7
g8
sg9
V3AA88CN98P45G5LLGS4Q2VX09AYKYU
p3078
sbag1
(g2
g3
Ntp3079
Rp3080
(dp3081
g7
g8
sg9
V3CVDZS288H1U624TWEPISNIOS43FMX
p3082
sbag1
(g2
g3
Ntp3083
Rp3084
(dp3085
g7
g8
sg9
V3X55NP42EOH5BTLD4ZG88INMUJ9P3U
p3086
sbag1
(g2
g3
Ntp3087
Rp3088
(dp3089
g7
g8
sg9
V3OB6JN3A9QQR9S92N9PC9CW7VSERM4
p3090
sbag1
(g2
g3
Ntp3091
Rp3092
(dp3093
g7
g8
sg9
V3YGYP13641AXRAU2ZA4CMRL70IORN4
p3094
sbag1
(g2
g3
Ntp3095
Rp3096
(dp3097
g7
g8
sg9
V3PR3LXCWSF0WZ4CK7ZRZT8CBWAS9XJ
p3098
sbag1
(g2
g3
Ntp3099
Rp3100
(dp3101
g7
g8
sg9
V379OL9DBSSFLZ92UCVD1CMJKYGM9YP
p3102
sbag1
(g2
g3
Ntp3103
Rp3104
(dp3105
g7
g8
sg9
V3PUOXASB574L4ZCZ8HFKQTSM4AQ9ZG
p3106
sbag1
(g2
g3
Ntp3107
Rp3108
(dp3109
g7
g8
sg9
V33W1NHWFYHM4OELD6NK1HTTYYHTTZ0
p3110
sbag1
(g2
g3
Ntp3111
Rp3112
(dp3113
g7
g8
sg9
V33QQ60S6ASJMM6UC2YXJGQCEZOHU00
p3114
sbag1
(g2
g3
Ntp3115
Rp3116
(dp3117
g7
g8
sg9
V3SV8KD29L4T5LVVQCE69G262F42KZL
p3118
sbag1
(g2
g3
Ntp3119
Rp3120
(dp3121
g7
g8
sg9
V304QEQWKZPLR91AF6CLAHKKPH2TO0H
p3122
sbag1
(g2
g3
Ntp3123
Rp3124
(dp3125
g7
g8
sg9
V3M0556243SL0OKPT8F4I527OXUDFNX
p3126
sbag1
(g2
g3
Ntp3127
Rp3128
(dp3129
g7
g8
sg9
V31D0ZWOD0A027XGEWTGSGP0KSLPA04
p3130
sbag1
(g2
g3
Ntp3131
Rp3132
(dp3133
g7
g8
sg9
V3H6W48L9F4Q22RN1EJRADFYJSC4WP8
p3134
sbag1
(g2
g3
Ntp3135
Rp3136
(dp3137
g7
g8
sg9
V32XN26MTXZKJ3G7ITK5IP3GVMXOL0X
p3138
sbag1
(g2
g3
Ntp3139
Rp3140
(dp3141
g7
g8
sg9
V338431Z1FLGF9VUE0P4P1GLCQSTROJ
p3142
sbag1
(g2
g3
Ntp3143
Rp3144
(dp3145
g7
g8
sg9
V3RSBJ6YZECRI65P59U4VKR7TN4IFOC
p3146
sbag1
(g2
g3
Ntp3147
Rp3148
(dp3149
g7
g8
sg9
V3IHWR4LC7DEZV44F3LLKQ2ULOR6I83
p3150
sbag1
(g2
g3
Ntp3151
Rp3152
(dp3153
g7
g8
sg9
V3NKW03WTLM8N23OGEW6ZDKOTX8QWQZ
p3154
sbag1
(g2
g3
Ntp3155
Rp3156
(dp3157
g7
g8
sg9
V31J7RYECZLRJA5S0P39I38Z5RPUL10
p3158
sbag1
(g2
g3
Ntp3159
Rp3160
(dp3161
g7
g8
sg9
V3JYPJ2TAYI90R516OUHA9RCJX9EFPT
p3162
sbag1
(g2
g3
Ntp3163
Rp3164
(dp3165
g7
g8
sg9
V3PCPFX4U40RLRH2LO7WZ9W2T250FQK
p3166
sbag1
(g2
g3
Ntp3167
Rp3168
(dp3169
g7
g8
sg9
V34OWYT6U3WIZ99NP8DRYQYPW8XOI9S
p3170
sbag1
(g2
g3
Ntp3171
Rp3172
(dp3173
g7
g8
sg9
V3BO3NEOQM0IDESXU0J5YMT0GEF6IA7
p3174
sbag1
(g2
g3
Ntp3175
Rp3176
(dp3177
g7
g8
sg9
V32CAVSKPCEQMTVFUYH1JUVVO4GNU13
p3178
sbag1
(g2
g3
Ntp3179
Rp3180
(dp3181
g7
g8
sg9
V31KSVEGZ34TNE43GRBVZIAYYTUSWR0
p3182
sbag1
(g2
g3
Ntp3183
Rp3184
(dp3185
g7
g8
sg9
V31GN6YMHLPTZFJ3T60V48K3UFWBWSO
p3186
sbag1
(g2
g3
Ntp3187
Rp3188
(dp3189
g7
g8
sg9
V3VEI3XUCZRYXUV6FFPH4QGQ20XPRP0
p3190
sbag1
(g2
g3
Ntp3191
Rp3192
(dp3193
g7
g8
sg9
V33CLA8O0MICL3IHL1MLZEMCYYR2FRL
p3194
sbag1
(g2
g3
Ntp3195
Rp3196
(dp3197
g7
g8
sg9
V3XBYQ44Z6P50UJG8V00UIPZGHFPWTD
p3198
sbag1
(g2
g3
Ntp3199
Rp3200
(dp3201
g7
g8
sg9
V3N3WJQXELSRQZQAW879W8R9AJV8L2H
p3202
sbag1
(g2
g3
Ntp3203
Rp3204
(dp3205
g7
g8
sg9
V3MXX6RQ9EV6QTP4H4DLRINFS8J5P4F
p3206
sbag1
(g2
g3
Ntp3207
Rp3208
(dp3209
g7
g8
sg9
V3EPG8DX9LKR8P88HII41NFL68F0P5K
p3210
sbag1
(g2
g3
Ntp3211
Rp3212
(dp3213
g7
g8
sg9
V3BVS8WK9Q0WIX22M6X5UH4KMWXRIB2
p3214
sbag1
(g2
g3
Ntp3215
Rp3216
(dp3217
g7
g8
sg9
V3SMIWMMK616FUWVXV5Q4NLLI0TWWU4
p3218
sbag1
(g2
g3
Ntp3219
Rp3220
(dp3221
g7
g8
sg9
V31SIZS5W59GIU77UF2WTQLGC5TBRQR
p3222
sbag1
(g2
g3
Ntp3223
Rp3224
(dp3225
g7
g8
sg9
V3ZQA3IO31BSRGQVX2VPAVP3ZMUZO1K
p3226
sbag1
(g2
g3
Ntp3227
Rp3228
(dp3229
g7
g8
sg9
V30ZKOOGW2W72EM1WSCKSUUJUXDVA17
p3230
sbag1
(g2
g3
Ntp3231
Rp3232
(dp3233
g7
g8
sg9
V3IKDQS3DQE1177USKX1PSOQ4EIRIC9
p3234
sbag1
(g2
g3
Ntp3235
Rp3236
(dp3237
g7
g8
sg9
V3OWZNK3RYLQTIGXQHL1XZE5TWM1U2K
p3238
sbag1
(g2
g3
Ntp3239
Rp3240
(dp3241
g7
g8
sg9
V336OE47KI2LF7BKX0V09J7N1E05WVT
p3242
sbag1
(g2
g3
Ntp3243
Rp3244
(dp3245
g7
g8
sg9
V37SOB9Z0SSYFK86FC7N1R1E2P98L3S
p3246
sbag1
(g2
g3
Ntp3247
Rp3248
(dp3249
g7
g8
sg9
V3LAZVA75NISY5BDTLZPO08D4E0DO21
p3250
sbag1
(g2
g3
Ntp3251
Rp3252
(dp3253
g7
g8
sg9
V368IUKXGA5948C8VN1E6FLZ64ABP60
p3254
sbag1
(g2
g3
Ntp3255
Rp3256
(dp3257
g7
g8
sg9
V38LRF35D5LXI3YT9LLF2IOAL201U3V
p3258
sbag1
(g2
g3
Ntp3259
Rp3260
(dp3261
g7
g8
sg9
V3WKGUBL7SZN024PJCLSK1668394L4D
p3262
sbag1
(g2
g3
Ntp3263
Rp3264
(dp3265
g7
g8
sg9
V3FSEU3P2NR1I68MUSHLTVBQH1FDRRS
p3266
sbag1
(g2
g3
Ntp3267
Rp3268
(dp3269
g7
g8
sg9
V338GLSUI43CX4XHYGBL44WHUKTLFS9
p3270
sbag1
(g2
g3
Ntp3271
Rp3272
(dp3273
g7
g8
sg9
V3PA41K45VN5NCCM06BJYLZZ2ZLVP7Z
p3274
sbag1
(g2
g3
Ntp3275
Rp3276
(dp3277
g7
g8
sg9
V375VMB7D4JKBCZ06KTW0CU8MZI3ID9
p3278
sbag1
(g2
g3
Ntp3279
Rp3280
(dp3281
g7
g8
sg9
V3OCZWXS7ZO8IYNTJQQBU6YCM35ZL5I
p3282
sbag1
(g2
g3
Ntp3283
Rp3284
(dp3285
g7
g8
sg9
V3Z3R5YC0P3OYJXUD5BQUE1DGMCZFTY
p3286
sbag1
(g2
g3
Ntp3287
Rp3288
(dp3289
g7
g8
sg9
V3MJ9GGZYO37937JSBGK6ZDTZPJ9A2O
p3290
sbag1
(g2
g3
Ntp3291
Rp3292
(dp3293
g7
g8
sg9
V3RWB1RTQDJORCQRJGGB4ZZVXA51P8M
p3294
sbag1
(g2
g3
Ntp3295
Rp3296
(dp3297
g7
g8
sg9
V3SNR5F7R92UG45E6GO7KICQ7ZU4IE2
p3298
sbag1
(g2
g3
Ntp3299
Rp3300
(dp3301
g7
g8
sg9
V3NC6WP7WJHLSM0K2Q555596FL97WW3
p3302
sbag1
(g2
g3
Ntp3303
Rp3304
(dp3305
g7
g8
sg9
V3TUOHPJXYHY7B0PS0A1R7SKMUBDWXW
p3306
sbag1
(g2
g3
Ntp3307
Rp3308
(dp3309
g7
g8
sg9
V3GV1I4SEO9QEHRTXV9LZY4QMZ0AL6Y
p3310
sbag1
(g2
g3
Ntp3311
Rp3312
(dp3313
g7
g8
sg9
V3ZXNP4Z39RMXLR72EJQR4IQIUBUL7X
p3314
sbag1
(g2
g3
Ntp3315
Rp3316
(dp3317
g7
g8
sg9
V3UEBBGULPFPDJA925GG4JXZI5Q6FUP
p3318
sbag1
(g2
g3
Ntp3319
Rp3320
(dp3321
g7
g8
sg9
V36818Z1KV3EYOPFBFGYBINYRVX9A3Z
p3322
sbag1
(g2
g3
Ntp3323
Rp3324
(dp3325
g7
g8
sg9
V3XDJY5RK5SM3LUCDLZKLST2RG0XU4G
p3326
sbag1
(g2
g3
Ntp3327
Rp3328
(dp3329
g7
g8
sg9
V3BC9H1KCYUDWB5F256NTQ6RVWH7WY2
p3330
sbag1
(g2
g3
Ntp3331
Rp3332
(dp3333
g7
g8
sg9
V31JUPBOORN51L5CLOOIXIIMD5V0L8K
p3334
sbag1
(g2
g3
Ntp3335
Rp3336
(dp3337
g7
g8
sg9
V3D3B8GE892SRQVATL8HIZVQ8UBJP9B
p3338
sbag1
(g2
g3
Ntp3339
Rp3340
(dp3341
g7
g8
sg9
V3AJA9FLWSCZ8AJE2BZRQ0UB7BVJIFK
p3342
sbag1
(g2
g3
Ntp3343
Rp3344
(dp3345
g7
g8
sg9
V3TX9T2ZCB92WGVP71SPC4D0X2BBWZT
p3346
sbag1
(g2
g3
Ntp3347
Rp3348
(dp3349
g7
g8
sg9
V35ZRNT9RUIZNQT9CPZ3TJIIWKEDO3C
p3350
sbag1
(g2
g3
Ntp3351
Rp3352
(dp3353
g7
g8
sg9
V3V0TR1NRVA3J6LYFFU3USSQX9X5A4K
p3354
sbag1
(g2
g3
Ntp3355
Rp3356
(dp3357
g7
g8
sg9
V3NSCTNUR2ZO1242FTZM4XKWB9T0A5P
p3358
sbag1
(g2
g3
Ntp3359
Rp3360
(dp3361
g7
g8
sg9
V3K3IX1W4S6S5VEKYDEVIVQ1S0T1PAQ
p3362
sbag1
(g2
g3
Ntp3363
Rp3364
(dp3365
g7
g8
sg9
V362E9TQF2HREOJAXMJX8IFBJCAJIGJ
p3366
sbag1
(g2
g3
Ntp3367
Rp3368
(dp3369
g7
g8
sg9
V3NQUW096N691ZAVVTGOBIEHOP1IL99
p3370
sbag1
(g2
g3
Ntp3371
Rp3372
(dp3373
g7
g8
sg9
V3UQ1LLR26A9F4T50LM2BE9S8VJ0LAO
p3374
sbag1
(g2
g3
Ntp3375
Rp3376
(dp3377
g7
g8
sg9
V3URJ6VVYUPO88PSGPD8CTNA2YE9O4X
p3378
sbag1
(g2
g3
Ntp3379
Rp3380
(dp3381
g7
g8
sg9
V3FBEFUUYRK6XL82TYIW9PQAB5OBA65
p3382
sbag1
(g2
g3
Ntp3383
Rp3384
(dp3385
g7
g8
sg9
V3YD0MU1NC22GP8GYHS11V4A70ZVA74
p3386
sbag1
(g2
g3
Ntp3387
Rp3388
(dp3389
g7
g8
sg9
V3KA7IJSNW66AEOPQJSVEQ1LYIBMPBL
p3390
sbag1
(g2
g3
Ntp3391
Rp3392
(dp3393
g7
g8
sg9
V34YWR3PJ28BE3AO773860XBIT6YX0V
p3394
sbag1
(g2
g3
Ntp3395
Rp3396
(dp3397
g7
g8
sg9
V3FO95NVK5C1U7NM776LYLLVDNHWRSG
p3398
sbag1
(g2
g3
Ntp3399
Rp3400
(dp3401
g7
g8
sg9
V3BJKPTD2QCDVMNZMW6QOVQRZP0ART5
p3402
sbag1
(g2
g3
Ntp3403
Rp3404
(dp3405
g7
g8
sg9
V3MJ28H2Y1E9Q48WG3IRMYFGGYA4O52
p3406
sbag1
(g2
g3
Ntp3407
Rp3408
(dp3409
g7
g8
sg9
V3P6ENY9P79XSOF586PFQ3FNKRAWIHI
p3410
sbag1
(g2
g3
Ntp3411
Rp3412
(dp3413
g7
g8
sg9
V33KGGVH24UIEAZ9P3MC6E2USYY4X1Y
p3414
sbag1
(g2
g3
Ntp3415
Rp3416
(dp3417
g7
g8
sg9
V36U4VBVNQOEAM0EBWBGY0MD18EHRUW
p3418
sbag1
(g2
g3
Ntp3419
Rp3420
(dp3421
g7
g8
sg9
V35YHTYFL1G4DWPY2A6Q9FJ11JXFFVE
p3422
sbag1
(g2
g3
Ntp3423
Rp3424
(dp3425
g7
g8
sg9
V3P4ZBJFX2V4QBEY70GV51LKFQ6HFWO
p3426
sbag1
(g2
g3
Ntp3427
Rp3428
(dp3429
g7
g8
sg9
V3T6SSHJUZFBSKAGSC7XB3ROZRNBIIB
p3430
sba.